Archive member included because of file (symbol)

/Applications/microchip/mplabc32/v1.11a/bin/../lib/gcc/pic32mx/3.4.4/../../../../pic32mx/lib/libmchp_peripheral.a(open_core_timer_lib.o)
                              build/mega/production/pic32bootloader.o (OpenCoreTimer)
/Applications/microchip/mplabc32/v1.11a/bin/../lib/gcc/pic32mx/3.4.4/../../../../pic32mx/lib/libmchp_peripheral_32MX795F512L.a(pcache.o)
                              build/mega/production/pic32bootloader.o (CheKseg0CacheOn)
/Applications/microchip/mplabc32/v1.11a/bin/../lib/gcc/pic32mx/3.4.4/../../../../pic32mx/lib/libmchp_peripheral_32MX795F512L.a(int_disable_interrupts_lib.o)
                              build/mega/production/pic32bootloader.o (INTDisableInterrupts)
/Applications/microchip/mplabc32/v1.11a/bin/../lib/gcc/pic32mx/3.4.4/../../../../pic32mx/lib/libmchp_peripheral_32MX795F512L.a(int_restore_interrupts_lib.o)
                              build/mega/production/pic32bootloader.o (INTRestoreInterrupts)
/Applications/microchip/mplabc32/v1.11a/bin/../lib/gcc/pic32mx/3.4.4/../../../../pic32mx/lib/libmchp_peripheral_32MX795F512L.a(nvm_program_lib.o)
                              build/mega/production/pic32bootloader.o (NVMProgram)
/Applications/microchip/mplabc32/v1.11a/bin/../lib/gcc/pic32mx/3.4.4/../../../../pic32mx/lib/libmchp_peripheral_32MX795F512L.a(nvm_write_row_lib.o)
                              /Applications/microchip/mplabc32/v1.11a/bin/../lib/gcc/pic32mx/3.4.4/../../../../pic32mx/lib/libmchp_peripheral_32MX795F512L.a(nvm_program_lib.o) (NVMWriteRow)
/Applications/microchip/mplabc32/v1.11a/bin/../lib/gcc/pic32mx/3.4.4/../../../../pic32mx/lib/libmchp_peripheral_32MX795F512L.a(nvm_erase_page_lib.o)
                              /Applications/microchip/mplabc32/v1.11a/bin/../lib/gcc/pic32mx/3.4.4/../../../../pic32mx/lib/libmchp_peripheral_32MX795F512L.a(nvm_program_lib.o) (NVMErasePage)
/Applications/microchip/mplabc32/v1.11a/bin/../lib/gcc/pic32mx/3.4.4/../../../../pic32mx/lib/libmchp_peripheral_32MX795F512L.a(nvm_operation_lib.o)
                              /Applications/microchip/mplabc32/v1.11a/bin/../lib/gcc/pic32mx/3.4.4/../../../../pic32mx/lib/libmchp_peripheral_32MX795F512L.a(nvm_write_row_lib.o) (_NVMOperation)
/Applications/microchip/mplabc32/v1.11a/bin/../lib/gcc/pic32mx/3.4.4/../../../../pic32mx/lib/libc.a(memcpy.o)
                              /Applications/microchip/mplabc32/v1.11a/bin/../lib/gcc/pic32mx/3.4.4/../../../../pic32mx/lib/libmchp_peripheral_32MX795F512L.a(nvm_program_lib.o) (memcpy)

Microchip PIC32 Memory-Usage Report

kseg0 Program-Memory Usage
section                    address  length [bytes]      (dec)  Description
-------                 ----------  -------------------------  -----------
      Total kseg0_program_mem used  :           0           0  

kseg0 Boot-Memory Usage
section                    address  length [bytes]      (dec)  Description
-------                 ----------  -------------------------  -----------
.startup                0x9fc00490           0xbc         188  C startup code 
.text                   0x9fc0054c         0x189c        6300  Application's executable code 
.rodata                 0x9fc01de8          0x204         516  Read-only constant data 
         Total kseg0_boot_mem used  :      0x1b5c        7004  99.7% of 0x1b70

Exception-Memory Usage 
section                    address  length [bytes]      (dec)  Description
-------                 ----------  -------------------------  -----------
          Total exception_mem used  :           0           0  

kseg1 Boot-Memory Usage
section                    address  length [bytes]      (dec)  Description
-------                 ----------  -------------------------  -----------
.reset                  0xbfc00000           0x10          16  Reset handler 
         Total kseg1_boot_mem used  :        0x10          16  1.4% of 0x490
        --------------------------------------------------------------------------
         Total Program Memory used  :      0x1b6c        7020  85.7% of 0x2000
        --------------------------------------------------------------------------


kseg1 Data-Memory Usage
section                    address  length [bytes]      (dec)  Description
-------                 ----------  -------------------------  -----------
.sbss                   0xa0000004           0x1c          28  Small uninitialized data 
.bss                    0xa0000020          0x600        1536  Uninitialized data 
.stack                  0xa0000620          0x400        1024  Minimum space reserved for stack 
         Total kseg1_data_mem used  :       0xa1c        2588  7.9% of 0x7ffc
        --------------------------------------------------------------------------
            Total Data Memory used  :       0xa1c        2588  7.9% of 0x7ffc
        --------------------------------------------------------------------------

Discarded input sections

 .data          0x0000000000000000        0x0 build/mega/production/startup.o
 .bss           0x0000000000000000        0x0 build/mega/production/startup.o
 .reginfo       0x0000000000000000       0x18 build/mega/production/startup.o
 .pdr           0x0000000000000000       0x60 build/mega/production/startup.o
 .text          0x0000000000000000        0x0 build/mega/production/pic32bootloader.o
 .data          0x0000000000000000        0x0 build/mega/production/pic32bootloader.o
 .bss           0x0000000000000000        0x0 build/mega/production/pic32bootloader.o
 .reginfo       0x0000000000000000       0x18 build/mega/production/pic32bootloader.o
 .pdr           0x0000000000000000      0x300 build/mega/production/pic32bootloader.o
 .text.delay_ms
                0x0000000000000000       0x48 build/mega/production/pic32bootloader.o
 .text.DebugTimeOut
                0x0000000000000000       0x8c build/mega/production/pic32bootloader.o
 .text.PrintDecInt
                0x0000000000000000       0xe0 build/mega/production/pic32bootloader.o
 .text          0x0000000000000000        0x0 /Applications/microchip/mplabc32/v1.11a/bin/../lib/gcc/pic32mx/3.4.4/../../../../pic32mx/lib/./proc/32MX795F512L/processor.o
 .data          0x0000000000000000        0x0 /Applications/microchip/mplabc32/v1.11a/bin/../lib/gcc/pic32mx/3.4.4/../../../../pic32mx/lib/./proc/32MX795F512L/processor.o
 .bss           0x0000000000000000        0x0 /Applications/microchip/mplabc32/v1.11a/bin/../lib/gcc/pic32mx/3.4.4/../../../../pic32mx/lib/./proc/32MX795F512L/processor.o
 .reginfo       0x0000000000000000       0x18 /Applications/microchip/mplabc32/v1.11a/bin/../lib/gcc/pic32mx/3.4.4/../../../../pic32mx/lib/./proc/32MX795F512L/processor.o
 .pdr           0x0000000000000000        0x0 /Applications/microchip/mplabc32/v1.11a/bin/../lib/gcc/pic32mx/3.4.4/../../../../pic32mx/lib/./proc/32MX795F512L/processor.o
 .text          0x0000000000000000        0x0 /Applications/microchip/mplabc32/v1.11a/bin/../lib/gcc/pic32mx/3.4.4/../../../../pic32mx/lib/libmchp_peripheral.a(open_core_timer_lib.o)
 .data          0x0000000000000000        0x0 /Applications/microchip/mplabc32/v1.11a/bin/../lib/gcc/pic32mx/3.4.4/../../../../pic32mx/lib/libmchp_peripheral.a(open_core_timer_lib.o)
 .bss           0x0000000000000000        0x0 /Applications/microchip/mplabc32/v1.11a/bin/../lib/gcc/pic32mx/3.4.4/../../../../pic32mx/lib/libmchp_peripheral.a(open_core_timer_lib.o)
 .reginfo       0x0000000000000000       0x18 /Applications/microchip/mplabc32/v1.11a/bin/../lib/gcc/pic32mx/3.4.4/../../../../pic32mx/lib/libmchp_peripheral.a(open_core_timer_lib.o)
 .pdr           0x0000000000000000       0x20 /Applications/microchip/mplabc32/v1.11a/bin/../lib/gcc/pic32mx/3.4.4/../../../../pic32mx/lib/libmchp_peripheral.a(open_core_timer_lib.o)
 .text          0x0000000000000000        0x0 /Applications/microchip/mplabc32/v1.11a/bin/../lib/gcc/pic32mx/3.4.4/../../../../pic32mx/lib/libmchp_peripheral_32MX795F512L.a(pcache.o)
 .data          0x0000000000000000        0x0 /Applications/microchip/mplabc32/v1.11a/bin/../lib/gcc/pic32mx/3.4.4/../../../../pic32mx/lib/libmchp_peripheral_32MX795F512L.a(pcache.o)
 .bss           0x0000000000000000        0x0 /Applications/microchip/mplabc32/v1.11a/bin/../lib/gcc/pic32mx/3.4.4/../../../../pic32mx/lib/libmchp_peripheral_32MX795F512L.a(pcache.o)
 .reginfo       0x0000000000000000       0x18 /Applications/microchip/mplabc32/v1.11a/bin/../lib/gcc/pic32mx/3.4.4/../../../../pic32mx/lib/libmchp_peripheral_32MX795F512L.a(pcache.o)
 .pdr           0x0000000000000000       0x40 /Applications/microchip/mplabc32/v1.11a/bin/../lib/gcc/pic32mx/3.4.4/../../../../pic32mx/lib/libmchp_peripheral_32MX795F512L.a(pcache.o)
 .text.CheKseg0CacheOff
                0x0000000000000000       0x18 /Applications/microchip/mplabc32/v1.11a/bin/../lib/gcc/pic32mx/3.4.4/../../../../pic32mx/lib/libmchp_peripheral_32MX795F512L.a(pcache.o)
 .text          0x0000000000000000        0x0 /Applications/microchip/mplabc32/v1.11a/bin/../lib/gcc/pic32mx/3.4.4/../../../../pic32mx/lib/libmchp_peripheral_32MX795F512L.a(int_disable_interrupts_lib.o)
 .data          0x0000000000000000        0x0 /Applications/microchip/mplabc32/v1.11a/bin/../lib/gcc/pic32mx/3.4.4/../../../../pic32mx/lib/libmchp_peripheral_32MX795F512L.a(int_disable_interrupts_lib.o)
 .bss           0x0000000000000000        0x0 /Applications/microchip/mplabc32/v1.11a/bin/../lib/gcc/pic32mx/3.4.4/../../../../pic32mx/lib/libmchp_peripheral_32MX795F512L.a(int_disable_interrupts_lib.o)
 .reginfo       0x0000000000000000       0x18 /Applications/microchip/mplabc32/v1.11a/bin/../lib/gcc/pic32mx/3.4.4/../../../../pic32mx/lib/libmchp_peripheral_32MX795F512L.a(int_disable_interrupts_lib.o)
 .pdr           0x0000000000000000       0x20 /Applications/microchip/mplabc32/v1.11a/bin/../lib/gcc/pic32mx/3.4.4/../../../../pic32mx/lib/libmchp_peripheral_32MX795F512L.a(int_disable_interrupts_lib.o)
 .text          0x0000000000000000        0x0 /Applications/microchip/mplabc32/v1.11a/bin/../lib/gcc/pic32mx/3.4.4/../../../../pic32mx/lib/libmchp_peripheral_32MX795F512L.a(int_restore_interrupts_lib.o)
 .data          0x0000000000000000        0x0 /Applications/microchip/mplabc32/v1.11a/bin/../lib/gcc/pic32mx/3.4.4/../../../../pic32mx/lib/libmchp_peripheral_32MX795F512L.a(int_restore_interrupts_lib.o)
 .bss           0x0000000000000000        0x0 /Applications/microchip/mplabc32/v1.11a/bin/../lib/gcc/pic32mx/3.4.4/../../../../pic32mx/lib/libmchp_peripheral_32MX795F512L.a(int_restore_interrupts_lib.o)
 .reginfo       0x0000000000000000       0x18 /Applications/microchip/mplabc32/v1.11a/bin/../lib/gcc/pic32mx/3.4.4/../../../../pic32mx/lib/libmchp_peripheral_32MX795F512L.a(int_restore_interrupts_lib.o)
 .pdr           0x0000000000000000       0x20 /Applications/microchip/mplabc32/v1.11a/bin/../lib/gcc/pic32mx/3.4.4/../../../../pic32mx/lib/libmchp_peripheral_32MX795F512L.a(int_restore_interrupts_lib.o)
 .text          0x0000000000000000        0x0 /Applications/microchip/mplabc32/v1.11a/bin/../lib/gcc/pic32mx/3.4.4/../../../../pic32mx/lib/libmchp_peripheral_32MX795F512L.a(nvm_program_lib.o)
 .data          0x0000000000000000        0x0 /Applications/microchip/mplabc32/v1.11a/bin/../lib/gcc/pic32mx/3.4.4/../../../../pic32mx/lib/libmchp_peripheral_32MX795F512L.a(nvm_program_lib.o)
 .bss           0x0000000000000000        0x0 /Applications/microchip/mplabc32/v1.11a/bin/../lib/gcc/pic32mx/3.4.4/../../../../pic32mx/lib/libmchp_peripheral_32MX795F512L.a(nvm_program_lib.o)
 .reginfo       0x0000000000000000       0x18 /Applications/microchip/mplabc32/v1.11a/bin/../lib/gcc/pic32mx/3.4.4/../../../../pic32mx/lib/libmchp_peripheral_32MX795F512L.a(nvm_program_lib.o)
 .pdr           0x0000000000000000       0x20 /Applications/microchip/mplabc32/v1.11a/bin/../lib/gcc/pic32mx/3.4.4/../../../../pic32mx/lib/libmchp_peripheral_32MX795F512L.a(nvm_program_lib.o)
 .text          0x0000000000000000        0x0 /Applications/microchip/mplabc32/v1.11a/bin/../lib/gcc/pic32mx/3.4.4/../../../../pic32mx/lib/libmchp_peripheral_32MX795F512L.a(nvm_write_row_lib.o)
 .data          0x0000000000000000        0x0 /Applications/microchip/mplabc32/v1.11a/bin/../lib/gcc/pic32mx/3.4.4/../../../../pic32mx/lib/libmchp_peripheral_32MX795F512L.a(nvm_write_row_lib.o)
 .bss           0x0000000000000000        0x0 /Applications/microchip/mplabc32/v1.11a/bin/../lib/gcc/pic32mx/3.4.4/../../../../pic32mx/lib/libmchp_peripheral_32MX795F512L.a(nvm_write_row_lib.o)
 .reginfo       0x0000000000000000       0x18 /Applications/microchip/mplabc32/v1.11a/bin/../lib/gcc/pic32mx/3.4.4/../../../../pic32mx/lib/libmchp_peripheral_32MX795F512L.a(nvm_write_row_lib.o)
 .pdr           0x0000000000000000       0x20 /Applications/microchip/mplabc32/v1.11a/bin/../lib/gcc/pic32mx/3.4.4/../../../../pic32mx/lib/libmchp_peripheral_32MX795F512L.a(nvm_write_row_lib.o)
 .text          0x0000000000000000        0x0 /Applications/microchip/mplabc32/v1.11a/bin/../lib/gcc/pic32mx/3.4.4/../../../../pic32mx/lib/libmchp_peripheral_32MX795F512L.a(nvm_erase_page_lib.o)
 .data          0x0000000000000000        0x0 /Applications/microchip/mplabc32/v1.11a/bin/../lib/gcc/pic32mx/3.4.4/../../../../pic32mx/lib/libmchp_peripheral_32MX795F512L.a(nvm_erase_page_lib.o)
 .bss           0x0000000000000000        0x0 /Applications/microchip/mplabc32/v1.11a/bin/../lib/gcc/pic32mx/3.4.4/../../../../pic32mx/lib/libmchp_peripheral_32MX795F512L.a(nvm_erase_page_lib.o)
 .reginfo       0x0000000000000000       0x18 /Applications/microchip/mplabc32/v1.11a/bin/../lib/gcc/pic32mx/3.4.4/../../../../pic32mx/lib/libmchp_peripheral_32MX795F512L.a(nvm_erase_page_lib.o)
 .pdr           0x0000000000000000       0x20 /Applications/microchip/mplabc32/v1.11a/bin/../lib/gcc/pic32mx/3.4.4/../../../../pic32mx/lib/libmchp_peripheral_32MX795F512L.a(nvm_erase_page_lib.o)
 .text          0x0000000000000000        0x0 /Applications/microchip/mplabc32/v1.11a/bin/../lib/gcc/pic32mx/3.4.4/../../../../pic32mx/lib/libmchp_peripheral_32MX795F512L.a(nvm_operation_lib.o)
 .data          0x0000000000000000        0x0 /Applications/microchip/mplabc32/v1.11a/bin/../lib/gcc/pic32mx/3.4.4/../../../../pic32mx/lib/libmchp_peripheral_32MX795F512L.a(nvm_operation_lib.o)
 .bss           0x0000000000000000        0x0 /Applications/microchip/mplabc32/v1.11a/bin/../lib/gcc/pic32mx/3.4.4/../../../../pic32mx/lib/libmchp_peripheral_32MX795F512L.a(nvm_operation_lib.o)
 .reginfo       0x0000000000000000       0x18 /Applications/microchip/mplabc32/v1.11a/bin/../lib/gcc/pic32mx/3.4.4/../../../../pic32mx/lib/libmchp_peripheral_32MX795F512L.a(nvm_operation_lib.o)
 .pdr           0x0000000000000000       0x20 /Applications/microchip/mplabc32/v1.11a/bin/../lib/gcc/pic32mx/3.4.4/../../../../pic32mx/lib/libmchp_peripheral_32MX795F512L.a(nvm_operation_lib.o)
 .data          0x0000000000000000        0x0 /Applications/microchip/mplabc32/v1.11a/bin/../lib/gcc/pic32mx/3.4.4/../../../../pic32mx/lib/libc.a(memcpy.o)
 .bss           0x0000000000000000        0x0 /Applications/microchip/mplabc32/v1.11a/bin/../lib/gcc/pic32mx/3.4.4/../../../../pic32mx/lib/libc.a(memcpy.o)
 .reginfo       0x0000000000000000       0x18 /Applications/microchip/mplabc32/v1.11a/bin/../lib/gcc/pic32mx/3.4.4/../../../../pic32mx/lib/libc.a(memcpy.o)
 .pdr           0x0000000000000000       0x20 /Applications/microchip/mplabc32/v1.11a/bin/../lib/gcc/pic32mx/3.4.4/../../../../pic32mx/lib/libc.a(memcpy.o)

Memory Configuration

Name             Origin             Length             Attributes
kseg0_program_mem 0x000000009d000000 0x0000000000000000 xr
//kseg0_boot_mem 0x000000009fc00490 0x0000000000000970 xr
//exception_mem  0x000000009fc01180 0x0000000000000090
//kseg0_boot_memB 0x000000009fc01210 0x0000000000000df0 xr
kseg0_boot_mem   0x000000009fc00490 0x0000000000001b70 xr
exception_mem    0x000000009fc00000 0x0000000000000000
kseg1_boot_mem   0x00000000bfc00000 0x0000000000000490
debug_exec_mem   0x00000000bfc02000 0x0000000000000ff0
config3          0x00000000bfc02ff0 0x0000000000000004
config2          0x00000000bfc02ff4 0x0000000000000004
config1          0x00000000bfc02ff8 0x0000000000000004
config0          0x00000000bfc02ffc 0x0000000000000004
boot_software_key 0x00000000a0000000 0x0000000000000004
kseg1_data_mem   0x00000000a0000004 0x0000000000007ffc w !x
sfrs             0x00000000bf800000 0x0000000000100000
*default*        0x0000000000000000 0xffffffffffffffff

Linker script and memory map

LOAD build/mega/production/startup.o
LOAD build/mega/production/pic32bootloader.o
                0x0000000000000001                __MPLAB_BUILD = 0x1
                0x0000000000000400                PROVIDE (_min_stack_size, 0x400)
                0x0000000000000000                PROVIDE (_min_heap_size, 0x0)
LOAD /Applications/microchip/mplabc32/v1.11a/bin/../lib/gcc/pic32mx/3.4.4/../../../../pic32mx/lib/./proc/32MX795F512L/processor.o
                0x0000000000000001                PROVIDE (_vector_spacing, 0x1)
                0x000000009fc01000                //_ebase_address = 0x9fc01000
                0x0000000000000000                _ebase_address = 0x0
                0x00000000bfc00000                //_general_exception_context = 0xbfc00000
                0x00000000bfc00000                //_on_bootstrap = 0xbfc00000
                0x00000000bfc00000                _RESET_ADDR = 0xbfc00000
                0x00000000bfc00380                _BEV_EXCPT_ADDR = 0xbfc00380
                0x00000000bfc00480                _DBG_EXCPT_ADDR = 0xbfc00480
                0x00000000bfc02000                _DBG_CODE_ADDR = 0xbfc02000
                0x0000000000000180                _GEN_EXCPT_ADDR = (_ebase_address + 0x180)

.boot_software_key_sec
 *(.boot_software_key_sec)

.config_BFC02FF0
                0x00000000bfc02ff0        0x4
 *(.config_BFC02FF0)
 .config_BFC02FF0
                0x00000000bfc02ff0        0x4 build/mega/production/pic32bootloader.o

.config_BFC02FF4
                0x00000000bfc02ff4        0x4
 *(.config_BFC02FF4)
 .config_BFC02FF4
                0x00000000bfc02ff4        0x4 build/mega/production/pic32bootloader.o

.config_BFC02FF8
                0x00000000bfc02ff8        0x4
 *(.config_BFC02FF8)
 .config_BFC02FF8
                0x00000000bfc02ff8        0x4 build/mega/production/pic32bootloader.o

.config_BFC02FFC
                0x00000000bfc02ffc        0x4
 *(.config_BFC02FFC)
 .config_BFC02FFC
                0x00000000bfc02ffc        0x4 build/mega/production/pic32bootloader.o

.reset          0x00000000bfc00000       0x10
 *(.reset)
 .reset         0x00000000bfc00000       0x10 build/mega/production/startup.o
                0x00000000bfc00000                _reset

.dbg_excpt      0x00000000bfc00480        0x0
                0x00000000bfc00480                . = (. + DEFINED (_DEBUGGER)?0x8:0x0)

.dbg_code       0x00000000bfc02000        0x0
                0x00000000bfc02000                . = (. + DEFINED (_DEBUGGER)?0xff0:0x0)

/DISCARD/
 *(.gen_handler)
 *(.vector_0)
 *(.pdr)
 *(.reginfo)
 *(.rel.dyn)
 *(.note.GNU-stack)

.startup        0x000000009fc00490       0xbc
 *(.startup)
 .startup       0x000000009fc00490       0xbc build/mega/production/startup.o

.text           0x000000009fc0054c     0x189c
                0x000000009fc0054c                _text_begin = .
 *(.text .stub .text.* .gnu.linkonce.t.*)
 .text          0x000000009fc0054c       0x10 build/mega/production/startup.o
                0x000000009fc00554                __crt0_exit
 .text.Serial_print
                0x000000009fc0055c       0x40 build/mega/production/pic32bootloader.o
 .text.Serial_println
                0x000000009fc0059c       0x40 build/mega/production/pic32bootloader.o
 .text.JumpToApp
                0x000000009fc005dc       0x34 build/mega/production/pic32bootloader.o
 .text.Serial_read_timeout
                0x000000009fc00610       0xa0 build/mega/production/pic32bootloader.o
 .text.delay_microSeconds
                0x000000009fc006b0       0x50 build/mega/production/pic32bootloader.o
 .text.InitFlashBuffer
                0x000000009fc00700       0x2c build/mega/production/pic32bootloader.o
 .text.boot_page_write
                0x000000009fc0072c       0x34 build/mega/production/pic32bootloader.o
 .text.boot_page_fill
                0x000000009fc00760       0x34 build/mega/production/pic32bootloader.o
 .text.pgm_read_word_far
                0x000000009fc00794       0x1c build/mega/production/pic32bootloader.o
 .text.main     0x000000009fc007b0      0x92c build/mega/production/pic32bootloader.o
                0x000000009fc007b0                main
 .text.PrintFromPROGMEM
                0x000000009fc010dc       0x48 build/mega/production/pic32bootloader.o
 .text.PrintFromPROGMEMln
                0x000000009fc01124       0x24 build/mega/production/pic32bootloader.o
 .text.PrintHexByte
                0x000000009fc01148       0x84 build/mega/production/pic32bootloader.o
 .text.PrintHexLong
                0x000000009fc011cc       0x40 build/mega/production/pic32bootloader.o
 .text.PrintCPUstats
                0x000000009fc0120c       0xa8 build/mega/production/pic32bootloader.o
 .text.BlinkLED
                0x000000009fc012b4       0x80 build/mega/production/pic32bootloader.o
 .text.DumpHex  0x000000009fc01334      0x204 build/mega/production/pic32bootloader.o
 .text.PrintAvailablePort
                0x000000009fc01538       0x78 build/mega/production/pic32bootloader.o
 .text.ListAvailablePorts
                0x000000009fc015b0       0xa0 build/mega/production/pic32bootloader.o
 .text.PrintHelp
                0x000000009fc01650       0x94 build/mega/production/pic32bootloader.o
 .text.RunMonitor
                0x000000009fc016e4      0x2c4 build/mega/production/pic32bootloader.o
 .text.OpenCoreTimer
                0x000000009fc019a8        0xc /Applications/microchip/mplabc32/v1.11a/bin/../lib/gcc/pic32mx/3.4.4/../../../../pic32mx/lib/libmchp_peripheral.a(open_core_timer_lib.o)
                0x000000009fc019a8                OpenCoreTimer
 .text.CheKseg0CacheOn
                0x000000009fc019b4       0x18 /Applications/microchip/mplabc32/v1.11a/bin/../lib/gcc/pic32mx/3.4.4/../../../../pic32mx/lib/libmchp_peripheral_32MX795F512L.a(pcache.o)
                0x000000009fc019b4                CheKseg0CacheOn
 .text.INTDisableInterrupts
                0x000000009fc019cc        0x8 /Applications/microchip/mplabc32/v1.11a/bin/../lib/gcc/pic32mx/3.4.4/../../../../pic32mx/lib/libmchp_peripheral_32MX795F512L.a(int_disable_interrupts_lib.o)
                0x000000009fc019cc                INTDisableInterrupts
 .text.INTRestoreInterrupts
                0x000000009fc019d4       0x1c /Applications/microchip/mplabc32/v1.11a/bin/../lib/gcc/pic32mx/3.4.4/../../../../pic32mx/lib/libmchp_peripheral_32MX795F512L.a(int_restore_interrupts_lib.o)
                0x000000009fc019d4                INTRestoreInterrupts
 .text.NVMProgram
                0x000000009fc019f0      0x12c /Applications/microchip/mplabc32/v1.11a/bin/../lib/gcc/pic32mx/3.4.4/../../../../pic32mx/lib/libmchp_peripheral_32MX795F512L.a(nvm_program_lib.o)
                0x000000009fc019f0                NVMProgram
 .text.NVMWriteRow
                0x000000009fc01b1c       0x40 /Applications/microchip/mplabc32/v1.11a/bin/../lib/gcc/pic32mx/3.4.4/../../../../pic32mx/lib/libmchp_peripheral_32MX795F512L.a(nvm_write_row_lib.o)
                0x000000009fc01b1c                NVMWriteRow
 .text.NVMErasePage
                0x000000009fc01b5c       0x34 /Applications/microchip/mplabc32/v1.11a/bin/../lib/gcc/pic32mx/3.4.4/../../../../pic32mx/lib/libmchp_peripheral_32MX795F512L.a(nvm_erase_page_lib.o)
                0x000000009fc01b5c                NVMErasePage
 .text._NVMOperation
                0x000000009fc01b90       0xf0 /Applications/microchip/mplabc32/v1.11a/bin/../lib/gcc/pic32mx/3.4.4/../../../../pic32mx/lib/libmchp_peripheral_32MX795F512L.a(nvm_operation_lib.o)
                0x000000009fc01b90                _NVMOperation
 .text          0x000000009fc01c80      0x168 /Applications/microchip/mplabc32/v1.11a/bin/../lib/gcc/pic32mx/3.4.4/../../../../pic32mx/lib/libc.a(memcpy.o)
                0x000000009fc01c80                memcpy
 *(.text.*personality*)
 *(.gnu.warning)
 *(.mips16.fn.*)
 *(.mips16.call.*)
                0x000000009fc01de8                _text_end = .

.rodata         0x000000009fc01de8      0x204
 *(.rodata .rodata.* .gnu.linkonce.r.*)
 .rodata.str1.4
                0x000000009fc01de8       0x24 build/mega/production/pic32bootloader.o
 .rodata        0x000000009fc01e0c       0x90 build/mega/production/pic32bootloader.o
 .rodata.gTextMsg_CPU_Name
                0x000000009fc01e9c       0x10 build/mega/production/pic32bootloader.o
                0x000000009fc01e9c                gTextMsg_CPU_Name
 .rodata.gTextMsg_Explorer
                0x000000009fc01eac       0x1c build/mega/production/pic32bootloader.o
                0x000000009fc01eac                gTextMsg_Explorer
 .rodata.gTextMsg_Prompt
                0x000000009fc01ec8        0xc build/mega/production/pic32bootloader.o
                0x000000009fc01ec8                gTextMsg_Prompt
 .rodata.gTextMsg_HUH
                0x000000009fc01ed4        0x8 build/mega/production/pic32bootloader.o
                0x000000009fc01ed4                gTextMsg_HUH
 .rodata.gTextMsg_COMPILED_ON
                0x000000009fc01edc       0x10 build/mega/production/pic32bootloader.o
                0x000000009fc01edc                gTextMsg_COMPILED_ON
 .rodata.gTextMsg_GCC_DATE_STR
                0x000000009fc01eec        0xc build/mega/production/pic32bootloader.o
                0x000000009fc01eec                gTextMsg_GCC_DATE_STR
 .rodata.gTextMsg_CPU_Type
                0x000000009fc01ef8       0x10 build/mega/production/pic32bootloader.o
                0x000000009fc01ef8                gTextMsg_CPU_Type
 .rodata.gTextMsg_DEVID
                0x000000009fc01f08       0x10 build/mega/production/pic32bootloader.o
                0x000000009fc01f08                gTextMsg_DEVID
 .rodata.gTextMsg_GCC_VERSION
                0x000000009fc01f18       0x10 build/mega/production/pic32bootloader.o
                0x000000009fc01f18                gTextMsg_GCC_VERSION
 .rodata.gTextMsg_GCC_VERSION_STR
                0x000000009fc01f28       0x44 build/mega/production/pic32bootloader.o
                0x000000009fc01f28                gTextMsg_GCC_VERSION_STR
 .rodata.gTextMsg_HELP_MSG_0
                0x000000009fc01f6c       0x14 build/mega/production/pic32bootloader.o
                0x000000009fc01f6c                gTextMsg_HELP_MSG_0
 .rodata.gTextMsg_HELP_MSG_QM
                0x000000009fc01f80        0xc build/mega/production/pic32bootloader.o
                0x000000009fc01f80                gTextMsg_HELP_MSG_QM
 .rodata.gTextMsg_HELP_MSG_B
                0x000000009fc01f8c        0xc build/mega/production/pic32bootloader.o
                0x000000009fc01f8c                gTextMsg_HELP_MSG_B
 .rodata.gTextMsg_HELP_MSG_F
                0x000000009fc01f98       0x10 build/mega/production/pic32bootloader.o
                0x000000009fc01f98                gTextMsg_HELP_MSG_F
 .rodata.gTextMsg_HELP_MSG_H
                0x000000009fc01fa8        0x8 build/mega/production/pic32bootloader.o
                0x000000009fc01fa8                gTextMsg_HELP_MSG_H
 .rodata.gTextMsg_HELP_MSG_L
                0x000000009fc01fb0       0x14 build/mega/production/pic32bootloader.o
                0x000000009fc01fb0                gTextMsg_HELP_MSG_L
 .rodata.gTextMsg_HELP_MSG_Q
                0x000000009fc01fc4       0x1c build/mega/production/pic32bootloader.o
                0x000000009fc01fc4                gTextMsg_HELP_MSG_Q
 .rodata.gTextMsg_HELP_MSG_R
                0x000000009fc01fe0        0xc build/mega/production/pic32bootloader.o
                0x000000009fc01fe0                gTextMsg_HELP_MSG_R
 *(.rodata1)
                0x000000009fc01fec                . = ALIGN (0x4)

.sdata2         0x000000009fc01fec        0x0
 *(.sdata2 .sdata2.* .gnu.linkonce.s2.*)
                0x000000009fc01fec                . = ALIGN (0x4)

.sbss2          0x000000009fc01fec        0x0
 *(.sbss2 .sbss2.* .gnu.linkonce.sb2.*)
                0x000000009fc01fec                . = ALIGN (0x4)

.eh_frame_hdr
 *(.eh_frame_hdr)

.eh_frame
 *(.eh_frame)

.dbg_data       0x00000000a0000004        0x0
                0x00000000a0000004                . = (. + DEFINED (_DEBUGGER)?0x200:0x0)

.data           0x00000000a0000004        0x0 load address 0x000000009fc01fec
                0x00000000a0000004                _data_begin = .
 *(.data .data.* .gnu.linkonce.d.*)
 *(.gnu.linkonce.d.*personality*)
 *(.data1)
                0x000000009fc01fec                _data_image_begin = LOADADDR (.data)

.eh_frame
 *(.eh_frame)
                0x00000000a0000004                . = .
                0x00000000a0008000                _gp = (ALIGN (0x10) + 0x7ff0)

.got
 *(.got.plt)
 *(.got)

.sdata          0x00000000a0000004        0x0 load address 0x000000009fc01fec
                0x00000000a0000004                _sdata_begin = .
 *(.sdata .sdata.* .gnu.linkonce.s.*)
                0x00000000a0000004                _sdata_end = .

.lit8
 *(.lit8)

.lit4
 *(.lit4)
                0x00000000a0000004                . = ALIGN (0x4)
                0x00000000a0000004                _data_end = .
                0x00000000a0000004                _bss_begin = .

.sbss           0x00000000a0000004       0x1c load address 0x000000009fc01fec
                0x00000000a0000004                _sbss_begin = .
 *(.dynsbss)
 *(.sbss .sbss.* .gnu.linkonce.sb.*)
 .sbss.gFlashPtr
                0x00000000a0000004        0x4 build/mega/production/pic32bootloader.o
                0x00000000a0000004                gFlashPtr
 .sbss.gEBASEptr
                0x00000000a0000008        0x4 build/mega/production/pic32bootloader.o
                0x00000000a0000008                gEBASEptr
 .sbss.__PIC32_pbClk
                0x00000000a000000c        0x4 build/mega/production/pic32bootloader.o
                0x00000000a000000c                __PIC32_pbClk
 .sbss.gRamPtr  0x00000000a0000010        0x4 build/mega/production/pic32bootloader.o
                0x00000000a0000010                gRamPtr
 .sbss.gRamIndex
                0x00000000a0000014        0x4 build/mega/production/pic32bootloader.o
                0x00000000a0000014                gRamIndex
 .sbss.gFlashIndex
                0x00000000a0000018        0x4 build/mega/production/pic32bootloader.o
                0x00000000a0000018                gFlashIndex
 .sbss.gEepromIndex
                0x00000000a000001c        0x4 build/mega/production/pic32bootloader.o
                0x00000000a000001c                gEepromIndex
 *(.scommon)
                0x00000000a0000020                _sbss_end = .

.bss            0x00000000a0000020      0x600 load address 0x000000009fc01fec
 *(.dynbss)
 *(.bss .bss.* .gnu.linkonce.b.*)
 .bss.gFlashDataBuffer
                0x00000000a0000020      0x200 build/mega/production/pic32bootloader.o
                0x00000000a0000020                gFlashDataBuffer
 .bss.gPageBuffer
                0x00000000a0000220      0x400 build/mega/production/pic32bootloader.o
                0x00000000a0000220                gPageBuffer
 *(COMMON)
                0x00000000a0000620                . = ALIGN (0x4)
                0x00000000a0000620                . = ALIGN (0x4)
                0x00000000a0000620                _end = .
                0x00000000a0000620                _bss_end = .

.heap           0x00000000a0000620        0x0 load address 0x000000009fc01fec
                0x00000000a0000620                _heap = .
                0x00000000a0000620                . = (. + _min_heap_size)
                0x00000000a0000620                . = ALIGN (0x8)

.stack          0x00000000a0000620      0x400 load address 0x000000009fc01fec
                0x00000000a0000620                _splim = .
                0x00000000a0000620                _SPLIM = .
                0x00000000a0000a20                . = (. + _min_stack_size)
 *fill*         0x00000000a0000620      0x400 00
                0x00000000a0000a20                . = ALIGN (0x8)

.ramfunc        0x00000000a0001000        0x0 load address 0x000000009fc01fec
                0x00000000a0001000                _ramfunc_begin = .
 *(.ramfunc .ramfunc.*)
                0x00000000a0001000                . = ALIGN (0x4)
                0x00000000a0001000                _ramfunc_end = .
                0x000000009fc01fec                _ramfunc_image_begin = LOADADDR (.ramfunc)
                0x0000000000000000                _ramfunc_length = SIZEOF (.ramfunc)
                0x0000000000000ffc                _bmxdkpba_address = (_ramfunc_begin - 0xa0000004)
                0x0000000000007ffc                _bmxdudba_address = 0x7ffc
                0x0000000000007ffc                _bmxdupba_address = 0x7ffc
                0x00000000a0008000                _stack = (_ramfunc_length > 0x0)?(_ramfunc_begin - 0x8):0xa0008000
                0x0000000000000001                ASSERT (((_min_stack_size + _min_heap_size) <= (_stack - _heap)), Not enough space to allocate both stack and heap.  Reduce heap and/or stack size.)

.stab
 *(.stab)

.stabstr
 *(.stabstr)

.stab.excl
 *(.stab.excl)

.stab.exclstr
 *(.stab.exclstr)

.stab.index
 *(.stab.index)

.stab.indexstr
 *(.stab.indexstr)

.mdebug.abi32   0x0000000000000000        0x0
 .mdebug.abi32  0x0000000000000000        0x0 build/mega/production/pic32bootloader.o
 .mdebug.abi32  0x0000000000000000        0x0 /Applications/microchip/mplabc32/v1.11a/bin/../lib/gcc/pic32mx/3.4.4/../../../../pic32mx/lib/libmchp_peripheral.a(open_core_timer_lib.o)
 .mdebug.abi32  0x0000000000000000        0x0 /Applications/microchip/mplabc32/v1.11a/bin/../lib/gcc/pic32mx/3.4.4/../../../../pic32mx/lib/libmchp_peripheral_32MX795F512L.a(pcache.o)
 .mdebug.abi32  0x0000000000000000        0x0 /Applications/microchip/mplabc32/v1.11a/bin/../lib/gcc/pic32mx/3.4.4/../../../../pic32mx/lib/libmchp_peripheral_32MX795F512L.a(int_disable_interrupts_lib.o)
 .mdebug.abi32  0x0000000000000000        0x0 /Applications/microchip/mplabc32/v1.11a/bin/../lib/gcc/pic32mx/3.4.4/../../../../pic32mx/lib/libmchp_peripheral_32MX795F512L.a(int_restore_interrupts_lib.o)
 .mdebug.abi32  0x0000000000000000        0x0 /Applications/microchip/mplabc32/v1.11a/bin/../lib/gcc/pic32mx/3.4.4/../../../../pic32mx/lib/libmchp_peripheral_32MX795F512L.a(nvm_program_lib.o)
 .mdebug.abi32  0x0000000000000000        0x0 /Applications/microchip/mplabc32/v1.11a/bin/../lib/gcc/pic32mx/3.4.4/../../../../pic32mx/lib/libmchp_peripheral_32MX795F512L.a(nvm_write_row_lib.o)
 .mdebug.abi32  0x0000000000000000        0x0 /Applications/microchip/mplabc32/v1.11a/bin/../lib/gcc/pic32mx/3.4.4/../../../../pic32mx/lib/libmchp_peripheral_32MX795F512L.a(nvm_erase_page_lib.o)
 .mdebug.abi32  0x0000000000000000        0x0 /Applications/microchip/mplabc32/v1.11a/bin/../lib/gcc/pic32mx/3.4.4/../../../../pic32mx/lib/libmchp_peripheral_32MX795F512L.a(nvm_operation_lib.o)

.comment        0x0000000000000000      0x2d0
 *(.comment)
 .comment       0x0000000000000000       0x50 build/mega/production/pic32bootloader.o
 .comment       0x0000000000000050       0x50 /Applications/microchip/mplabc32/v1.11a/bin/../lib/gcc/pic32mx/3.4.4/../../../../pic32mx/lib/libmchp_peripheral.a(open_core_timer_lib.o)
 .comment       0x00000000000000a0       0x50 /Applications/microchip/mplabc32/v1.11a/bin/../lib/gcc/pic32mx/3.4.4/../../../../pic32mx/lib/libmchp_peripheral_32MX795F512L.a(pcache.o)
 .comment       0x00000000000000f0       0x50 /Applications/microchip/mplabc32/v1.11a/bin/../lib/gcc/pic32mx/3.4.4/../../../../pic32mx/lib/libmchp_peripheral_32MX795F512L.a(int_disable_interrupts_lib.o)
 .comment       0x0000000000000140       0x50 /Applications/microchip/mplabc32/v1.11a/bin/../lib/gcc/pic32mx/3.4.4/../../../../pic32mx/lib/libmchp_peripheral_32MX795F512L.a(int_restore_interrupts_lib.o)
 .comment       0x0000000000000190       0x50 /Applications/microchip/mplabc32/v1.11a/bin/../lib/gcc/pic32mx/3.4.4/../../../../pic32mx/lib/libmchp_peripheral_32MX795F512L.a(nvm_program_lib.o)
 .comment       0x00000000000001e0       0x50 /Applications/microchip/mplabc32/v1.11a/bin/../lib/gcc/pic32mx/3.4.4/../../../../pic32mx/lib/libmchp_peripheral_32MX795F512L.a(nvm_write_row_lib.o)
 .comment       0x0000000000000230       0x50 /Applications/microchip/mplabc32/v1.11a/bin/../lib/gcc/pic32mx/3.4.4/../../../../pic32mx/lib/libmchp_peripheral_32MX795F512L.a(nvm_erase_page_lib.o)
 .comment       0x0000000000000280       0x50 /Applications/microchip/mplabc32/v1.11a/bin/../lib/gcc/pic32mx/3.4.4/../../../../pic32mx/lib/libmchp_peripheral_32MX795F512L.a(nvm_operation_lib.o)

.debug
 *(.debug)

.line
 *(.line)

.debug_srcinfo
 *(.debug_srcinfo)

.debug_sfnames
 *(.debug_sfnames)

.debug_aranges  0x0000000000000000      0x148
 *(.debug_aranges)
 .debug_aranges
                0x0000000000000000       0x28 /Applications/microchip/mplabc32/v1.11a/bin/../lib/gcc/pic32mx/3.4.4/../../../../pic32mx/lib/libmchp_peripheral.a(open_core_timer_lib.o)
 .debug_aranges
                0x0000000000000028       0x30 /Applications/microchip/mplabc32/v1.11a/bin/../lib/gcc/pic32mx/3.4.4/../../../../pic32mx/lib/libmchp_peripheral_32MX795F512L.a(pcache.o)
 .debug_aranges
                0x0000000000000058       0x28 /Applications/microchip/mplabc32/v1.11a/bin/../lib/gcc/pic32mx/3.4.4/../../../../pic32mx/lib/libmchp_peripheral_32MX795F512L.a(int_disable_interrupts_lib.o)
 .debug_aranges
                0x0000000000000080       0x28 /Applications/microchip/mplabc32/v1.11a/bin/../lib/gcc/pic32mx/3.4.4/../../../../pic32mx/lib/libmchp_peripheral_32MX795F512L.a(int_restore_interrupts_lib.o)
 .debug_aranges
                0x00000000000000a8       0x28 /Applications/microchip/mplabc32/v1.11a/bin/../lib/gcc/pic32mx/3.4.4/../../../../pic32mx/lib/libmchp_peripheral_32MX795F512L.a(nvm_program_lib.o)
 .debug_aranges
                0x00000000000000d0       0x28 /Applications/microchip/mplabc32/v1.11a/bin/../lib/gcc/pic32mx/3.4.4/../../../../pic32mx/lib/libmchp_peripheral_32MX795F512L.a(nvm_write_row_lib.o)
 .debug_aranges
                0x00000000000000f8       0x28 /Applications/microchip/mplabc32/v1.11a/bin/../lib/gcc/pic32mx/3.4.4/../../../../pic32mx/lib/libmchp_peripheral_32MX795F512L.a(nvm_erase_page_lib.o)
 .debug_aranges
                0x0000000000000120       0x28 /Applications/microchip/mplabc32/v1.11a/bin/../lib/gcc/pic32mx/3.4.4/../../../../pic32mx/lib/libmchp_peripheral_32MX795F512L.a(nvm_operation_lib.o)

.debug_pubnames
                0x0000000000000000      0x13f
 *(.debug_pubnames)
 .debug_pubnames
                0x0000000000000000       0x24 /Applications/microchip/mplabc32/v1.11a/bin/../lib/gcc/pic32mx/3.4.4/../../../../pic32mx/lib/libmchp_peripheral.a(open_core_timer_lib.o)
 .debug_pubnames
                0x0000000000000024       0x3b /Applications/microchip/mplabc32/v1.11a/bin/../lib/gcc/pic32mx/3.4.4/../../../../pic32mx/lib/libmchp_peripheral_32MX795F512L.a(pcache.o)
 .debug_pubnames
                0x000000000000005f       0x2b /Applications/microchip/mplabc32/v1.11a/bin/../lib/gcc/pic32mx/3.4.4/../../../../pic32mx/lib/libmchp_peripheral_32MX795F512L.a(int_disable_interrupts_lib.o)
 .debug_pubnames
                0x000000000000008a       0x2b /Applications/microchip/mplabc32/v1.11a/bin/../lib/gcc/pic32mx/3.4.4/../../../../pic32mx/lib/libmchp_peripheral_32MX795F512L.a(int_restore_interrupts_lib.o)
 .debug_pubnames
                0x00000000000000b5       0x21 /Applications/microchip/mplabc32/v1.11a/bin/../lib/gcc/pic32mx/3.4.4/../../../../pic32mx/lib/libmchp_peripheral_32MX795F512L.a(nvm_program_lib.o)
 .debug_pubnames
                0x00000000000000d6       0x22 /Applications/microchip/mplabc32/v1.11a/bin/../lib/gcc/pic32mx/3.4.4/../../../../pic32mx/lib/libmchp_peripheral_32MX795F512L.a(nvm_write_row_lib.o)
 .debug_pubnames
                0x00000000000000f8       0x23 /Applications/microchip/mplabc32/v1.11a/bin/../lib/gcc/pic32mx/3.4.4/../../../../pic32mx/lib/libmchp_peripheral_32MX795F512L.a(nvm_erase_page_lib.o)
 .debug_pubnames
                0x000000000000011b       0x24 /Applications/microchip/mplabc32/v1.11a/bin/../lib/gcc/pic32mx/3.4.4/../../../../pic32mx/lib/libmchp_peripheral_32MX795F512L.a(nvm_operation_lib.o)

.debug_info     0x0000000000000000      0x192
 *(.debug_info .gnu.linkonce.wi.*)
 .debug_info    0x0000000000000000       0x30 /Applications/microchip/mplabc32/v1.11a/bin/../lib/gcc/pic32mx/3.4.4/../../../../pic32mx/lib/libmchp_peripheral.a(open_core_timer_lib.o)
 .debug_info    0x0000000000000030       0x42 /Applications/microchip/mplabc32/v1.11a/bin/../lib/gcc/pic32mx/3.4.4/../../../../pic32mx/lib/libmchp_peripheral_32MX795F512L.a(pcache.o)
 .debug_info    0x0000000000000072       0x30 /Applications/microchip/mplabc32/v1.11a/bin/../lib/gcc/pic32mx/3.4.4/../../../../pic32mx/lib/libmchp_peripheral_32MX795F512L.a(int_disable_interrupts_lib.o)
 .debug_info    0x00000000000000a2       0x30 /Applications/microchip/mplabc32/v1.11a/bin/../lib/gcc/pic32mx/3.4.4/../../../../pic32mx/lib/libmchp_peripheral_32MX795F512L.a(int_restore_interrupts_lib.o)
 .debug_info    0x00000000000000d2       0x30 /Applications/microchip/mplabc32/v1.11a/bin/../lib/gcc/pic32mx/3.4.4/../../../../pic32mx/lib/libmchp_peripheral_32MX795F512L.a(nvm_program_lib.o)
 .debug_info    0x0000000000000102       0x30 /Applications/microchip/mplabc32/v1.11a/bin/../lib/gcc/pic32mx/3.4.4/../../../../pic32mx/lib/libmchp_peripheral_32MX795F512L.a(nvm_write_row_lib.o)
 .debug_info    0x0000000000000132       0x30 /Applications/microchip/mplabc32/v1.11a/bin/../lib/gcc/pic32mx/3.4.4/../../../../pic32mx/lib/libmchp_peripheral_32MX795F512L.a(nvm_erase_page_lib.o)
 .debug_info    0x0000000000000162       0x30 /Applications/microchip/mplabc32/v1.11a/bin/../lib/gcc/pic32mx/3.4.4/../../../../pic32mx/lib/libmchp_peripheral_32MX795F512L.a(nvm_operation_lib.o)

.debug_abbrev   0x0000000000000000      0x118
 *(.debug_abbrev)
 .debug_abbrev  0x0000000000000000       0x23 /Applications/microchip/mplabc32/v1.11a/bin/../lib/gcc/pic32mx/3.4.4/../../../../pic32mx/lib/libmchp_peripheral.a(open_core_timer_lib.o)
 .debug_abbrev  0x0000000000000023       0x23 /Applications/microchip/mplabc32/v1.11a/bin/../lib/gcc/pic32mx/3.4.4/../../../../pic32mx/lib/libmchp_peripheral_32MX795F512L.a(pcache.o)
 .debug_abbrev  0x0000000000000046       0x23 /Applications/microchip/mplabc32/v1.11a/bin/../lib/gcc/pic32mx/3.4.4/../../../../pic32mx/lib/libmchp_peripheral_32MX795F512L.a(int_disable_interrupts_lib.o)
 .debug_abbrev  0x0000000000000069       0x23 /Applications/microchip/mplabc32/v1.11a/bin/../lib/gcc/pic32mx/3.4.4/../../../../pic32mx/lib/libmchp_peripheral_32MX795F512L.a(int_restore_interrupts_lib.o)
 .debug_abbrev  0x000000000000008c       0x23 /Applications/microchip/mplabc32/v1.11a/bin/../lib/gcc/pic32mx/3.4.4/../../../../pic32mx/lib/libmchp_peripheral_32MX795F512L.a(nvm_program_lib.o)
 .debug_abbrev  0x00000000000000af       0x23 /Applications/microchip/mplabc32/v1.11a/bin/../lib/gcc/pic32mx/3.4.4/../../../../pic32mx/lib/libmchp_peripheral_32MX795F512L.a(nvm_write_row_lib.o)
 .debug_abbrev  0x00000000000000d2       0x23 /Applications/microchip/mplabc32/v1.11a/bin/../lib/gcc/pic32mx/3.4.4/../../../../pic32mx/lib/libmchp_peripheral_32MX795F512L.a(nvm_erase_page_lib.o)
 .debug_abbrev  0x00000000000000f5       0x23 /Applications/microchip/mplabc32/v1.11a/bin/../lib/gcc/pic32mx/3.4.4/../../../../pic32mx/lib/libmchp_peripheral_32MX795F512L.a(nvm_operation_lib.o)

.debug_line     0x0000000000000000      0x4c5
 *(.debug_line)
 .debug_line    0x0000000000000000       0x9b /Applications/microchip/mplabc32/v1.11a/bin/../lib/gcc/pic32mx/3.4.4/../../../../pic32mx/lib/libmchp_peripheral.a(open_core_timer_lib.o)
 .debug_line    0x000000000000009b       0x8f /Applications/microchip/mplabc32/v1.11a/bin/../lib/gcc/pic32mx/3.4.4/../../../../pic32mx/lib/libmchp_peripheral_32MX795F512L.a(pcache.o)
 .debug_line    0x000000000000012a       0xa0 /Applications/microchip/mplabc32/v1.11a/bin/../lib/gcc/pic32mx/3.4.4/../../../../pic32mx/lib/libmchp_peripheral_32MX795F512L.a(int_disable_interrupts_lib.o)
 .debug_line    0x00000000000001ca       0xa0 /Applications/microchip/mplabc32/v1.11a/bin/../lib/gcc/pic32mx/3.4.4/../../../../pic32mx/lib/libmchp_peripheral_32MX795F512L.a(int_restore_interrupts_lib.o)
 .debug_line    0x000000000000026a       0x95 /Applications/microchip/mplabc32/v1.11a/bin/../lib/gcc/pic32mx/3.4.4/../../../../pic32mx/lib/libmchp_peripheral_32MX795F512L.a(nvm_program_lib.o)
 .debug_line    0x00000000000002ff       0x97 /Applications/microchip/mplabc32/v1.11a/bin/../lib/gcc/pic32mx/3.4.4/../../../../pic32mx/lib/libmchp_peripheral_32MX795F512L.a(nvm_write_row_lib.o)
 .debug_line    0x0000000000000396       0x98 /Applications/microchip/mplabc32/v1.11a/bin/../lib/gcc/pic32mx/3.4.4/../../../../pic32mx/lib/libmchp_peripheral_32MX795F512L.a(nvm_erase_page_lib.o)
 .debug_line    0x000000000000042e       0x97 /Applications/microchip/mplabc32/v1.11a/bin/../lib/gcc/pic32mx/3.4.4/../../../../pic32mx/lib/libmchp_peripheral_32MX795F512L.a(nvm_operation_lib.o)

.debug_frame    0x0000000000000000      0x148
 *(.debug_frame)
 .debug_frame   0x0000000000000000       0x20 /Applications/microchip/mplabc32/v1.11a/bin/../lib/gcc/pic32mx/3.4.4/../../../../pic32mx/lib/libmchp_peripheral.a(open_core_timer_lib.o)
 .debug_frame   0x0000000000000020       0x30 /Applications/microchip/mplabc32/v1.11a/bin/../lib/gcc/pic32mx/3.4.4/../../../../pic32mx/lib/libmchp_peripheral_32MX795F512L.a(pcache.o)
 .debug_frame   0x0000000000000050       0x20 /Applications/microchip/mplabc32/v1.11a/bin/../lib/gcc/pic32mx/3.4.4/../../../../pic32mx/lib/libmchp_peripheral_32MX795F512L.a(int_disable_interrupts_lib.o)
 .debug_frame   0x0000000000000070       0x20 /Applications/microchip/mplabc32/v1.11a/bin/../lib/gcc/pic32mx/3.4.4/../../../../pic32mx/lib/libmchp_peripheral_32MX795F512L.a(int_restore_interrupts_lib.o)
 .debug_frame   0x0000000000000090       0x3c /Applications/microchip/mplabc32/v1.11a/bin/../lib/gcc/pic32mx/3.4.4/../../../../pic32mx/lib/libmchp_peripheral_32MX795F512L.a(nvm_program_lib.o)
 .debug_frame   0x00000000000000cc       0x28 /Applications/microchip/mplabc32/v1.11a/bin/../lib/gcc/pic32mx/3.4.4/../../../../pic32mx/lib/libmchp_peripheral_32MX795F512L.a(nvm_write_row_lib.o)
 .debug_frame   0x00000000000000f4       0x28 /Applications/microchip/mplabc32/v1.11a/bin/../lib/gcc/pic32mx/3.4.4/../../../../pic32mx/lib/libmchp_peripheral_32MX795F512L.a(nvm_erase_page_lib.o)
 .debug_frame   0x000000000000011c       0x2c /Applications/microchip/mplabc32/v1.11a/bin/../lib/gcc/pic32mx/3.4.4/../../../../pic32mx/lib/libmchp_peripheral_32MX795F512L.a(nvm_operation_lib.o)

.debug_str      0x0000000000000000      0x49a
 *(.debug_str)
 .debug_str     0x0000000000000000       0xd3 /Applications/microchip/mplabc32/v1.11a/bin/../lib/gcc/pic32mx/3.4.4/../../../../pic32mx/lib/libmchp_peripheral.a(open_core_timer_lib.o)
 .debug_str     0x00000000000000d3       0x90 /Applications/microchip/mplabc32/v1.11a/bin/../lib/gcc/pic32mx/3.4.4/../../../../pic32mx/lib/libmchp_peripheral_32MX795F512L.a(pcache.o)
                                         0xda (size before relaxing)
 .debug_str     0x0000000000000163       0x95 /Applications/microchip/mplabc32/v1.11a/bin/../lib/gcc/pic32mx/3.4.4/../../../../pic32mx/lib/libmchp_peripheral_32MX795F512L.a(int_disable_interrupts_lib.o)
                                         0xdf (size before relaxing)
 .debug_str     0x00000000000001f8       0x95 /Applications/microchip/mplabc32/v1.11a/bin/../lib/gcc/pic32mx/3.4.4/../../../../pic32mx/lib/libmchp_peripheral_32MX795F512L.a(int_restore_interrupts_lib.o)
                                         0xdf (size before relaxing)
 .debug_str     0x000000000000028d       0x80 /Applications/microchip/mplabc32/v1.11a/bin/../lib/gcc/pic32mx/3.4.4/../../../../pic32mx/lib/libmchp_peripheral_32MX795F512L.a(nvm_program_lib.o)
                                         0xca (size before relaxing)
 .debug_str     0x000000000000030d       0x83 /Applications/microchip/mplabc32/v1.11a/bin/../lib/gcc/pic32mx/3.4.4/../../../../pic32mx/lib/libmchp_peripheral_32MX795F512L.a(nvm_write_row_lib.o)
                                         0xcd (size before relaxing)
 .debug_str     0x0000000000000390       0x85 /Applications/microchip/mplabc32/v1.11a/bin/../lib/gcc/pic32mx/3.4.4/../../../../pic32mx/lib/libmchp_peripheral_32MX795F512L.a(nvm_erase_page_lib.o)
                                         0xcf (size before relaxing)
 .debug_str     0x0000000000000415       0x85 /Applications/microchip/mplabc32/v1.11a/bin/../lib/gcc/pic32mx/3.4.4/../../../../pic32mx/lib/libmchp_peripheral_32MX795F512L.a(nvm_operation_lib.o)
                                         0xcf (size before relaxing)

.debug_loc
 *(.debug_loc)

.debug_macinfo
 *(.debug_macinfo)

.debug_weaknames
 *(.debug_weaknames)

.debug_funcnames
 *(.debug_funcnames)

.debug_typenames
 *(.debug_typenames)

.debug_varnames
 *(.debug_varnames)
LOAD /Applications/microchip/mplabc32/v1.11a/bin/../lib/gcc/pic32mx/3.4.4/libgcc.a
START GROUP
LOAD /Applications/microchip/mplabc32/v1.11a/bin/../lib/gcc/pic32mx/3.4.4/../../../../pic32mx/lib/libdebug.a
LOAD /Applications/microchip/mplabc32/v1.11a/bin/../lib/gcc/pic32mx/3.4.4/../../../../pic32mx/lib/libc.a
LOAD /Applications/microchip/mplabc32/v1.11a/bin/../lib/gcc/pic32mx/3.4.4/../../../../pic32mx/lib/libm.a
LOAD /Applications/microchip/mplabc32/v1.11a/bin/../lib/gcc/pic32mx/3.4.4/../../../../pic32mx/lib/libe.a
LOAD /Applications/microchip/mplabc32/v1.11a/bin/../lib/gcc/pic32mx/3.4.4/../../../../pic32mx/lib/libdsp.a
LOAD /Applications/microchip/mplabc32/v1.11a/bin/../lib/gcc/pic32mx/3.4.4/../../../../pic32mx/lib/libmchp_peripheral.a
LOAD /Applications/microchip/mplabc32/v1.11a/bin/../lib/gcc/pic32mx/3.4.4/../../../../pic32mx/lib/libmchp_peripheral_32MX795F512L.a
END GROUP
LOAD /Applications/microchip/mplabc32/v1.11a/bin/../lib/gcc/pic32mx/3.4.4/libgcc.a
OUTPUT(dist/mega/production/arduino-booloader.X.production.elf elf32-tradlittlemips)

Cross Reference Table

Symbol                                            File
AD1CHS                                            /Applications/microchip/mplabc32/v1.11a/bin/../lib/gcc/pic32mx/3.4.4/../../../../pic32mx/lib/./proc/32MX795F512L/processor.o
                                                  /Applications/microchip/mplabc32/v1.11a/bin/../lib/gcc/pic32mx/3.4.4/../../../../pic32mx/lib/libc.a(memcpy.o)
                                                  build/mega/production/startup.o
AD1CHSCLR                                         /Applications/microchip/mplabc32/v1.11a/bin/../lib/gcc/pic32mx/3.4.4/../../../../pic32mx/lib/./proc/32MX795F512L/processor.o
                                                  /Applications/microchip/mplabc32/v1.11a/bin/../lib/gcc/pic32mx/3.4.4/../../../../pic32mx/lib/libc.a(memcpy.o)
                                                  build/mega/production/startup.o
AD1CHSINV                                         /Applications/microchip/mplabc32/v1.11a/bin/../lib/gcc/pic32mx/3.4.4/../../../../pic32mx/lib/./proc/32MX795F512L/processor.o
                                                  /Applications/microchip/mplabc32/v1.11a/bin/../lib/gcc/pic32mx/3.4.4/../../../../pic32mx/lib/libc.a(memcpy.o)
                                                  build/mega/production/startup.o
AD1CHSSET                                         /Applications/microchip/mplabc32/v1.11a/bin/../lib/gcc/pic32mx/3.4.4/../../../../pic32mx/lib/./proc/32MX795F512L/processor.o
                                                  /Applications/microchip/mplabc32/v1.11a/bin/../lib/gcc/pic32mx/3.4.4/../../../../pic32mx/lib/libc.a(memcpy.o)
                                                  build/mega/production/startup.o
AD1CON1                                           /Applications/microchip/mplabc32/v1.11a/bin/../lib/gcc/pic32mx/3.4.4/../../../../pic32mx/lib/./proc/32MX795F512L/processor.o
                                                  /Applications/microchip/mplabc32/v1.11a/bin/../lib/gcc/pic32mx/3.4.4/../../../../pic32mx/lib/libc.a(memcpy.o)
                                                  build/mega/production/startup.o
AD1CON1CLR                                        /Applications/microchip/mplabc32/v1.11a/bin/../lib/gcc/pic32mx/3.4.4/../../../../pic32mx/lib/./proc/32MX795F512L/processor.o
                                                  /Applications/microchip/mplabc32/v1.11a/bin/../lib/gcc/pic32mx/3.4.4/../../../../pic32mx/lib/libc.a(memcpy.o)
                                                  build/mega/production/startup.o
AD1CON1INV                                        /Applications/microchip/mplabc32/v1.11a/bin/../lib/gcc/pic32mx/3.4.4/../../../../pic32mx/lib/./proc/32MX795F512L/processor.o
                                                  /Applications/microchip/mplabc32/v1.11a/bin/../lib/gcc/pic32mx/3.4.4/../../../../pic32mx/lib/libc.a(memcpy.o)
                                                  build/mega/production/startup.o
AD1CON1SET                                        /Applications/microchip/mplabc32/v1.11a/bin/../lib/gcc/pic32mx/3.4.4/../../../../pic32mx/lib/./proc/32MX795F512L/processor.o
                                                  /Applications/microchip/mplabc32/v1.11a/bin/../lib/gcc/pic32mx/3.4.4/../../../../pic32mx/lib/libc.a(memcpy.o)
                                                  build/mega/production/startup.o
AD1CON2                                           /Applications/microchip/mplabc32/v1.11a/bin/../lib/gcc/pic32mx/3.4.4/../../../../pic32mx/lib/./proc/32MX795F512L/processor.o
                                                  /Applications/microchip/mplabc32/v1.11a/bin/../lib/gcc/pic32mx/3.4.4/../../../../pic32mx/lib/libc.a(memcpy.o)
                                                  build/mega/production/startup.o
AD1CON2CLR                                        /Applications/microchip/mplabc32/v1.11a/bin/../lib/gcc/pic32mx/3.4.4/../../../../pic32mx/lib/./proc/32MX795F512L/processor.o
                                                  /Applications/microchip/mplabc32/v1.11a/bin/../lib/gcc/pic32mx/3.4.4/../../../../pic32mx/lib/libc.a(memcpy.o)
                                                  build/mega/production/startup.o
AD1CON2INV                                        /Applications/microchip/mplabc32/v1.11a/bin/../lib/gcc/pic32mx/3.4.4/../../../../pic32mx/lib/./proc/32MX795F512L/processor.o
                                                  /Applications/microchip/mplabc32/v1.11a/bin/../lib/gcc/pic32mx/3.4.4/../../../../pic32mx/lib/libc.a(memcpy.o)
                                                  build/mega/production/startup.o
AD1CON2SET                                        /Applications/microchip/mplabc32/v1.11a/bin/../lib/gcc/pic32mx/3.4.4/../../../../pic32mx/lib/./proc/32MX795F512L/processor.o
                                                  /Applications/microchip/mplabc32/v1.11a/bin/../lib/gcc/pic32mx/3.4.4/../../../../pic32mx/lib/libc.a(memcpy.o)
                                                  build/mega/production/startup.o
AD1CON3                                           /Applications/microchip/mplabc32/v1.11a/bin/../lib/gcc/pic32mx/3.4.4/../../../../pic32mx/lib/./proc/32MX795F512L/processor.o
                                                  /Applications/microchip/mplabc32/v1.11a/bin/../lib/gcc/pic32mx/3.4.4/../../../../pic32mx/lib/libc.a(memcpy.o)
                                                  build/mega/production/startup.o
AD1CON3CLR                                        /Applications/microchip/mplabc32/v1.11a/bin/../lib/gcc/pic32mx/3.4.4/../../../../pic32mx/lib/./proc/32MX795F512L/processor.o
                                                  /Applications/microchip/mplabc32/v1.11a/bin/../lib/gcc/pic32mx/3.4.4/../../../../pic32mx/lib/libc.a(memcpy.o)
                                                  build/mega/production/startup.o
AD1CON3INV                                        /Applications/microchip/mplabc32/v1.11a/bin/../lib/gcc/pic32mx/3.4.4/../../../../pic32mx/lib/./proc/32MX795F512L/processor.o
                                                  /Applications/microchip/mplabc32/v1.11a/bin/../lib/gcc/pic32mx/3.4.4/../../../../pic32mx/lib/libc.a(memcpy.o)
                                                  build/mega/production/startup.o
AD1CON3SET                                        /Applications/microchip/mplabc32/v1.11a/bin/../lib/gcc/pic32mx/3.4.4/../../../../pic32mx/lib/./proc/32MX795F512L/processor.o
                                                  /Applications/microchip/mplabc32/v1.11a/bin/../lib/gcc/pic32mx/3.4.4/../../../../pic32mx/lib/libc.a(memcpy.o)
                                                  build/mega/production/startup.o
AD1CSSL                                           /Applications/microchip/mplabc32/v1.11a/bin/../lib/gcc/pic32mx/3.4.4/../../../../pic32mx/lib/./proc/32MX795F512L/processor.o
                                                  /Applications/microchip/mplabc32/v1.11a/bin/../lib/gcc/pic32mx/3.4.4/../../../../pic32mx/lib/libc.a(memcpy.o)
                                                  build/mega/production/startup.o
AD1CSSLCLR                                        /Applications/microchip/mplabc32/v1.11a/bin/../lib/gcc/pic32mx/3.4.4/../../../../pic32mx/lib/./proc/32MX795F512L/processor.o
                                                  /Applications/microchip/mplabc32/v1.11a/bin/../lib/gcc/pic32mx/3.4.4/../../../../pic32mx/lib/libc.a(memcpy.o)
                                                  build/mega/production/startup.o
AD1CSSLINV                                        /Applications/microchip/mplabc32/v1.11a/bin/../lib/gcc/pic32mx/3.4.4/../../../../pic32mx/lib/./proc/32MX795F512L/processor.o
                                                  /Applications/microchip/mplabc32/v1.11a/bin/../lib/gcc/pic32mx/3.4.4/../../../../pic32mx/lib/libc.a(memcpy.o)
                                                  build/mega/production/startup.o
AD1CSSLSET                                        /Applications/microchip/mplabc32/v1.11a/bin/../lib/gcc/pic32mx/3.4.4/../../../../pic32mx/lib/./proc/32MX795F512L/processor.o
                                                  /Applications/microchip/mplabc32/v1.11a/bin/../lib/gcc/pic32mx/3.4.4/../../../../pic32mx/lib/libc.a(memcpy.o)
                                                  build/mega/production/startup.o
AD1PCFG                                           /Applications/microchip/mplabc32/v1.11a/bin/../lib/gcc/pic32mx/3.4.4/../../../../pic32mx/lib/./proc/32MX795F512L/processor.o
                                                  /Applications/microchip/mplabc32/v1.11a/bin/../lib/gcc/pic32mx/3.4.4/../../../../pic32mx/lib/libc.a(memcpy.o)
                                                  build/mega/production/startup.o
AD1PCFGCLR                                        /Applications/microchip/mplabc32/v1.11a/bin/../lib/gcc/pic32mx/3.4.4/../../../../pic32mx/lib/./proc/32MX795F512L/processor.o
                                                  /Applications/microchip/mplabc32/v1.11a/bin/../lib/gcc/pic32mx/3.4.4/../../../../pic32mx/lib/libc.a(memcpy.o)
                                                  build/mega/production/startup.o
AD1PCFGINV                                        /Applications/microchip/mplabc32/v1.11a/bin/../lib/gcc/pic32mx/3.4.4/../../../../pic32mx/lib/./proc/32MX795F512L/processor.o
                                                  /Applications/microchip/mplabc32/v1.11a/bin/../lib/gcc/pic32mx/3.4.4/../../../../pic32mx/lib/libc.a(memcpy.o)
                                                  build/mega/production/startup.o
AD1PCFGSET                                        /Applications/microchip/mplabc32/v1.11a/bin/../lib/gcc/pic32mx/3.4.4/../../../../pic32mx/lib/./proc/32MX795F512L/processor.o
                                                  /Applications/microchip/mplabc32/v1.11a/bin/../lib/gcc/pic32mx/3.4.4/../../../../pic32mx/lib/libc.a(memcpy.o)
                                                  build/mega/production/startup.o
ADC1BUF0                                          /Applications/microchip/mplabc32/v1.11a/bin/../lib/gcc/pic32mx/3.4.4/../../../../pic32mx/lib/./proc/32MX795F512L/processor.o
                                                  /Applications/microchip/mplabc32/v1.11a/bin/../lib/gcc/pic32mx/3.4.4/../../../../pic32mx/lib/libc.a(memcpy.o)
                                                  build/mega/production/startup.o
ADC1BUF1                                          /Applications/microchip/mplabc32/v1.11a/bin/../lib/gcc/pic32mx/3.4.4/../../../../pic32mx/lib/./proc/32MX795F512L/processor.o
                                                  /Applications/microchip/mplabc32/v1.11a/bin/../lib/gcc/pic32mx/3.4.4/../../../../pic32mx/lib/libc.a(memcpy.o)
                                                  build/mega/production/startup.o
ADC1BUF2                                          /Applications/microchip/mplabc32/v1.11a/bin/../lib/gcc/pic32mx/3.4.4/../../../../pic32mx/lib/./proc/32MX795F512L/processor.o
                                                  /Applications/microchip/mplabc32/v1.11a/bin/../lib/gcc/pic32mx/3.4.4/../../../../pic32mx/lib/libc.a(memcpy.o)
                                                  build/mega/production/startup.o
ADC1BUF3                                          /Applications/microchip/mplabc32/v1.11a/bin/../lib/gcc/pic32mx/3.4.4/../../../../pic32mx/lib/./proc/32MX795F512L/processor.o
                                                  /Applications/microchip/mplabc32/v1.11a/bin/../lib/gcc/pic32mx/3.4.4/../../../../pic32mx/lib/libc.a(memcpy.o)
                                                  build/mega/production/startup.o
ADC1BUF4                                          /Applications/microchip/mplabc32/v1.11a/bin/../lib/gcc/pic32mx/3.4.4/../../../../pic32mx/lib/./proc/32MX795F512L/processor.o
                                                  /Applications/microchip/mplabc32/v1.11a/bin/../lib/gcc/pic32mx/3.4.4/../../../../pic32mx/lib/libc.a(memcpy.o)
                                                  build/mega/production/startup.o
ADC1BUF5                                          /Applications/microchip/mplabc32/v1.11a/bin/../lib/gcc/pic32mx/3.4.4/../../../../pic32mx/lib/./proc/32MX795F512L/processor.o
                                                  /Applications/microchip/mplabc32/v1.11a/bin/../lib/gcc/pic32mx/3.4.4/../../../../pic32mx/lib/libc.a(memcpy.o)
                                                  build/mega/production/startup.o
ADC1BUF6                                          /Applications/microchip/mplabc32/v1.11a/bin/../lib/gcc/pic32mx/3.4.4/../../../../pic32mx/lib/./proc/32MX795F512L/processor.o
                                                  /Applications/microchip/mplabc32/v1.11a/bin/../lib/gcc/pic32mx/3.4.4/../../../../pic32mx/lib/libc.a(memcpy.o)
                                                  build/mega/production/startup.o
ADC1BUF7                                          /Applications/microchip/mplabc32/v1.11a/bin/../lib/gcc/pic32mx/3.4.4/../../../../pic32mx/lib/./proc/32MX795F512L/processor.o
                                                  /Applications/microchip/mplabc32/v1.11a/bin/../lib/gcc/pic32mx/3.4.4/../../../../pic32mx/lib/libc.a(memcpy.o)
                                                  build/mega/production/startup.o
ADC1BUF8                                          /Applications/microchip/mplabc32/v1.11a/bin/../lib/gcc/pic32mx/3.4.4/../../../../pic32mx/lib/./proc/32MX795F512L/processor.o
                                                  /Applications/microchip/mplabc32/v1.11a/bin/../lib/gcc/pic32mx/3.4.4/../../../../pic32mx/lib/libc.a(memcpy.o)
                                                  build/mega/production/startup.o
ADC1BUF9                                          /Applications/microchip/mplabc32/v1.11a/bin/../lib/gcc/pic32mx/3.4.4/../../../../pic32mx/lib/./proc/32MX795F512L/processor.o
                                                  /Applications/microchip/mplabc32/v1.11a/bin/../lib/gcc/pic32mx/3.4.4/../../../../pic32mx/lib/libc.a(memcpy.o)
                                                  build/mega/production/startup.o
ADC1BUFA                                          /Applications/microchip/mplabc32/v1.11a/bin/../lib/gcc/pic32mx/3.4.4/../../../../pic32mx/lib/./proc/32MX795F512L/processor.o
                                                  /Applications/microchip/mplabc32/v1.11a/bin/../lib/gcc/pic32mx/3.4.4/../../../../pic32mx/lib/libc.a(memcpy.o)
                                                  build/mega/production/startup.o
ADC1BUFB                                          /Applications/microchip/mplabc32/v1.11a/bin/../lib/gcc/pic32mx/3.4.4/../../../../pic32mx/lib/./proc/32MX795F512L/processor.o
                                                  /Applications/microchip/mplabc32/v1.11a/bin/../lib/gcc/pic32mx/3.4.4/../../../../pic32mx/lib/libc.a(memcpy.o)
                                                  build/mega/production/startup.o
ADC1BUFC                                          /Applications/microchip/mplabc32/v1.11a/bin/../lib/gcc/pic32mx/3.4.4/../../../../pic32mx/lib/./proc/32MX795F512L/processor.o
                                                  /Applications/microchip/mplabc32/v1.11a/bin/../lib/gcc/pic32mx/3.4.4/../../../../pic32mx/lib/libc.a(memcpy.o)
                                                  build/mega/production/startup.o
ADC1BUFD                                          /Applications/microchip/mplabc32/v1.11a/bin/../lib/gcc/pic32mx/3.4.4/../../../../pic32mx/lib/./proc/32MX795F512L/processor.o
                                                  /Applications/microchip/mplabc32/v1.11a/bin/../lib/gcc/pic32mx/3.4.4/../../../../pic32mx/lib/libc.a(memcpy.o)
                                                  build/mega/production/startup.o
ADC1BUFE                                          /Applications/microchip/mplabc32/v1.11a/bin/../lib/gcc/pic32mx/3.4.4/../../../../pic32mx/lib/./proc/32MX795F512L/processor.o
                                                  /Applications/microchip/mplabc32/v1.11a/bin/../lib/gcc/pic32mx/3.4.4/../../../../pic32mx/lib/libc.a(memcpy.o)
                                                  build/mega/production/startup.o
ADC1BUFF                                          /Applications/microchip/mplabc32/v1.11a/bin/../lib/gcc/pic32mx/3.4.4/../../../../pic32mx/lib/./proc/32MX795F512L/processor.o
                                                  /Applications/microchip/mplabc32/v1.11a/bin/../lib/gcc/pic32mx/3.4.4/../../../../pic32mx/lib/libc.a(memcpy.o)
                                                  build/mega/production/startup.o
ALRMDATE                                          /Applications/microchip/mplabc32/v1.11a/bin/../lib/gcc/pic32mx/3.4.4/../../../../pic32mx/lib/./proc/32MX795F512L/processor.o
                                                  /Applications/microchip/mplabc32/v1.11a/bin/../lib/gcc/pic32mx/3.4.4/../../../../pic32mx/lib/libc.a(memcpy.o)
                                                  build/mega/production/startup.o
ALRMDATECLR                                       /Applications/microchip/mplabc32/v1.11a/bin/../lib/gcc/pic32mx/3.4.4/../../../../pic32mx/lib/./proc/32MX795F512L/processor.o
                                                  /Applications/microchip/mplabc32/v1.11a/bin/../lib/gcc/pic32mx/3.4.4/../../../../pic32mx/lib/libc.a(memcpy.o)
                                                  build/mega/production/startup.o
ALRMDATEINV                                       /Applications/microchip/mplabc32/v1.11a/bin/../lib/gcc/pic32mx/3.4.4/../../../../pic32mx/lib/./proc/32MX795F512L/processor.o
                                                  /Applications/microchip/mplabc32/v1.11a/bin/../lib/gcc/pic32mx/3.4.4/../../../../pic32mx/lib/libc.a(memcpy.o)
                                                  build/mega/production/startup.o
ALRMDATESET                                       /Applications/microchip/mplabc32/v1.11a/bin/../lib/gcc/pic32mx/3.4.4/../../../../pic32mx/lib/./proc/32MX795F512L/processor.o
                                                  /Applications/microchip/mplabc32/v1.11a/bin/../lib/gcc/pic32mx/3.4.4/../../../../pic32mx/lib/libc.a(memcpy.o)
                                                  build/mega/production/startup.o
ALRMTIME                                          /Applications/microchip/mplabc32/v1.11a/bin/../lib/gcc/pic32mx/3.4.4/../../../../pic32mx/lib/./proc/32MX795F512L/processor.o
                                                  /Applications/microchip/mplabc32/v1.11a/bin/../lib/gcc/pic32mx/3.4.4/../../../../pic32mx/lib/libc.a(memcpy.o)
                                                  build/mega/production/startup.o
ALRMTIMECLR                                       /Applications/microchip/mplabc32/v1.11a/bin/../lib/gcc/pic32mx/3.4.4/../../../../pic32mx/lib/./proc/32MX795F512L/processor.o
                                                  /Applications/microchip/mplabc32/v1.11a/bin/../lib/gcc/pic32mx/3.4.4/../../../../pic32mx/lib/libc.a(memcpy.o)
                                                  build/mega/production/startup.o
ALRMTIMEINV                                       /Applications/microchip/mplabc32/v1.11a/bin/../lib/gcc/pic32mx/3.4.4/../../../../pic32mx/lib/./proc/32MX795F512L/processor.o
                                                  /Applications/microchip/mplabc32/v1.11a/bin/../lib/gcc/pic32mx/3.4.4/../../../../pic32mx/lib/libc.a(memcpy.o)
                                                  build/mega/production/startup.o
ALRMTIMESET                                       /Applications/microchip/mplabc32/v1.11a/bin/../lib/gcc/pic32mx/3.4.4/../../../../pic32mx/lib/./proc/32MX795F512L/processor.o
                                                  /Applications/microchip/mplabc32/v1.11a/bin/../lib/gcc/pic32mx/3.4.4/../../../../pic32mx/lib/libc.a(memcpy.o)
                                                  build/mega/production/startup.o
BMXBOOTSZ                                         /Applications/microchip/mplabc32/v1.11a/bin/../lib/gcc/pic32mx/3.4.4/../../../../pic32mx/lib/./proc/32MX795F512L/processor.o
                                                  /Applications/microchip/mplabc32/v1.11a/bin/../lib/gcc/pic32mx/3.4.4/../../../../pic32mx/lib/libc.a(memcpy.o)
                                                  build/mega/production/startup.o
BMXCON                                            /Applications/microchip/mplabc32/v1.11a/bin/../lib/gcc/pic32mx/3.4.4/../../../../pic32mx/lib/./proc/32MX795F512L/processor.o
                                                  /Applications/microchip/mplabc32/v1.11a/bin/../lib/gcc/pic32mx/3.4.4/../../../../pic32mx/lib/libc.a(memcpy.o)
                                                  build/mega/production/startup.o
BMXCONCLR                                         /Applications/microchip/mplabc32/v1.11a/bin/../lib/gcc/pic32mx/3.4.4/../../../../pic32mx/lib/./proc/32MX795F512L/processor.o
                                                  /Applications/microchip/mplabc32/v1.11a/bin/../lib/gcc/pic32mx/3.4.4/../../../../pic32mx/lib/libc.a(memcpy.o)
                                                  build/mega/production/pic32bootloader.o
                                                  build/mega/production/startup.o
BMXCONINV                                         /Applications/microchip/mplabc32/v1.11a/bin/../lib/gcc/pic32mx/3.4.4/../../../../pic32mx/lib/./proc/32MX795F512L/processor.o
                                                  /Applications/microchip/mplabc32/v1.11a/bin/../lib/gcc/pic32mx/3.4.4/../../../../pic32mx/lib/libc.a(memcpy.o)
                                                  build/mega/production/startup.o
BMXCONSET                                         /Applications/microchip/mplabc32/v1.11a/bin/../lib/gcc/pic32mx/3.4.4/../../../../pic32mx/lib/./proc/32MX795F512L/processor.o
                                                  /Applications/microchip/mplabc32/v1.11a/bin/../lib/gcc/pic32mx/3.4.4/../../../../pic32mx/lib/libc.a(memcpy.o)
                                                  build/mega/production/startup.o
BMXDKPBA                                          /Applications/microchip/mplabc32/v1.11a/bin/../lib/gcc/pic32mx/3.4.4/../../../../pic32mx/lib/./proc/32MX795F512L/processor.o
                                                  /Applications/microchip/mplabc32/v1.11a/bin/../lib/gcc/pic32mx/3.4.4/../../../../pic32mx/lib/libc.a(memcpy.o)
                                                  build/mega/production/startup.o
BMXDKPBACLR                                       /Applications/microchip/mplabc32/v1.11a/bin/../lib/gcc/pic32mx/3.4.4/../../../../pic32mx/lib/./proc/32MX795F512L/processor.o
                                                  /Applications/microchip/mplabc32/v1.11a/bin/../lib/gcc/pic32mx/3.4.4/../../../../pic32mx/lib/libc.a(memcpy.o)
                                                  build/mega/production/startup.o
BMXDKPBAINV                                       /Applications/microchip/mplabc32/v1.11a/bin/../lib/gcc/pic32mx/3.4.4/../../../../pic32mx/lib/./proc/32MX795F512L/processor.o
                                                  /Applications/microchip/mplabc32/v1.11a/bin/../lib/gcc/pic32mx/3.4.4/../../../../pic32mx/lib/libc.a(memcpy.o)
                                                  build/mega/production/startup.o
BMXDKPBASET                                       /Applications/microchip/mplabc32/v1.11a/bin/../lib/gcc/pic32mx/3.4.4/../../../../pic32mx/lib/./proc/32MX795F512L/processor.o
                                                  /Applications/microchip/mplabc32/v1.11a/bin/../lib/gcc/pic32mx/3.4.4/../../../../pic32mx/lib/libc.a(memcpy.o)
                                                  build/mega/production/startup.o
BMXDRMSZ                                          /Applications/microchip/mplabc32/v1.11a/bin/../lib/gcc/pic32mx/3.4.4/../../../../pic32mx/lib/./proc/32MX795F512L/processor.o
                                                  /Applications/microchip/mplabc32/v1.11a/bin/../lib/gcc/pic32mx/3.4.4/../../../../pic32mx/lib/libc.a(memcpy.o)
                                                  build/mega/production/startup.o
BMXDUDBA                                          /Applications/microchip/mplabc32/v1.11a/bin/../lib/gcc/pic32mx/3.4.4/../../../../pic32mx/lib/./proc/32MX795F512L/processor.o
                                                  /Applications/microchip/mplabc32/v1.11a/bin/../lib/gcc/pic32mx/3.4.4/../../../../pic32mx/lib/libc.a(memcpy.o)
                                                  build/mega/production/startup.o
BMXDUDBACLR                                       /Applications/microchip/mplabc32/v1.11a/bin/../lib/gcc/pic32mx/3.4.4/../../../../pic32mx/lib/./proc/32MX795F512L/processor.o
                                                  /Applications/microchip/mplabc32/v1.11a/bin/../lib/gcc/pic32mx/3.4.4/../../../../pic32mx/lib/libc.a(memcpy.o)
                                                  build/mega/production/startup.o
BMXDUDBAINV                                       /Applications/microchip/mplabc32/v1.11a/bin/../lib/gcc/pic32mx/3.4.4/../../../../pic32mx/lib/./proc/32MX795F512L/processor.o
                                                  /Applications/microchip/mplabc32/v1.11a/bin/../lib/gcc/pic32mx/3.4.4/../../../../pic32mx/lib/libc.a(memcpy.o)
                                                  build/mega/production/startup.o
BMXDUDBASET                                       /Applications/microchip/mplabc32/v1.11a/bin/../lib/gcc/pic32mx/3.4.4/../../../../pic32mx/lib/./proc/32MX795F512L/processor.o
                                                  /Applications/microchip/mplabc32/v1.11a/bin/../lib/gcc/pic32mx/3.4.4/../../../../pic32mx/lib/libc.a(memcpy.o)
                                                  build/mega/production/startup.o
BMXDUPBA                                          /Applications/microchip/mplabc32/v1.11a/bin/../lib/gcc/pic32mx/3.4.4/../../../../pic32mx/lib/./proc/32MX795F512L/processor.o
                                                  /Applications/microchip/mplabc32/v1.11a/bin/../lib/gcc/pic32mx/3.4.4/../../../../pic32mx/lib/libc.a(memcpy.o)
                                                  build/mega/production/startup.o
BMXDUPBACLR                                       /Applications/microchip/mplabc32/v1.11a/bin/../lib/gcc/pic32mx/3.4.4/../../../../pic32mx/lib/./proc/32MX795F512L/processor.o
                                                  /Applications/microchip/mplabc32/v1.11a/bin/../lib/gcc/pic32mx/3.4.4/../../../../pic32mx/lib/libc.a(memcpy.o)
                                                  build/mega/production/startup.o
BMXDUPBAINV                                       /Applications/microchip/mplabc32/v1.11a/bin/../lib/gcc/pic32mx/3.4.4/../../../../pic32mx/lib/./proc/32MX795F512L/processor.o
                                                  /Applications/microchip/mplabc32/v1.11a/bin/../lib/gcc/pic32mx/3.4.4/../../../../pic32mx/lib/libc.a(memcpy.o)
                                                  build/mega/production/startup.o
BMXDUPBASET                                       /Applications/microchip/mplabc32/v1.11a/bin/../lib/gcc/pic32mx/3.4.4/../../../../pic32mx/lib/./proc/32MX795F512L/processor.o
                                                  /Applications/microchip/mplabc32/v1.11a/bin/../lib/gcc/pic32mx/3.4.4/../../../../pic32mx/lib/libc.a(memcpy.o)
                                                  build/mega/production/startup.o
BMXPFMSZ                                          /Applications/microchip/mplabc32/v1.11a/bin/../lib/gcc/pic32mx/3.4.4/../../../../pic32mx/lib/./proc/32MX795F512L/processor.o
                                                  /Applications/microchip/mplabc32/v1.11a/bin/../lib/gcc/pic32mx/3.4.4/../../../../pic32mx/lib/libc.a(memcpy.o)
                                                  build/mega/production/startup.o
BMXPUPBA                                          /Applications/microchip/mplabc32/v1.11a/bin/../lib/gcc/pic32mx/3.4.4/../../../../pic32mx/lib/./proc/32MX795F512L/processor.o
                                                  /Applications/microchip/mplabc32/v1.11a/bin/../lib/gcc/pic32mx/3.4.4/../../../../pic32mx/lib/libc.a(memcpy.o)
                                                  build/mega/production/startup.o
BMXPUPBACLR                                       /Applications/microchip/mplabc32/v1.11a/bin/../lib/gcc/pic32mx/3.4.4/../../../../pic32mx/lib/./proc/32MX795F512L/processor.o
                                                  /Applications/microchip/mplabc32/v1.11a/bin/../lib/gcc/pic32mx/3.4.4/../../../../pic32mx/lib/libc.a(memcpy.o)
                                                  build/mega/production/startup.o
BMXPUPBAINV                                       /Applications/microchip/mplabc32/v1.11a/bin/../lib/gcc/pic32mx/3.4.4/../../../../pic32mx/lib/./proc/32MX795F512L/processor.o
                                                  /Applications/microchip/mplabc32/v1.11a/bin/../lib/gcc/pic32mx/3.4.4/../../../../pic32mx/lib/libc.a(memcpy.o)
                                                  build/mega/production/startup.o
BMXPUPBASET                                       /Applications/microchip/mplabc32/v1.11a/bin/../lib/gcc/pic32mx/3.4.4/../../../../pic32mx/lib/./proc/32MX795F512L/processor.o
                                                  /Applications/microchip/mplabc32/v1.11a/bin/../lib/gcc/pic32mx/3.4.4/../../../../pic32mx/lib/libc.a(memcpy.o)
                                                  build/mega/production/startup.o
C1CFG                                             /Applications/microchip/mplabc32/v1.11a/bin/../lib/gcc/pic32mx/3.4.4/../../../../pic32mx/lib/./proc/32MX795F512L/processor.o
                                                  build/mega/production/startup.o
C1CFGCLR                                          /Applications/microchip/mplabc32/v1.11a/bin/../lib/gcc/pic32mx/3.4.4/../../../../pic32mx/lib/./proc/32MX795F512L/processor.o
                                                  build/mega/production/startup.o
C1CFGINV                                          /Applications/microchip/mplabc32/v1.11a/bin/../lib/gcc/pic32mx/3.4.4/../../../../pic32mx/lib/./proc/32MX795F512L/processor.o
                                                  build/mega/production/startup.o
C1CFGSET                                          /Applications/microchip/mplabc32/v1.11a/bin/../lib/gcc/pic32mx/3.4.4/../../../../pic32mx/lib/./proc/32MX795F512L/processor.o
                                                  build/mega/production/startup.o
C1CON                                             /Applications/microchip/mplabc32/v1.11a/bin/../lib/gcc/pic32mx/3.4.4/../../../../pic32mx/lib/./proc/32MX795F512L/processor.o
                                                  build/mega/production/startup.o
C1CONCLR                                          /Applications/microchip/mplabc32/v1.11a/bin/../lib/gcc/pic32mx/3.4.4/../../../../pic32mx/lib/./proc/32MX795F512L/processor.o
                                                  build/mega/production/startup.o
C1CONINV                                          /Applications/microchip/mplabc32/v1.11a/bin/../lib/gcc/pic32mx/3.4.4/../../../../pic32mx/lib/./proc/32MX795F512L/processor.o
                                                  build/mega/production/startup.o
C1CONSET                                          /Applications/microchip/mplabc32/v1.11a/bin/../lib/gcc/pic32mx/3.4.4/../../../../pic32mx/lib/./proc/32MX795F512L/processor.o
                                                  build/mega/production/startup.o
C1FIFOBA                                          /Applications/microchip/mplabc32/v1.11a/bin/../lib/gcc/pic32mx/3.4.4/../../../../pic32mx/lib/./proc/32MX795F512L/processor.o
                                                  build/mega/production/startup.o
C1FIFOBACLR                                       /Applications/microchip/mplabc32/v1.11a/bin/../lib/gcc/pic32mx/3.4.4/../../../../pic32mx/lib/./proc/32MX795F512L/processor.o
                                                  build/mega/production/startup.o
C1FIFOBAINV                                       /Applications/microchip/mplabc32/v1.11a/bin/../lib/gcc/pic32mx/3.4.4/../../../../pic32mx/lib/./proc/32MX795F512L/processor.o
                                                  build/mega/production/startup.o
C1FIFOBASET                                       /Applications/microchip/mplabc32/v1.11a/bin/../lib/gcc/pic32mx/3.4.4/../../../../pic32mx/lib/./proc/32MX795F512L/processor.o
                                                  build/mega/production/startup.o
C1FIFOCI0                                         /Applications/microchip/mplabc32/v1.11a/bin/../lib/gcc/pic32mx/3.4.4/../../../../pic32mx/lib/./proc/32MX795F512L/processor.o
                                                  build/mega/production/startup.o
C1FIFOCI0CLR                                      /Applications/microchip/mplabc32/v1.11a/bin/../lib/gcc/pic32mx/3.4.4/../../../../pic32mx/lib/./proc/32MX795F512L/processor.o
                                                  build/mega/production/startup.o
C1FIFOCI0INV                                      /Applications/microchip/mplabc32/v1.11a/bin/../lib/gcc/pic32mx/3.4.4/../../../../pic32mx/lib/./proc/32MX795F512L/processor.o
                                                  build/mega/production/startup.o
C1FIFOCI0SET                                      /Applications/microchip/mplabc32/v1.11a/bin/../lib/gcc/pic32mx/3.4.4/../../../../pic32mx/lib/./proc/32MX795F512L/processor.o
                                                  build/mega/production/startup.o
C1FIFOCI1                                         /Applications/microchip/mplabc32/v1.11a/bin/../lib/gcc/pic32mx/3.4.4/../../../../pic32mx/lib/./proc/32MX795F512L/processor.o
                                                  build/mega/production/startup.o
C1FIFOCI10                                        /Applications/microchip/mplabc32/v1.11a/bin/../lib/gcc/pic32mx/3.4.4/../../../../pic32mx/lib/./proc/32MX795F512L/processor.o
                                                  build/mega/production/startup.o
C1FIFOCI10CLR                                     /Applications/microchip/mplabc32/v1.11a/bin/../lib/gcc/pic32mx/3.4.4/../../../../pic32mx/lib/./proc/32MX795F512L/processor.o
                                                  build/mega/production/startup.o
C1FIFOCI10INV                                     /Applications/microchip/mplabc32/v1.11a/bin/../lib/gcc/pic32mx/3.4.4/../../../../pic32mx/lib/./proc/32MX795F512L/processor.o
                                                  build/mega/production/startup.o
C1FIFOCI10SET                                     /Applications/microchip/mplabc32/v1.11a/bin/../lib/gcc/pic32mx/3.4.4/../../../../pic32mx/lib/./proc/32MX795F512L/processor.o
                                                  build/mega/production/startup.o
C1FIFOCI11                                        /Applications/microchip/mplabc32/v1.11a/bin/../lib/gcc/pic32mx/3.4.4/../../../../pic32mx/lib/./proc/32MX795F512L/processor.o
                                                  build/mega/production/startup.o
C1FIFOCI11CLR                                     /Applications/microchip/mplabc32/v1.11a/bin/../lib/gcc/pic32mx/3.4.4/../../../../pic32mx/lib/./proc/32MX795F512L/processor.o
                                                  build/mega/production/startup.o
C1FIFOCI11INV                                     /Applications/microchip/mplabc32/v1.11a/bin/../lib/gcc/pic32mx/3.4.4/../../../../pic32mx/lib/./proc/32MX795F512L/processor.o
                                                  build/mega/production/startup.o
C1FIFOCI11SET                                     /Applications/microchip/mplabc32/v1.11a/bin/../lib/gcc/pic32mx/3.4.4/../../../../pic32mx/lib/./proc/32MX795F512L/processor.o
                                                  build/mega/production/startup.o
C1FIFOCI12                                        /Applications/microchip/mplabc32/v1.11a/bin/../lib/gcc/pic32mx/3.4.4/../../../../pic32mx/lib/./proc/32MX795F512L/processor.o
                                                  build/mega/production/startup.o
C1FIFOCI12CLR                                     /Applications/microchip/mplabc32/v1.11a/bin/../lib/gcc/pic32mx/3.4.4/../../../../pic32mx/lib/./proc/32MX795F512L/processor.o
                                                  build/mega/production/startup.o
C1FIFOCI12INV                                     /Applications/microchip/mplabc32/v1.11a/bin/../lib/gcc/pic32mx/3.4.4/../../../../pic32mx/lib/./proc/32MX795F512L/processor.o
                                                  build/mega/production/startup.o
C1FIFOCI12SET                                     /Applications/microchip/mplabc32/v1.11a/bin/../lib/gcc/pic32mx/3.4.4/../../../../pic32mx/lib/./proc/32MX795F512L/processor.o
                                                  build/mega/production/startup.o
C1FIFOCI13                                        /Applications/microchip/mplabc32/v1.11a/bin/../lib/gcc/pic32mx/3.4.4/../../../../pic32mx/lib/./proc/32MX795F512L/processor.o
                                                  build/mega/production/startup.o
C1FIFOCI13CLR                                     /Applications/microchip/mplabc32/v1.11a/bin/../lib/gcc/pic32mx/3.4.4/../../../../pic32mx/lib/./proc/32MX795F512L/processor.o
                                                  build/mega/production/startup.o
C1FIFOCI13INV                                     /Applications/microchip/mplabc32/v1.11a/bin/../lib/gcc/pic32mx/3.4.4/../../../../pic32mx/lib/./proc/32MX795F512L/processor.o
                                                  build/mega/production/startup.o
C1FIFOCI13SET                                     /Applications/microchip/mplabc32/v1.11a/bin/../lib/gcc/pic32mx/3.4.4/../../../../pic32mx/lib/./proc/32MX795F512L/processor.o
                                                  build/mega/production/startup.o
C1FIFOCI14                                        /Applications/microchip/mplabc32/v1.11a/bin/../lib/gcc/pic32mx/3.4.4/../../../../pic32mx/lib/./proc/32MX795F512L/processor.o
                                                  build/mega/production/startup.o
C1FIFOCI14CLR                                     /Applications/microchip/mplabc32/v1.11a/bin/../lib/gcc/pic32mx/3.4.4/../../../../pic32mx/lib/./proc/32MX795F512L/processor.o
                                                  build/mega/production/startup.o
C1FIFOCI14INV                                     /Applications/microchip/mplabc32/v1.11a/bin/../lib/gcc/pic32mx/3.4.4/../../../../pic32mx/lib/./proc/32MX795F512L/processor.o
                                                  build/mega/production/startup.o
C1FIFOCI14SET                                     /Applications/microchip/mplabc32/v1.11a/bin/../lib/gcc/pic32mx/3.4.4/../../../../pic32mx/lib/./proc/32MX795F512L/processor.o
                                                  build/mega/production/startup.o
C1FIFOCI15                                        /Applications/microchip/mplabc32/v1.11a/bin/../lib/gcc/pic32mx/3.4.4/../../../../pic32mx/lib/./proc/32MX795F512L/processor.o
                                                  build/mega/production/startup.o
C1FIFOCI15CLR                                     /Applications/microchip/mplabc32/v1.11a/bin/../lib/gcc/pic32mx/3.4.4/../../../../pic32mx/lib/./proc/32MX795F512L/processor.o
                                                  build/mega/production/startup.o
C1FIFOCI15INV                                     /Applications/microchip/mplabc32/v1.11a/bin/../lib/gcc/pic32mx/3.4.4/../../../../pic32mx/lib/./proc/32MX795F512L/processor.o
                                                  build/mega/production/startup.o
C1FIFOCI15SET                                     /Applications/microchip/mplabc32/v1.11a/bin/../lib/gcc/pic32mx/3.4.4/../../../../pic32mx/lib/./proc/32MX795F512L/processor.o
                                                  build/mega/production/startup.o
C1FIFOCI16                                        /Applications/microchip/mplabc32/v1.11a/bin/../lib/gcc/pic32mx/3.4.4/../../../../pic32mx/lib/./proc/32MX795F512L/processor.o
                                                  build/mega/production/startup.o
C1FIFOCI16CLR                                     /Applications/microchip/mplabc32/v1.11a/bin/../lib/gcc/pic32mx/3.4.4/../../../../pic32mx/lib/./proc/32MX795F512L/processor.o
                                                  build/mega/production/startup.o
C1FIFOCI16INV                                     /Applications/microchip/mplabc32/v1.11a/bin/../lib/gcc/pic32mx/3.4.4/../../../../pic32mx/lib/./proc/32MX795F512L/processor.o
                                                  build/mega/production/startup.o
C1FIFOCI16SET                                     /Applications/microchip/mplabc32/v1.11a/bin/../lib/gcc/pic32mx/3.4.4/../../../../pic32mx/lib/./proc/32MX795F512L/processor.o
                                                  build/mega/production/startup.o
C1FIFOCI17                                        /Applications/microchip/mplabc32/v1.11a/bin/../lib/gcc/pic32mx/3.4.4/../../../../pic32mx/lib/./proc/32MX795F512L/processor.o
                                                  build/mega/production/startup.o
C1FIFOCI17CLR                                     /Applications/microchip/mplabc32/v1.11a/bin/../lib/gcc/pic32mx/3.4.4/../../../../pic32mx/lib/./proc/32MX795F512L/processor.o
                                                  build/mega/production/startup.o
C1FIFOCI17INV                                     /Applications/microchip/mplabc32/v1.11a/bin/../lib/gcc/pic32mx/3.4.4/../../../../pic32mx/lib/./proc/32MX795F512L/processor.o
                                                  build/mega/production/startup.o
C1FIFOCI17SET                                     /Applications/microchip/mplabc32/v1.11a/bin/../lib/gcc/pic32mx/3.4.4/../../../../pic32mx/lib/./proc/32MX795F512L/processor.o
                                                  build/mega/production/startup.o
C1FIFOCI18                                        /Applications/microchip/mplabc32/v1.11a/bin/../lib/gcc/pic32mx/3.4.4/../../../../pic32mx/lib/./proc/32MX795F512L/processor.o
                                                  build/mega/production/startup.o
C1FIFOCI18CLR                                     /Applications/microchip/mplabc32/v1.11a/bin/../lib/gcc/pic32mx/3.4.4/../../../../pic32mx/lib/./proc/32MX795F512L/processor.o
                                                  build/mega/production/startup.o
C1FIFOCI18INV                                     /Applications/microchip/mplabc32/v1.11a/bin/../lib/gcc/pic32mx/3.4.4/../../../../pic32mx/lib/./proc/32MX795F512L/processor.o
                                                  build/mega/production/startup.o
C1FIFOCI18SET                                     /Applications/microchip/mplabc32/v1.11a/bin/../lib/gcc/pic32mx/3.4.4/../../../../pic32mx/lib/./proc/32MX795F512L/processor.o
                                                  build/mega/production/startup.o
C1FIFOCI19                                        /Applications/microchip/mplabc32/v1.11a/bin/../lib/gcc/pic32mx/3.4.4/../../../../pic32mx/lib/./proc/32MX795F512L/processor.o
                                                  build/mega/production/startup.o
C1FIFOCI19CLR                                     /Applications/microchip/mplabc32/v1.11a/bin/../lib/gcc/pic32mx/3.4.4/../../../../pic32mx/lib/./proc/32MX795F512L/processor.o
                                                  build/mega/production/startup.o
C1FIFOCI19INV                                     /Applications/microchip/mplabc32/v1.11a/bin/../lib/gcc/pic32mx/3.4.4/../../../../pic32mx/lib/./proc/32MX795F512L/processor.o
                                                  build/mega/production/startup.o
C1FIFOCI19SET                                     /Applications/microchip/mplabc32/v1.11a/bin/../lib/gcc/pic32mx/3.4.4/../../../../pic32mx/lib/./proc/32MX795F512L/processor.o
                                                  build/mega/production/startup.o
C1FIFOCI1CLR                                      /Applications/microchip/mplabc32/v1.11a/bin/../lib/gcc/pic32mx/3.4.4/../../../../pic32mx/lib/./proc/32MX795F512L/processor.o
                                                  build/mega/production/startup.o
C1FIFOCI1INV                                      /Applications/microchip/mplabc32/v1.11a/bin/../lib/gcc/pic32mx/3.4.4/../../../../pic32mx/lib/./proc/32MX795F512L/processor.o
                                                  build/mega/production/startup.o
C1FIFOCI1SET                                      /Applications/microchip/mplabc32/v1.11a/bin/../lib/gcc/pic32mx/3.4.4/../../../../pic32mx/lib/./proc/32MX795F512L/processor.o
                                                  build/mega/production/startup.o
C1FIFOCI2                                         /Applications/microchip/mplabc32/v1.11a/bin/../lib/gcc/pic32mx/3.4.4/../../../../pic32mx/lib/./proc/32MX795F512L/processor.o
                                                  build/mega/production/startup.o
C1FIFOCI20                                        /Applications/microchip/mplabc32/v1.11a/bin/../lib/gcc/pic32mx/3.4.4/../../../../pic32mx/lib/./proc/32MX795F512L/processor.o
                                                  build/mega/production/startup.o
C1FIFOCI20CLR                                     /Applications/microchip/mplabc32/v1.11a/bin/../lib/gcc/pic32mx/3.4.4/../../../../pic32mx/lib/./proc/32MX795F512L/processor.o
                                                  build/mega/production/startup.o
C1FIFOCI20INV                                     /Applications/microchip/mplabc32/v1.11a/bin/../lib/gcc/pic32mx/3.4.4/../../../../pic32mx/lib/./proc/32MX795F512L/processor.o
                                                  build/mega/production/startup.o
C1FIFOCI20SET                                     /Applications/microchip/mplabc32/v1.11a/bin/../lib/gcc/pic32mx/3.4.4/../../../../pic32mx/lib/./proc/32MX795F512L/processor.o
                                                  build/mega/production/startup.o
C1FIFOCI21                                        /Applications/microchip/mplabc32/v1.11a/bin/../lib/gcc/pic32mx/3.4.4/../../../../pic32mx/lib/./proc/32MX795F512L/processor.o
                                                  build/mega/production/startup.o
C1FIFOCI21CLR                                     /Applications/microchip/mplabc32/v1.11a/bin/../lib/gcc/pic32mx/3.4.4/../../../../pic32mx/lib/./proc/32MX795F512L/processor.o
                                                  build/mega/production/startup.o
C1FIFOCI21INV                                     /Applications/microchip/mplabc32/v1.11a/bin/../lib/gcc/pic32mx/3.4.4/../../../../pic32mx/lib/./proc/32MX795F512L/processor.o
                                                  build/mega/production/startup.o
C1FIFOCI21SET                                     /Applications/microchip/mplabc32/v1.11a/bin/../lib/gcc/pic32mx/3.4.4/../../../../pic32mx/lib/./proc/32MX795F512L/processor.o
                                                  build/mega/production/startup.o
C1FIFOCI22                                        /Applications/microchip/mplabc32/v1.11a/bin/../lib/gcc/pic32mx/3.4.4/../../../../pic32mx/lib/./proc/32MX795F512L/processor.o
                                                  build/mega/production/startup.o
C1FIFOCI22CLR                                     /Applications/microchip/mplabc32/v1.11a/bin/../lib/gcc/pic32mx/3.4.4/../../../../pic32mx/lib/./proc/32MX795F512L/processor.o
                                                  build/mega/production/startup.o
C1FIFOCI22INV                                     /Applications/microchip/mplabc32/v1.11a/bin/../lib/gcc/pic32mx/3.4.4/../../../../pic32mx/lib/./proc/32MX795F512L/processor.o
                                                  build/mega/production/startup.o
C1FIFOCI22SET                                     /Applications/microchip/mplabc32/v1.11a/bin/../lib/gcc/pic32mx/3.4.4/../../../../pic32mx/lib/./proc/32MX795F512L/processor.o
                                                  build/mega/production/startup.o
C1FIFOCI23                                        /Applications/microchip/mplabc32/v1.11a/bin/../lib/gcc/pic32mx/3.4.4/../../../../pic32mx/lib/./proc/32MX795F512L/processor.o
                                                  build/mega/production/startup.o
C1FIFOCI23CLR                                     /Applications/microchip/mplabc32/v1.11a/bin/../lib/gcc/pic32mx/3.4.4/../../../../pic32mx/lib/./proc/32MX795F512L/processor.o
                                                  build/mega/production/startup.o
C1FIFOCI23INV                                     /Applications/microchip/mplabc32/v1.11a/bin/../lib/gcc/pic32mx/3.4.4/../../../../pic32mx/lib/./proc/32MX795F512L/processor.o
                                                  build/mega/production/startup.o
C1FIFOCI23SET                                     /Applications/microchip/mplabc32/v1.11a/bin/../lib/gcc/pic32mx/3.4.4/../../../../pic32mx/lib/./proc/32MX795F512L/processor.o
                                                  build/mega/production/startup.o
C1FIFOCI24                                        /Applications/microchip/mplabc32/v1.11a/bin/../lib/gcc/pic32mx/3.4.4/../../../../pic32mx/lib/./proc/32MX795F512L/processor.o
                                                  build/mega/production/startup.o
C1FIFOCI24CLR                                     /Applications/microchip/mplabc32/v1.11a/bin/../lib/gcc/pic32mx/3.4.4/../../../../pic32mx/lib/./proc/32MX795F512L/processor.o
                                                  build/mega/production/startup.o
C1FIFOCI24INV                                     /Applications/microchip/mplabc32/v1.11a/bin/../lib/gcc/pic32mx/3.4.4/../../../../pic32mx/lib/./proc/32MX795F512L/processor.o
                                                  build/mega/production/startup.o
C1FIFOCI24SET                                     /Applications/microchip/mplabc32/v1.11a/bin/../lib/gcc/pic32mx/3.4.4/../../../../pic32mx/lib/./proc/32MX795F512L/processor.o
                                                  build/mega/production/startup.o
C1FIFOCI25                                        /Applications/microchip/mplabc32/v1.11a/bin/../lib/gcc/pic32mx/3.4.4/../../../../pic32mx/lib/./proc/32MX795F512L/processor.o
                                                  build/mega/production/startup.o
C1FIFOCI25CLR                                     /Applications/microchip/mplabc32/v1.11a/bin/../lib/gcc/pic32mx/3.4.4/../../../../pic32mx/lib/./proc/32MX795F512L/processor.o
                                                  build/mega/production/startup.o
C1FIFOCI25INV                                     /Applications/microchip/mplabc32/v1.11a/bin/../lib/gcc/pic32mx/3.4.4/../../../../pic32mx/lib/./proc/32MX795F512L/processor.o
                                                  build/mega/production/startup.o
C1FIFOCI25SET                                     /Applications/microchip/mplabc32/v1.11a/bin/../lib/gcc/pic32mx/3.4.4/../../../../pic32mx/lib/./proc/32MX795F512L/processor.o
                                                  build/mega/production/startup.o
C1FIFOCI26                                        /Applications/microchip/mplabc32/v1.11a/bin/../lib/gcc/pic32mx/3.4.4/../../../../pic32mx/lib/./proc/32MX795F512L/processor.o
                                                  build/mega/production/startup.o
C1FIFOCI26CLR                                     /Applications/microchip/mplabc32/v1.11a/bin/../lib/gcc/pic32mx/3.4.4/../../../../pic32mx/lib/./proc/32MX795F512L/processor.o
                                                  build/mega/production/startup.o
C1FIFOCI26INV                                     /Applications/microchip/mplabc32/v1.11a/bin/../lib/gcc/pic32mx/3.4.4/../../../../pic32mx/lib/./proc/32MX795F512L/processor.o
                                                  build/mega/production/startup.o
C1FIFOCI26SET                                     /Applications/microchip/mplabc32/v1.11a/bin/../lib/gcc/pic32mx/3.4.4/../../../../pic32mx/lib/./proc/32MX795F512L/processor.o
                                                  build/mega/production/startup.o
C1FIFOCI27                                        /Applications/microchip/mplabc32/v1.11a/bin/../lib/gcc/pic32mx/3.4.4/../../../../pic32mx/lib/./proc/32MX795F512L/processor.o
                                                  build/mega/production/startup.o
C1FIFOCI27CLR                                     /Applications/microchip/mplabc32/v1.11a/bin/../lib/gcc/pic32mx/3.4.4/../../../../pic32mx/lib/./proc/32MX795F512L/processor.o
                                                  build/mega/production/startup.o
C1FIFOCI27INV                                     /Applications/microchip/mplabc32/v1.11a/bin/../lib/gcc/pic32mx/3.4.4/../../../../pic32mx/lib/./proc/32MX795F512L/processor.o
                                                  build/mega/production/startup.o
C1FIFOCI27SET                                     /Applications/microchip/mplabc32/v1.11a/bin/../lib/gcc/pic32mx/3.4.4/../../../../pic32mx/lib/./proc/32MX795F512L/processor.o
                                                  build/mega/production/startup.o
C1FIFOCI28                                        /Applications/microchip/mplabc32/v1.11a/bin/../lib/gcc/pic32mx/3.4.4/../../../../pic32mx/lib/./proc/32MX795F512L/processor.o
                                                  build/mega/production/startup.o
C1FIFOCI28CLR                                     /Applications/microchip/mplabc32/v1.11a/bin/../lib/gcc/pic32mx/3.4.4/../../../../pic32mx/lib/./proc/32MX795F512L/processor.o
                                                  build/mega/production/startup.o
C1FIFOCI28INV                                     /Applications/microchip/mplabc32/v1.11a/bin/../lib/gcc/pic32mx/3.4.4/../../../../pic32mx/lib/./proc/32MX795F512L/processor.o
                                                  build/mega/production/startup.o
C1FIFOCI28SET                                     /Applications/microchip/mplabc32/v1.11a/bin/../lib/gcc/pic32mx/3.4.4/../../../../pic32mx/lib/./proc/32MX795F512L/processor.o
                                                  build/mega/production/startup.o
C1FIFOCI29                                        /Applications/microchip/mplabc32/v1.11a/bin/../lib/gcc/pic32mx/3.4.4/../../../../pic32mx/lib/./proc/32MX795F512L/processor.o
                                                  build/mega/production/startup.o
C1FIFOCI29CLR                                     /Applications/microchip/mplabc32/v1.11a/bin/../lib/gcc/pic32mx/3.4.4/../../../../pic32mx/lib/./proc/32MX795F512L/processor.o
                                                  build/mega/production/startup.o
C1FIFOCI29INV                                     /Applications/microchip/mplabc32/v1.11a/bin/../lib/gcc/pic32mx/3.4.4/../../../../pic32mx/lib/./proc/32MX795F512L/processor.o
                                                  build/mega/production/startup.o
C1FIFOCI29SET                                     /Applications/microchip/mplabc32/v1.11a/bin/../lib/gcc/pic32mx/3.4.4/../../../../pic32mx/lib/./proc/32MX795F512L/processor.o
                                                  build/mega/production/startup.o
C1FIFOCI2CLR                                      /Applications/microchip/mplabc32/v1.11a/bin/../lib/gcc/pic32mx/3.4.4/../../../../pic32mx/lib/./proc/32MX795F512L/processor.o
                                                  build/mega/production/startup.o
C1FIFOCI2INV                                      /Applications/microchip/mplabc32/v1.11a/bin/../lib/gcc/pic32mx/3.4.4/../../../../pic32mx/lib/./proc/32MX795F512L/processor.o
                                                  build/mega/production/startup.o
C1FIFOCI2SET                                      /Applications/microchip/mplabc32/v1.11a/bin/../lib/gcc/pic32mx/3.4.4/../../../../pic32mx/lib/./proc/32MX795F512L/processor.o
                                                  build/mega/production/startup.o
C1FIFOCI3                                         /Applications/microchip/mplabc32/v1.11a/bin/../lib/gcc/pic32mx/3.4.4/../../../../pic32mx/lib/./proc/32MX795F512L/processor.o
                                                  build/mega/production/startup.o
C1FIFOCI30                                        /Applications/microchip/mplabc32/v1.11a/bin/../lib/gcc/pic32mx/3.4.4/../../../../pic32mx/lib/./proc/32MX795F512L/processor.o
                                                  build/mega/production/startup.o
C1FIFOCI30CLR                                     /Applications/microchip/mplabc32/v1.11a/bin/../lib/gcc/pic32mx/3.4.4/../../../../pic32mx/lib/./proc/32MX795F512L/processor.o
                                                  build/mega/production/startup.o
C1FIFOCI30INV                                     /Applications/microchip/mplabc32/v1.11a/bin/../lib/gcc/pic32mx/3.4.4/../../../../pic32mx/lib/./proc/32MX795F512L/processor.o
                                                  build/mega/production/startup.o
C1FIFOCI30SET                                     /Applications/microchip/mplabc32/v1.11a/bin/../lib/gcc/pic32mx/3.4.4/../../../../pic32mx/lib/./proc/32MX795F512L/processor.o
                                                  build/mega/production/startup.o
C1FIFOCI31                                        /Applications/microchip/mplabc32/v1.11a/bin/../lib/gcc/pic32mx/3.4.4/../../../../pic32mx/lib/./proc/32MX795F512L/processor.o
                                                  build/mega/production/startup.o
C1FIFOCI31CLR                                     /Applications/microchip/mplabc32/v1.11a/bin/../lib/gcc/pic32mx/3.4.4/../../../../pic32mx/lib/./proc/32MX795F512L/processor.o
                                                  build/mega/production/startup.o
C1FIFOCI31INV                                     /Applications/microchip/mplabc32/v1.11a/bin/../lib/gcc/pic32mx/3.4.4/../../../../pic32mx/lib/./proc/32MX795F512L/processor.o
                                                  build/mega/production/startup.o
C1FIFOCI31SET                                     /Applications/microchip/mplabc32/v1.11a/bin/../lib/gcc/pic32mx/3.4.4/../../../../pic32mx/lib/./proc/32MX795F512L/processor.o
                                                  build/mega/production/startup.o
C1FIFOCI3CLR                                      /Applications/microchip/mplabc32/v1.11a/bin/../lib/gcc/pic32mx/3.4.4/../../../../pic32mx/lib/./proc/32MX795F512L/processor.o
                                                  build/mega/production/startup.o
C1FIFOCI3INV                                      /Applications/microchip/mplabc32/v1.11a/bin/../lib/gcc/pic32mx/3.4.4/../../../../pic32mx/lib/./proc/32MX795F512L/processor.o
                                                  build/mega/production/startup.o
C1FIFOCI3SET                                      /Applications/microchip/mplabc32/v1.11a/bin/../lib/gcc/pic32mx/3.4.4/../../../../pic32mx/lib/./proc/32MX795F512L/processor.o
                                                  build/mega/production/startup.o
C1FIFOCI4                                         /Applications/microchip/mplabc32/v1.11a/bin/../lib/gcc/pic32mx/3.4.4/../../../../pic32mx/lib/./proc/32MX795F512L/processor.o
                                                  build/mega/production/startup.o
C1FIFOCI4CLR                                      /Applications/microchip/mplabc32/v1.11a/bin/../lib/gcc/pic32mx/3.4.4/../../../../pic32mx/lib/./proc/32MX795F512L/processor.o
                                                  build/mega/production/startup.o
C1FIFOCI4INV                                      /Applications/microchip/mplabc32/v1.11a/bin/../lib/gcc/pic32mx/3.4.4/../../../../pic32mx/lib/./proc/32MX795F512L/processor.o
                                                  build/mega/production/startup.o
C1FIFOCI4SET                                      /Applications/microchip/mplabc32/v1.11a/bin/../lib/gcc/pic32mx/3.4.4/../../../../pic32mx/lib/./proc/32MX795F512L/processor.o
                                                  build/mega/production/startup.o
C1FIFOCI5                                         /Applications/microchip/mplabc32/v1.11a/bin/../lib/gcc/pic32mx/3.4.4/../../../../pic32mx/lib/./proc/32MX795F512L/processor.o
                                                  build/mega/production/startup.o
C1FIFOCI5CLR                                      /Applications/microchip/mplabc32/v1.11a/bin/../lib/gcc/pic32mx/3.4.4/../../../../pic32mx/lib/./proc/32MX795F512L/processor.o
                                                  build/mega/production/startup.o
C1FIFOCI5INV                                      /Applications/microchip/mplabc32/v1.11a/bin/../lib/gcc/pic32mx/3.4.4/../../../../pic32mx/lib/./proc/32MX795F512L/processor.o
                                                  build/mega/production/startup.o
C1FIFOCI5SET                                      /Applications/microchip/mplabc32/v1.11a/bin/../lib/gcc/pic32mx/3.4.4/../../../../pic32mx/lib/./proc/32MX795F512L/processor.o
                                                  build/mega/production/startup.o
C1FIFOCI6                                         /Applications/microchip/mplabc32/v1.11a/bin/../lib/gcc/pic32mx/3.4.4/../../../../pic32mx/lib/./proc/32MX795F512L/processor.o
                                                  build/mega/production/startup.o
C1FIFOCI6CLR                                      /Applications/microchip/mplabc32/v1.11a/bin/../lib/gcc/pic32mx/3.4.4/../../../../pic32mx/lib/./proc/32MX795F512L/processor.o
                                                  build/mega/production/startup.o
C1FIFOCI6INV                                      /Applications/microchip/mplabc32/v1.11a/bin/../lib/gcc/pic32mx/3.4.4/../../../../pic32mx/lib/./proc/32MX795F512L/processor.o
                                                  build/mega/production/startup.o
C1FIFOCI6SET                                      /Applications/microchip/mplabc32/v1.11a/bin/../lib/gcc/pic32mx/3.4.4/../../../../pic32mx/lib/./proc/32MX795F512L/processor.o
                                                  build/mega/production/startup.o
C1FIFOCI7                                         /Applications/microchip/mplabc32/v1.11a/bin/../lib/gcc/pic32mx/3.4.4/../../../../pic32mx/lib/./proc/32MX795F512L/processor.o
                                                  build/mega/production/startup.o
C1FIFOCI7CLR                                      /Applications/microchip/mplabc32/v1.11a/bin/../lib/gcc/pic32mx/3.4.4/../../../../pic32mx/lib/./proc/32MX795F512L/processor.o
                                                  build/mega/production/startup.o
C1FIFOCI7INV                                      /Applications/microchip/mplabc32/v1.11a/bin/../lib/gcc/pic32mx/3.4.4/../../../../pic32mx/lib/./proc/32MX795F512L/processor.o
                                                  build/mega/production/startup.o
C1FIFOCI7SET                                      /Applications/microchip/mplabc32/v1.11a/bin/../lib/gcc/pic32mx/3.4.4/../../../../pic32mx/lib/./proc/32MX795F512L/processor.o
                                                  build/mega/production/startup.o
C1FIFOCI8                                         /Applications/microchip/mplabc32/v1.11a/bin/../lib/gcc/pic32mx/3.4.4/../../../../pic32mx/lib/./proc/32MX795F512L/processor.o
                                                  build/mega/production/startup.o
C1FIFOCI8CLR                                      /Applications/microchip/mplabc32/v1.11a/bin/../lib/gcc/pic32mx/3.4.4/../../../../pic32mx/lib/./proc/32MX795F512L/processor.o
                                                  build/mega/production/startup.o
C1FIFOCI8INV                                      /Applications/microchip/mplabc32/v1.11a/bin/../lib/gcc/pic32mx/3.4.4/../../../../pic32mx/lib/./proc/32MX795F512L/processor.o
                                                  build/mega/production/startup.o
C1FIFOCI8SET                                      /Applications/microchip/mplabc32/v1.11a/bin/../lib/gcc/pic32mx/3.4.4/../../../../pic32mx/lib/./proc/32MX795F512L/processor.o
                                                  build/mega/production/startup.o
C1FIFOCI9                                         /Applications/microchip/mplabc32/v1.11a/bin/../lib/gcc/pic32mx/3.4.4/../../../../pic32mx/lib/./proc/32MX795F512L/processor.o
                                                  build/mega/production/startup.o
C1FIFOCI9CLR                                      /Applications/microchip/mplabc32/v1.11a/bin/../lib/gcc/pic32mx/3.4.4/../../../../pic32mx/lib/./proc/32MX795F512L/processor.o
                                                  build/mega/production/startup.o
C1FIFOCI9INV                                      /Applications/microchip/mplabc32/v1.11a/bin/../lib/gcc/pic32mx/3.4.4/../../../../pic32mx/lib/./proc/32MX795F512L/processor.o
                                                  build/mega/production/startup.o
C1FIFOCI9SET                                      /Applications/microchip/mplabc32/v1.11a/bin/../lib/gcc/pic32mx/3.4.4/../../../../pic32mx/lib/./proc/32MX795F512L/processor.o
                                                  build/mega/production/startup.o
C1FIFOCON0                                        /Applications/microchip/mplabc32/v1.11a/bin/../lib/gcc/pic32mx/3.4.4/../../../../pic32mx/lib/./proc/32MX795F512L/processor.o
                                                  build/mega/production/startup.o
C1FIFOCON0CLR                                     /Applications/microchip/mplabc32/v1.11a/bin/../lib/gcc/pic32mx/3.4.4/../../../../pic32mx/lib/./proc/32MX795F512L/processor.o
                                                  build/mega/production/startup.o
C1FIFOCON0INV                                     /Applications/microchip/mplabc32/v1.11a/bin/../lib/gcc/pic32mx/3.4.4/../../../../pic32mx/lib/./proc/32MX795F512L/processor.o
                                                  build/mega/production/startup.o
C1FIFOCON0SET                                     /Applications/microchip/mplabc32/v1.11a/bin/../lib/gcc/pic32mx/3.4.4/../../../../pic32mx/lib/./proc/32MX795F512L/processor.o
                                                  build/mega/production/startup.o
C1FIFOCON1                                        /Applications/microchip/mplabc32/v1.11a/bin/../lib/gcc/pic32mx/3.4.4/../../../../pic32mx/lib/./proc/32MX795F512L/processor.o
                                                  build/mega/production/startup.o
C1FIFOCON10                                       /Applications/microchip/mplabc32/v1.11a/bin/../lib/gcc/pic32mx/3.4.4/../../../../pic32mx/lib/./proc/32MX795F512L/processor.o
                                                  build/mega/production/startup.o
C1FIFOCON10CLR                                    /Applications/microchip/mplabc32/v1.11a/bin/../lib/gcc/pic32mx/3.4.4/../../../../pic32mx/lib/./proc/32MX795F512L/processor.o
                                                  build/mega/production/startup.o
C1FIFOCON10INV                                    /Applications/microchip/mplabc32/v1.11a/bin/../lib/gcc/pic32mx/3.4.4/../../../../pic32mx/lib/./proc/32MX795F512L/processor.o
                                                  build/mega/production/startup.o
C1FIFOCON10SET                                    /Applications/microchip/mplabc32/v1.11a/bin/../lib/gcc/pic32mx/3.4.4/../../../../pic32mx/lib/./proc/32MX795F512L/processor.o
                                                  build/mega/production/startup.o
C1FIFOCON11                                       /Applications/microchip/mplabc32/v1.11a/bin/../lib/gcc/pic32mx/3.4.4/../../../../pic32mx/lib/./proc/32MX795F512L/processor.o
                                                  build/mega/production/startup.o
C1FIFOCON11CLR                                    /Applications/microchip/mplabc32/v1.11a/bin/../lib/gcc/pic32mx/3.4.4/../../../../pic32mx/lib/./proc/32MX795F512L/processor.o
                                                  build/mega/production/startup.o
C1FIFOCON11INV                                    /Applications/microchip/mplabc32/v1.11a/bin/../lib/gcc/pic32mx/3.4.4/../../../../pic32mx/lib/./proc/32MX795F512L/processor.o
                                                  build/mega/production/startup.o
C1FIFOCON11SET                                    /Applications/microchip/mplabc32/v1.11a/bin/../lib/gcc/pic32mx/3.4.4/../../../../pic32mx/lib/./proc/32MX795F512L/processor.o
                                                  build/mega/production/startup.o
C1FIFOCON12                                       /Applications/microchip/mplabc32/v1.11a/bin/../lib/gcc/pic32mx/3.4.4/../../../../pic32mx/lib/./proc/32MX795F512L/processor.o
                                                  build/mega/production/startup.o
C1FIFOCON12CLR                                    /Applications/microchip/mplabc32/v1.11a/bin/../lib/gcc/pic32mx/3.4.4/../../../../pic32mx/lib/./proc/32MX795F512L/processor.o
                                                  build/mega/production/startup.o
C1FIFOCON12INV                                    /Applications/microchip/mplabc32/v1.11a/bin/../lib/gcc/pic32mx/3.4.4/../../../../pic32mx/lib/./proc/32MX795F512L/processor.o
                                                  build/mega/production/startup.o
C1FIFOCON12SET                                    /Applications/microchip/mplabc32/v1.11a/bin/../lib/gcc/pic32mx/3.4.4/../../../../pic32mx/lib/./proc/32MX795F512L/processor.o
                                                  build/mega/production/startup.o
C1FIFOCON13                                       /Applications/microchip/mplabc32/v1.11a/bin/../lib/gcc/pic32mx/3.4.4/../../../../pic32mx/lib/./proc/32MX795F512L/processor.o
                                                  build/mega/production/startup.o
C1FIFOCON13CLR                                    /Applications/microchip/mplabc32/v1.11a/bin/../lib/gcc/pic32mx/3.4.4/../../../../pic32mx/lib/./proc/32MX795F512L/processor.o
                                                  build/mega/production/startup.o
C1FIFOCON13INV                                    /Applications/microchip/mplabc32/v1.11a/bin/../lib/gcc/pic32mx/3.4.4/../../../../pic32mx/lib/./proc/32MX795F512L/processor.o
                                                  build/mega/production/startup.o
C1FIFOCON13SET                                    /Applications/microchip/mplabc32/v1.11a/bin/../lib/gcc/pic32mx/3.4.4/../../../../pic32mx/lib/./proc/32MX795F512L/processor.o
                                                  build/mega/production/startup.o
C1FIFOCON14                                       /Applications/microchip/mplabc32/v1.11a/bin/../lib/gcc/pic32mx/3.4.4/../../../../pic32mx/lib/./proc/32MX795F512L/processor.o
                                                  build/mega/production/startup.o
C1FIFOCON14CLR                                    /Applications/microchip/mplabc32/v1.11a/bin/../lib/gcc/pic32mx/3.4.4/../../../../pic32mx/lib/./proc/32MX795F512L/processor.o
                                                  build/mega/production/startup.o
C1FIFOCON14INV                                    /Applications/microchip/mplabc32/v1.11a/bin/../lib/gcc/pic32mx/3.4.4/../../../../pic32mx/lib/./proc/32MX795F512L/processor.o
                                                  build/mega/production/startup.o
C1FIFOCON14SET                                    /Applications/microchip/mplabc32/v1.11a/bin/../lib/gcc/pic32mx/3.4.4/../../../../pic32mx/lib/./proc/32MX795F512L/processor.o
                                                  build/mega/production/startup.o
C1FIFOCON15                                       /Applications/microchip/mplabc32/v1.11a/bin/../lib/gcc/pic32mx/3.4.4/../../../../pic32mx/lib/./proc/32MX795F512L/processor.o
                                                  build/mega/production/startup.o
C1FIFOCON15CLR                                    /Applications/microchip/mplabc32/v1.11a/bin/../lib/gcc/pic32mx/3.4.4/../../../../pic32mx/lib/./proc/32MX795F512L/processor.o
                                                  build/mega/production/startup.o
C1FIFOCON15INV                                    /Applications/microchip/mplabc32/v1.11a/bin/../lib/gcc/pic32mx/3.4.4/../../../../pic32mx/lib/./proc/32MX795F512L/processor.o
                                                  build/mega/production/startup.o
C1FIFOCON15SET                                    /Applications/microchip/mplabc32/v1.11a/bin/../lib/gcc/pic32mx/3.4.4/../../../../pic32mx/lib/./proc/32MX795F512L/processor.o
                                                  build/mega/production/startup.o
C1FIFOCON16                                       /Applications/microchip/mplabc32/v1.11a/bin/../lib/gcc/pic32mx/3.4.4/../../../../pic32mx/lib/./proc/32MX795F512L/processor.o
                                                  build/mega/production/startup.o
C1FIFOCON16CLR                                    /Applications/microchip/mplabc32/v1.11a/bin/../lib/gcc/pic32mx/3.4.4/../../../../pic32mx/lib/./proc/32MX795F512L/processor.o
                                                  build/mega/production/startup.o
C1FIFOCON16INV                                    /Applications/microchip/mplabc32/v1.11a/bin/../lib/gcc/pic32mx/3.4.4/../../../../pic32mx/lib/./proc/32MX795F512L/processor.o
                                                  build/mega/production/startup.o
C1FIFOCON16SET                                    /Applications/microchip/mplabc32/v1.11a/bin/../lib/gcc/pic32mx/3.4.4/../../../../pic32mx/lib/./proc/32MX795F512L/processor.o
                                                  build/mega/production/startup.o
C1FIFOCON17                                       /Applications/microchip/mplabc32/v1.11a/bin/../lib/gcc/pic32mx/3.4.4/../../../../pic32mx/lib/./proc/32MX795F512L/processor.o
                                                  build/mega/production/startup.o
C1FIFOCON17CLR                                    /Applications/microchip/mplabc32/v1.11a/bin/../lib/gcc/pic32mx/3.4.4/../../../../pic32mx/lib/./proc/32MX795F512L/processor.o
                                                  build/mega/production/startup.o
C1FIFOCON17INV                                    /Applications/microchip/mplabc32/v1.11a/bin/../lib/gcc/pic32mx/3.4.4/../../../../pic32mx/lib/./proc/32MX795F512L/processor.o
                                                  build/mega/production/startup.o
C1FIFOCON17SET                                    /Applications/microchip/mplabc32/v1.11a/bin/../lib/gcc/pic32mx/3.4.4/../../../../pic32mx/lib/./proc/32MX795F512L/processor.o
                                                  build/mega/production/startup.o
C1FIFOCON18                                       /Applications/microchip/mplabc32/v1.11a/bin/../lib/gcc/pic32mx/3.4.4/../../../../pic32mx/lib/./proc/32MX795F512L/processor.o
                                                  build/mega/production/startup.o
C1FIFOCON18CLR                                    /Applications/microchip/mplabc32/v1.11a/bin/../lib/gcc/pic32mx/3.4.4/../../../../pic32mx/lib/./proc/32MX795F512L/processor.o
                                                  build/mega/production/startup.o
C1FIFOCON18INV                                    /Applications/microchip/mplabc32/v1.11a/bin/../lib/gcc/pic32mx/3.4.4/../../../../pic32mx/lib/./proc/32MX795F512L/processor.o
                                                  build/mega/production/startup.o
C1FIFOCON18SET                                    /Applications/microchip/mplabc32/v1.11a/bin/../lib/gcc/pic32mx/3.4.4/../../../../pic32mx/lib/./proc/32MX795F512L/processor.o
                                                  build/mega/production/startup.o
C1FIFOCON19                                       /Applications/microchip/mplabc32/v1.11a/bin/../lib/gcc/pic32mx/3.4.4/../../../../pic32mx/lib/./proc/32MX795F512L/processor.o
                                                  build/mega/production/startup.o
C1FIFOCON19CLR                                    /Applications/microchip/mplabc32/v1.11a/bin/../lib/gcc/pic32mx/3.4.4/../../../../pic32mx/lib/./proc/32MX795F512L/processor.o
                                                  build/mega/production/startup.o
C1FIFOCON19INV                                    /Applications/microchip/mplabc32/v1.11a/bin/../lib/gcc/pic32mx/3.4.4/../../../../pic32mx/lib/./proc/32MX795F512L/processor.o
                                                  build/mega/production/startup.o
C1FIFOCON19SET                                    /Applications/microchip/mplabc32/v1.11a/bin/../lib/gcc/pic32mx/3.4.4/../../../../pic32mx/lib/./proc/32MX795F512L/processor.o
                                                  build/mega/production/startup.o
C1FIFOCON1CLR                                     /Applications/microchip/mplabc32/v1.11a/bin/../lib/gcc/pic32mx/3.4.4/../../../../pic32mx/lib/./proc/32MX795F512L/processor.o
                                                  build/mega/production/startup.o
C1FIFOCON1INV                                     /Applications/microchip/mplabc32/v1.11a/bin/../lib/gcc/pic32mx/3.4.4/../../../../pic32mx/lib/./proc/32MX795F512L/processor.o
                                                  build/mega/production/startup.o
C1FIFOCON1SET                                     /Applications/microchip/mplabc32/v1.11a/bin/../lib/gcc/pic32mx/3.4.4/../../../../pic32mx/lib/./proc/32MX795F512L/processor.o
                                                  build/mega/production/startup.o
C1FIFOCON2                                        /Applications/microchip/mplabc32/v1.11a/bin/../lib/gcc/pic32mx/3.4.4/../../../../pic32mx/lib/./proc/32MX795F512L/processor.o
                                                  build/mega/production/startup.o
C1FIFOCON20                                       /Applications/microchip/mplabc32/v1.11a/bin/../lib/gcc/pic32mx/3.4.4/../../../../pic32mx/lib/./proc/32MX795F512L/processor.o
                                                  build/mega/production/startup.o
C1FIFOCON20CLR                                    /Applications/microchip/mplabc32/v1.11a/bin/../lib/gcc/pic32mx/3.4.4/../../../../pic32mx/lib/./proc/32MX795F512L/processor.o
                                                  build/mega/production/startup.o
C1FIFOCON20INV                                    /Applications/microchip/mplabc32/v1.11a/bin/../lib/gcc/pic32mx/3.4.4/../../../../pic32mx/lib/./proc/32MX795F512L/processor.o
                                                  build/mega/production/startup.o
C1FIFOCON20SET                                    /Applications/microchip/mplabc32/v1.11a/bin/../lib/gcc/pic32mx/3.4.4/../../../../pic32mx/lib/./proc/32MX795F512L/processor.o
                                                  build/mega/production/startup.o
C1FIFOCON21                                       /Applications/microchip/mplabc32/v1.11a/bin/../lib/gcc/pic32mx/3.4.4/../../../../pic32mx/lib/./proc/32MX795F512L/processor.o
                                                  build/mega/production/startup.o
C1FIFOCON21CLR                                    /Applications/microchip/mplabc32/v1.11a/bin/../lib/gcc/pic32mx/3.4.4/../../../../pic32mx/lib/./proc/32MX795F512L/processor.o
                                                  build/mega/production/startup.o
C1FIFOCON21INV                                    /Applications/microchip/mplabc32/v1.11a/bin/../lib/gcc/pic32mx/3.4.4/../../../../pic32mx/lib/./proc/32MX795F512L/processor.o
                                                  build/mega/production/startup.o
C1FIFOCON21SET                                    /Applications/microchip/mplabc32/v1.11a/bin/../lib/gcc/pic32mx/3.4.4/../../../../pic32mx/lib/./proc/32MX795F512L/processor.o
                                                  build/mega/production/startup.o
C1FIFOCON22                                       /Applications/microchip/mplabc32/v1.11a/bin/../lib/gcc/pic32mx/3.4.4/../../../../pic32mx/lib/./proc/32MX795F512L/processor.o
                                                  build/mega/production/startup.o
C1FIFOCON22CLR                                    /Applications/microchip/mplabc32/v1.11a/bin/../lib/gcc/pic32mx/3.4.4/../../../../pic32mx/lib/./proc/32MX795F512L/processor.o
                                                  build/mega/production/startup.o
C1FIFOCON22INV                                    /Applications/microchip/mplabc32/v1.11a/bin/../lib/gcc/pic32mx/3.4.4/../../../../pic32mx/lib/./proc/32MX795F512L/processor.o
                                                  build/mega/production/startup.o
C1FIFOCON22SET                                    /Applications/microchip/mplabc32/v1.11a/bin/../lib/gcc/pic32mx/3.4.4/../../../../pic32mx/lib/./proc/32MX795F512L/processor.o
                                                  build/mega/production/startup.o
C1FIFOCON23                                       /Applications/microchip/mplabc32/v1.11a/bin/../lib/gcc/pic32mx/3.4.4/../../../../pic32mx/lib/./proc/32MX795F512L/processor.o
                                                  build/mega/production/startup.o
C1FIFOCON23CLR                                    /Applications/microchip/mplabc32/v1.11a/bin/../lib/gcc/pic32mx/3.4.4/../../../../pic32mx/lib/./proc/32MX795F512L/processor.o
                                                  build/mega/production/startup.o
C1FIFOCON23INV                                    /Applications/microchip/mplabc32/v1.11a/bin/../lib/gcc/pic32mx/3.4.4/../../../../pic32mx/lib/./proc/32MX795F512L/processor.o
                                                  build/mega/production/startup.o
C1FIFOCON23SET                                    /Applications/microchip/mplabc32/v1.11a/bin/../lib/gcc/pic32mx/3.4.4/../../../../pic32mx/lib/./proc/32MX795F512L/processor.o
                                                  build/mega/production/startup.o
C1FIFOCON24                                       /Applications/microchip/mplabc32/v1.11a/bin/../lib/gcc/pic32mx/3.4.4/../../../../pic32mx/lib/./proc/32MX795F512L/processor.o
                                                  build/mega/production/startup.o
C1FIFOCON24CLR                                    /Applications/microchip/mplabc32/v1.11a/bin/../lib/gcc/pic32mx/3.4.4/../../../../pic32mx/lib/./proc/32MX795F512L/processor.o
                                                  build/mega/production/startup.o
C1FIFOCON24INV                                    /Applications/microchip/mplabc32/v1.11a/bin/../lib/gcc/pic32mx/3.4.4/../../../../pic32mx/lib/./proc/32MX795F512L/processor.o
                                                  build/mega/production/startup.o
C1FIFOCON24SET                                    /Applications/microchip/mplabc32/v1.11a/bin/../lib/gcc/pic32mx/3.4.4/../../../../pic32mx/lib/./proc/32MX795F512L/processor.o
                                                  build/mega/production/startup.o
C1FIFOCON25                                       /Applications/microchip/mplabc32/v1.11a/bin/../lib/gcc/pic32mx/3.4.4/../../../../pic32mx/lib/./proc/32MX795F512L/processor.o
                                                  build/mega/production/startup.o
C1FIFOCON25CLR                                    /Applications/microchip/mplabc32/v1.11a/bin/../lib/gcc/pic32mx/3.4.4/../../../../pic32mx/lib/./proc/32MX795F512L/processor.o
                                                  build/mega/production/startup.o
C1FIFOCON25INV                                    /Applications/microchip/mplabc32/v1.11a/bin/../lib/gcc/pic32mx/3.4.4/../../../../pic32mx/lib/./proc/32MX795F512L/processor.o
                                                  build/mega/production/startup.o
C1FIFOCON25SET                                    /Applications/microchip/mplabc32/v1.11a/bin/../lib/gcc/pic32mx/3.4.4/../../../../pic32mx/lib/./proc/32MX795F512L/processor.o
                                                  build/mega/production/startup.o
C1FIFOCON26                                       /Applications/microchip/mplabc32/v1.11a/bin/../lib/gcc/pic32mx/3.4.4/../../../../pic32mx/lib/./proc/32MX795F512L/processor.o
                                                  build/mega/production/startup.o
C1FIFOCON26CLR                                    /Applications/microchip/mplabc32/v1.11a/bin/../lib/gcc/pic32mx/3.4.4/../../../../pic32mx/lib/./proc/32MX795F512L/processor.o
                                                  build/mega/production/startup.o
C1FIFOCON26INV                                    /Applications/microchip/mplabc32/v1.11a/bin/../lib/gcc/pic32mx/3.4.4/../../../../pic32mx/lib/./proc/32MX795F512L/processor.o
                                                  build/mega/production/startup.o
C1FIFOCON26SET                                    /Applications/microchip/mplabc32/v1.11a/bin/../lib/gcc/pic32mx/3.4.4/../../../../pic32mx/lib/./proc/32MX795F512L/processor.o
                                                  build/mega/production/startup.o
C1FIFOCON27                                       /Applications/microchip/mplabc32/v1.11a/bin/../lib/gcc/pic32mx/3.4.4/../../../../pic32mx/lib/./proc/32MX795F512L/processor.o
                                                  build/mega/production/startup.o
C1FIFOCON27CLR                                    /Applications/microchip/mplabc32/v1.11a/bin/../lib/gcc/pic32mx/3.4.4/../../../../pic32mx/lib/./proc/32MX795F512L/processor.o
                                                  build/mega/production/startup.o
C1FIFOCON27INV                                    /Applications/microchip/mplabc32/v1.11a/bin/../lib/gcc/pic32mx/3.4.4/../../../../pic32mx/lib/./proc/32MX795F512L/processor.o
                                                  build/mega/production/startup.o
C1FIFOCON27SET                                    /Applications/microchip/mplabc32/v1.11a/bin/../lib/gcc/pic32mx/3.4.4/../../../../pic32mx/lib/./proc/32MX795F512L/processor.o
                                                  build/mega/production/startup.o
C1FIFOCON28                                       /Applications/microchip/mplabc32/v1.11a/bin/../lib/gcc/pic32mx/3.4.4/../../../../pic32mx/lib/./proc/32MX795F512L/processor.o
                                                  build/mega/production/startup.o
C1FIFOCON28CLR                                    /Applications/microchip/mplabc32/v1.11a/bin/../lib/gcc/pic32mx/3.4.4/../../../../pic32mx/lib/./proc/32MX795F512L/processor.o
                                                  build/mega/production/startup.o
C1FIFOCON28INV                                    /Applications/microchip/mplabc32/v1.11a/bin/../lib/gcc/pic32mx/3.4.4/../../../../pic32mx/lib/./proc/32MX795F512L/processor.o
                                                  build/mega/production/startup.o
C1FIFOCON28SET                                    /Applications/microchip/mplabc32/v1.11a/bin/../lib/gcc/pic32mx/3.4.4/../../../../pic32mx/lib/./proc/32MX795F512L/processor.o
                                                  build/mega/production/startup.o
C1FIFOCON29                                       /Applications/microchip/mplabc32/v1.11a/bin/../lib/gcc/pic32mx/3.4.4/../../../../pic32mx/lib/./proc/32MX795F512L/processor.o
                                                  build/mega/production/startup.o
C1FIFOCON29CLR                                    /Applications/microchip/mplabc32/v1.11a/bin/../lib/gcc/pic32mx/3.4.4/../../../../pic32mx/lib/./proc/32MX795F512L/processor.o
                                                  build/mega/production/startup.o
C1FIFOCON29INV                                    /Applications/microchip/mplabc32/v1.11a/bin/../lib/gcc/pic32mx/3.4.4/../../../../pic32mx/lib/./proc/32MX795F512L/processor.o
                                                  build/mega/production/startup.o
C1FIFOCON29SET                                    /Applications/microchip/mplabc32/v1.11a/bin/../lib/gcc/pic32mx/3.4.4/../../../../pic32mx/lib/./proc/32MX795F512L/processor.o
                                                  build/mega/production/startup.o
C1FIFOCON2CLR                                     /Applications/microchip/mplabc32/v1.11a/bin/../lib/gcc/pic32mx/3.4.4/../../../../pic32mx/lib/./proc/32MX795F512L/processor.o
                                                  build/mega/production/startup.o
C1FIFOCON2INV                                     /Applications/microchip/mplabc32/v1.11a/bin/../lib/gcc/pic32mx/3.4.4/../../../../pic32mx/lib/./proc/32MX795F512L/processor.o
                                                  build/mega/production/startup.o
C1FIFOCON2SET                                     /Applications/microchip/mplabc32/v1.11a/bin/../lib/gcc/pic32mx/3.4.4/../../../../pic32mx/lib/./proc/32MX795F512L/processor.o
                                                  build/mega/production/startup.o
C1FIFOCON3                                        /Applications/microchip/mplabc32/v1.11a/bin/../lib/gcc/pic32mx/3.4.4/../../../../pic32mx/lib/./proc/32MX795F512L/processor.o
                                                  build/mega/production/startup.o
C1FIFOCON30                                       /Applications/microchip/mplabc32/v1.11a/bin/../lib/gcc/pic32mx/3.4.4/../../../../pic32mx/lib/./proc/32MX795F512L/processor.o
                                                  build/mega/production/startup.o
C1FIFOCON30CLR                                    /Applications/microchip/mplabc32/v1.11a/bin/../lib/gcc/pic32mx/3.4.4/../../../../pic32mx/lib/./proc/32MX795F512L/processor.o
                                                  build/mega/production/startup.o
C1FIFOCON30INV                                    /Applications/microchip/mplabc32/v1.11a/bin/../lib/gcc/pic32mx/3.4.4/../../../../pic32mx/lib/./proc/32MX795F512L/processor.o
                                                  build/mega/production/startup.o
C1FIFOCON30SET                                    /Applications/microchip/mplabc32/v1.11a/bin/../lib/gcc/pic32mx/3.4.4/../../../../pic32mx/lib/./proc/32MX795F512L/processor.o
                                                  build/mega/production/startup.o
C1FIFOCON31                                       /Applications/microchip/mplabc32/v1.11a/bin/../lib/gcc/pic32mx/3.4.4/../../../../pic32mx/lib/./proc/32MX795F512L/processor.o
                                                  build/mega/production/startup.o
C1FIFOCON31CLR                                    /Applications/microchip/mplabc32/v1.11a/bin/../lib/gcc/pic32mx/3.4.4/../../../../pic32mx/lib/./proc/32MX795F512L/processor.o
                                                  build/mega/production/startup.o
C1FIFOCON31INV                                    /Applications/microchip/mplabc32/v1.11a/bin/../lib/gcc/pic32mx/3.4.4/../../../../pic32mx/lib/./proc/32MX795F512L/processor.o
                                                  build/mega/production/startup.o
C1FIFOCON31SET                                    /Applications/microchip/mplabc32/v1.11a/bin/../lib/gcc/pic32mx/3.4.4/../../../../pic32mx/lib/./proc/32MX795F512L/processor.o
                                                  build/mega/production/startup.o
C1FIFOCON3CLR                                     /Applications/microchip/mplabc32/v1.11a/bin/../lib/gcc/pic32mx/3.4.4/../../../../pic32mx/lib/./proc/32MX795F512L/processor.o
                                                  build/mega/production/startup.o
C1FIFOCON3INV                                     /Applications/microchip/mplabc32/v1.11a/bin/../lib/gcc/pic32mx/3.4.4/../../../../pic32mx/lib/./proc/32MX795F512L/processor.o
                                                  build/mega/production/startup.o
C1FIFOCON3SET                                     /Applications/microchip/mplabc32/v1.11a/bin/../lib/gcc/pic32mx/3.4.4/../../../../pic32mx/lib/./proc/32MX795F512L/processor.o
                                                  build/mega/production/startup.o
C1FIFOCON4                                        /Applications/microchip/mplabc32/v1.11a/bin/../lib/gcc/pic32mx/3.4.4/../../../../pic32mx/lib/./proc/32MX795F512L/processor.o
                                                  build/mega/production/startup.o
C1FIFOCON4CLR                                     /Applications/microchip/mplabc32/v1.11a/bin/../lib/gcc/pic32mx/3.4.4/../../../../pic32mx/lib/./proc/32MX795F512L/processor.o
                                                  build/mega/production/startup.o
C1FIFOCON4INV                                     /Applications/microchip/mplabc32/v1.11a/bin/../lib/gcc/pic32mx/3.4.4/../../../../pic32mx/lib/./proc/32MX795F512L/processor.o
                                                  build/mega/production/startup.o
C1FIFOCON4SET                                     /Applications/microchip/mplabc32/v1.11a/bin/../lib/gcc/pic32mx/3.4.4/../../../../pic32mx/lib/./proc/32MX795F512L/processor.o
                                                  build/mega/production/startup.o
C1FIFOCON5                                        /Applications/microchip/mplabc32/v1.11a/bin/../lib/gcc/pic32mx/3.4.4/../../../../pic32mx/lib/./proc/32MX795F512L/processor.o
                                                  build/mega/production/startup.o
C1FIFOCON5CLR                                     /Applications/microchip/mplabc32/v1.11a/bin/../lib/gcc/pic32mx/3.4.4/../../../../pic32mx/lib/./proc/32MX795F512L/processor.o
                                                  build/mega/production/startup.o
C1FIFOCON5INV                                     /Applications/microchip/mplabc32/v1.11a/bin/../lib/gcc/pic32mx/3.4.4/../../../../pic32mx/lib/./proc/32MX795F512L/processor.o
                                                  build/mega/production/startup.o
C1FIFOCON5SET                                     /Applications/microchip/mplabc32/v1.11a/bin/../lib/gcc/pic32mx/3.4.4/../../../../pic32mx/lib/./proc/32MX795F512L/processor.o
                                                  build/mega/production/startup.o
C1FIFOCON6                                        /Applications/microchip/mplabc32/v1.11a/bin/../lib/gcc/pic32mx/3.4.4/../../../../pic32mx/lib/./proc/32MX795F512L/processor.o
                                                  build/mega/production/startup.o
C1FIFOCON6CLR                                     /Applications/microchip/mplabc32/v1.11a/bin/../lib/gcc/pic32mx/3.4.4/../../../../pic32mx/lib/./proc/32MX795F512L/processor.o
                                                  build/mega/production/startup.o
C1FIFOCON6INV                                     /Applications/microchip/mplabc32/v1.11a/bin/../lib/gcc/pic32mx/3.4.4/../../../../pic32mx/lib/./proc/32MX795F512L/processor.o
                                                  build/mega/production/startup.o
C1FIFOCON6SET                                     /Applications/microchip/mplabc32/v1.11a/bin/../lib/gcc/pic32mx/3.4.4/../../../../pic32mx/lib/./proc/32MX795F512L/processor.o
                                                  build/mega/production/startup.o
C1FIFOCON7                                        /Applications/microchip/mplabc32/v1.11a/bin/../lib/gcc/pic32mx/3.4.4/../../../../pic32mx/lib/./proc/32MX795F512L/processor.o
                                                  build/mega/production/startup.o
C1FIFOCON7CLR                                     /Applications/microchip/mplabc32/v1.11a/bin/../lib/gcc/pic32mx/3.4.4/../../../../pic32mx/lib/./proc/32MX795F512L/processor.o
                                                  build/mega/production/startup.o
C1FIFOCON7INV                                     /Applications/microchip/mplabc32/v1.11a/bin/../lib/gcc/pic32mx/3.4.4/../../../../pic32mx/lib/./proc/32MX795F512L/processor.o
                                                  build/mega/production/startup.o
C1FIFOCON7SET                                     /Applications/microchip/mplabc32/v1.11a/bin/../lib/gcc/pic32mx/3.4.4/../../../../pic32mx/lib/./proc/32MX795F512L/processor.o
                                                  build/mega/production/startup.o
C1FIFOCON8                                        /Applications/microchip/mplabc32/v1.11a/bin/../lib/gcc/pic32mx/3.4.4/../../../../pic32mx/lib/./proc/32MX795F512L/processor.o
                                                  build/mega/production/startup.o
C1FIFOCON8CLR                                     /Applications/microchip/mplabc32/v1.11a/bin/../lib/gcc/pic32mx/3.4.4/../../../../pic32mx/lib/./proc/32MX795F512L/processor.o
                                                  build/mega/production/startup.o
C1FIFOCON8INV                                     /Applications/microchip/mplabc32/v1.11a/bin/../lib/gcc/pic32mx/3.4.4/../../../../pic32mx/lib/./proc/32MX795F512L/processor.o
                                                  build/mega/production/startup.o
C1FIFOCON8SET                                     /Applications/microchip/mplabc32/v1.11a/bin/../lib/gcc/pic32mx/3.4.4/../../../../pic32mx/lib/./proc/32MX795F512L/processor.o
                                                  build/mega/production/startup.o
C1FIFOCON9                                        /Applications/microchip/mplabc32/v1.11a/bin/../lib/gcc/pic32mx/3.4.4/../../../../pic32mx/lib/./proc/32MX795F512L/processor.o
                                                  build/mega/production/startup.o
C1FIFOCON9CLR                                     /Applications/microchip/mplabc32/v1.11a/bin/../lib/gcc/pic32mx/3.4.4/../../../../pic32mx/lib/./proc/32MX795F512L/processor.o
                                                  build/mega/production/startup.o
C1FIFOCON9INV                                     /Applications/microchip/mplabc32/v1.11a/bin/../lib/gcc/pic32mx/3.4.4/../../../../pic32mx/lib/./proc/32MX795F512L/processor.o
                                                  build/mega/production/startup.o
C1FIFOCON9SET                                     /Applications/microchip/mplabc32/v1.11a/bin/../lib/gcc/pic32mx/3.4.4/../../../../pic32mx/lib/./proc/32MX795F512L/processor.o
                                                  build/mega/production/startup.o
C1FIFOINT0                                        /Applications/microchip/mplabc32/v1.11a/bin/../lib/gcc/pic32mx/3.4.4/../../../../pic32mx/lib/./proc/32MX795F512L/processor.o
                                                  build/mega/production/startup.o
C1FIFOINT0CLR                                     /Applications/microchip/mplabc32/v1.11a/bin/../lib/gcc/pic32mx/3.4.4/../../../../pic32mx/lib/./proc/32MX795F512L/processor.o
                                                  build/mega/production/startup.o
C1FIFOINT0INV                                     /Applications/microchip/mplabc32/v1.11a/bin/../lib/gcc/pic32mx/3.4.4/../../../../pic32mx/lib/./proc/32MX795F512L/processor.o
                                                  build/mega/production/startup.o
C1FIFOINT0SET                                     /Applications/microchip/mplabc32/v1.11a/bin/../lib/gcc/pic32mx/3.4.4/../../../../pic32mx/lib/./proc/32MX795F512L/processor.o
                                                  build/mega/production/startup.o
C1FIFOINT1                                        /Applications/microchip/mplabc32/v1.11a/bin/../lib/gcc/pic32mx/3.4.4/../../../../pic32mx/lib/./proc/32MX795F512L/processor.o
                                                  build/mega/production/startup.o
C1FIFOINT10                                       /Applications/microchip/mplabc32/v1.11a/bin/../lib/gcc/pic32mx/3.4.4/../../../../pic32mx/lib/./proc/32MX795F512L/processor.o
                                                  build/mega/production/startup.o
C1FIFOINT10CLR                                    /Applications/microchip/mplabc32/v1.11a/bin/../lib/gcc/pic32mx/3.4.4/../../../../pic32mx/lib/./proc/32MX795F512L/processor.o
                                                  build/mega/production/startup.o
C1FIFOINT10INV                                    /Applications/microchip/mplabc32/v1.11a/bin/../lib/gcc/pic32mx/3.4.4/../../../../pic32mx/lib/./proc/32MX795F512L/processor.o
                                                  build/mega/production/startup.o
C1FIFOINT10SET                                    /Applications/microchip/mplabc32/v1.11a/bin/../lib/gcc/pic32mx/3.4.4/../../../../pic32mx/lib/./proc/32MX795F512L/processor.o
                                                  build/mega/production/startup.o
C1FIFOINT11                                       /Applications/microchip/mplabc32/v1.11a/bin/../lib/gcc/pic32mx/3.4.4/../../../../pic32mx/lib/./proc/32MX795F512L/processor.o
                                                  build/mega/production/startup.o
C1FIFOINT11CLR                                    /Applications/microchip/mplabc32/v1.11a/bin/../lib/gcc/pic32mx/3.4.4/../../../../pic32mx/lib/./proc/32MX795F512L/processor.o
                                                  build/mega/production/startup.o
C1FIFOINT11INV                                    /Applications/microchip/mplabc32/v1.11a/bin/../lib/gcc/pic32mx/3.4.4/../../../../pic32mx/lib/./proc/32MX795F512L/processor.o
                                                  build/mega/production/startup.o
C1FIFOINT11SET                                    /Applications/microchip/mplabc32/v1.11a/bin/../lib/gcc/pic32mx/3.4.4/../../../../pic32mx/lib/./proc/32MX795F512L/processor.o
                                                  build/mega/production/startup.o
C1FIFOINT12                                       /Applications/microchip/mplabc32/v1.11a/bin/../lib/gcc/pic32mx/3.4.4/../../../../pic32mx/lib/./proc/32MX795F512L/processor.o
                                                  build/mega/production/startup.o
C1FIFOINT12CLR                                    /Applications/microchip/mplabc32/v1.11a/bin/../lib/gcc/pic32mx/3.4.4/../../../../pic32mx/lib/./proc/32MX795F512L/processor.o
                                                  build/mega/production/startup.o
C1FIFOINT12INV                                    /Applications/microchip/mplabc32/v1.11a/bin/../lib/gcc/pic32mx/3.4.4/../../../../pic32mx/lib/./proc/32MX795F512L/processor.o
                                                  build/mega/production/startup.o
C1FIFOINT12SET                                    /Applications/microchip/mplabc32/v1.11a/bin/../lib/gcc/pic32mx/3.4.4/../../../../pic32mx/lib/./proc/32MX795F512L/processor.o
                                                  build/mega/production/startup.o
C1FIFOINT13                                       /Applications/microchip/mplabc32/v1.11a/bin/../lib/gcc/pic32mx/3.4.4/../../../../pic32mx/lib/./proc/32MX795F512L/processor.o
                                                  build/mega/production/startup.o
C1FIFOINT13CLR                                    /Applications/microchip/mplabc32/v1.11a/bin/../lib/gcc/pic32mx/3.4.4/../../../../pic32mx/lib/./proc/32MX795F512L/processor.o
                                                  build/mega/production/startup.o
C1FIFOINT13INV                                    /Applications/microchip/mplabc32/v1.11a/bin/../lib/gcc/pic32mx/3.4.4/../../../../pic32mx/lib/./proc/32MX795F512L/processor.o
                                                  build/mega/production/startup.o
C1FIFOINT13SET                                    /Applications/microchip/mplabc32/v1.11a/bin/../lib/gcc/pic32mx/3.4.4/../../../../pic32mx/lib/./proc/32MX795F512L/processor.o
                                                  build/mega/production/startup.o
C1FIFOINT14                                       /Applications/microchip/mplabc32/v1.11a/bin/../lib/gcc/pic32mx/3.4.4/../../../../pic32mx/lib/./proc/32MX795F512L/processor.o
                                                  build/mega/production/startup.o
C1FIFOINT14CLR                                    /Applications/microchip/mplabc32/v1.11a/bin/../lib/gcc/pic32mx/3.4.4/../../../../pic32mx/lib/./proc/32MX795F512L/processor.o
                                                  build/mega/production/startup.o
C1FIFOINT14INV                                    /Applications/microchip/mplabc32/v1.11a/bin/../lib/gcc/pic32mx/3.4.4/../../../../pic32mx/lib/./proc/32MX795F512L/processor.o
                                                  build/mega/production/startup.o
C1FIFOINT14SET                                    /Applications/microchip/mplabc32/v1.11a/bin/../lib/gcc/pic32mx/3.4.4/../../../../pic32mx/lib/./proc/32MX795F512L/processor.o
                                                  build/mega/production/startup.o
C1FIFOINT15                                       /Applications/microchip/mplabc32/v1.11a/bin/../lib/gcc/pic32mx/3.4.4/../../../../pic32mx/lib/./proc/32MX795F512L/processor.o
                                                  build/mega/production/startup.o
C1FIFOINT15CLR                                    /Applications/microchip/mplabc32/v1.11a/bin/../lib/gcc/pic32mx/3.4.4/../../../../pic32mx/lib/./proc/32MX795F512L/processor.o
                                                  build/mega/production/startup.o
C1FIFOINT15INV                                    /Applications/microchip/mplabc32/v1.11a/bin/../lib/gcc/pic32mx/3.4.4/../../../../pic32mx/lib/./proc/32MX795F512L/processor.o
                                                  build/mega/production/startup.o
C1FIFOINT15SET                                    /Applications/microchip/mplabc32/v1.11a/bin/../lib/gcc/pic32mx/3.4.4/../../../../pic32mx/lib/./proc/32MX795F512L/processor.o
                                                  build/mega/production/startup.o
C1FIFOINT16                                       /Applications/microchip/mplabc32/v1.11a/bin/../lib/gcc/pic32mx/3.4.4/../../../../pic32mx/lib/./proc/32MX795F512L/processor.o
                                                  build/mega/production/startup.o
C1FIFOINT16CLR                                    /Applications/microchip/mplabc32/v1.11a/bin/../lib/gcc/pic32mx/3.4.4/../../../../pic32mx/lib/./proc/32MX795F512L/processor.o
                                                  build/mega/production/startup.o
C1FIFOINT16INV                                    /Applications/microchip/mplabc32/v1.11a/bin/../lib/gcc/pic32mx/3.4.4/../../../../pic32mx/lib/./proc/32MX795F512L/processor.o
                                                  build/mega/production/startup.o
C1FIFOINT16SET                                    /Applications/microchip/mplabc32/v1.11a/bin/../lib/gcc/pic32mx/3.4.4/../../../../pic32mx/lib/./proc/32MX795F512L/processor.o
                                                  build/mega/production/startup.o
C1FIFOINT17                                       /Applications/microchip/mplabc32/v1.11a/bin/../lib/gcc/pic32mx/3.4.4/../../../../pic32mx/lib/./proc/32MX795F512L/processor.o
                                                  build/mega/production/startup.o
C1FIFOINT17CLR                                    /Applications/microchip/mplabc32/v1.11a/bin/../lib/gcc/pic32mx/3.4.4/../../../../pic32mx/lib/./proc/32MX795F512L/processor.o
                                                  build/mega/production/startup.o
C1FIFOINT17INV                                    /Applications/microchip/mplabc32/v1.11a/bin/../lib/gcc/pic32mx/3.4.4/../../../../pic32mx/lib/./proc/32MX795F512L/processor.o
                                                  build/mega/production/startup.o
C1FIFOINT17SET                                    /Applications/microchip/mplabc32/v1.11a/bin/../lib/gcc/pic32mx/3.4.4/../../../../pic32mx/lib/./proc/32MX795F512L/processor.o
                                                  build/mega/production/startup.o
C1FIFOINT18                                       /Applications/microchip/mplabc32/v1.11a/bin/../lib/gcc/pic32mx/3.4.4/../../../../pic32mx/lib/./proc/32MX795F512L/processor.o
                                                  build/mega/production/startup.o
C1FIFOINT18CLR                                    /Applications/microchip/mplabc32/v1.11a/bin/../lib/gcc/pic32mx/3.4.4/../../../../pic32mx/lib/./proc/32MX795F512L/processor.o
                                                  build/mega/production/startup.o
C1FIFOINT18INV                                    /Applications/microchip/mplabc32/v1.11a/bin/../lib/gcc/pic32mx/3.4.4/../../../../pic32mx/lib/./proc/32MX795F512L/processor.o
                                                  build/mega/production/startup.o
C1FIFOINT18SET                                    /Applications/microchip/mplabc32/v1.11a/bin/../lib/gcc/pic32mx/3.4.4/../../../../pic32mx/lib/./proc/32MX795F512L/processor.o
                                                  build/mega/production/startup.o
C1FIFOINT19                                       /Applications/microchip/mplabc32/v1.11a/bin/../lib/gcc/pic32mx/3.4.4/../../../../pic32mx/lib/./proc/32MX795F512L/processor.o
                                                  build/mega/production/startup.o
C1FIFOINT19CLR                                    /Applications/microchip/mplabc32/v1.11a/bin/../lib/gcc/pic32mx/3.4.4/../../../../pic32mx/lib/./proc/32MX795F512L/processor.o
                                                  build/mega/production/startup.o
C1FIFOINT19INV                                    /Applications/microchip/mplabc32/v1.11a/bin/../lib/gcc/pic32mx/3.4.4/../../../../pic32mx/lib/./proc/32MX795F512L/processor.o
                                                  build/mega/production/startup.o
C1FIFOINT19SET                                    /Applications/microchip/mplabc32/v1.11a/bin/../lib/gcc/pic32mx/3.4.4/../../../../pic32mx/lib/./proc/32MX795F512L/processor.o
                                                  build/mega/production/startup.o
C1FIFOINT1CLR                                     /Applications/microchip/mplabc32/v1.11a/bin/../lib/gcc/pic32mx/3.4.4/../../../../pic32mx/lib/./proc/32MX795F512L/processor.o
                                                  build/mega/production/startup.o
C1FIFOINT1INV                                     /Applications/microchip/mplabc32/v1.11a/bin/../lib/gcc/pic32mx/3.4.4/../../../../pic32mx/lib/./proc/32MX795F512L/processor.o
                                                  build/mega/production/startup.o
C1FIFOINT1SET                                     /Applications/microchip/mplabc32/v1.11a/bin/../lib/gcc/pic32mx/3.4.4/../../../../pic32mx/lib/./proc/32MX795F512L/processor.o
                                                  build/mega/production/startup.o
C1FIFOINT2                                        /Applications/microchip/mplabc32/v1.11a/bin/../lib/gcc/pic32mx/3.4.4/../../../../pic32mx/lib/./proc/32MX795F512L/processor.o
                                                  build/mega/production/startup.o
C1FIFOINT20                                       /Applications/microchip/mplabc32/v1.11a/bin/../lib/gcc/pic32mx/3.4.4/../../../../pic32mx/lib/./proc/32MX795F512L/processor.o
                                                  build/mega/production/startup.o
C1FIFOINT20CLR                                    /Applications/microchip/mplabc32/v1.11a/bin/../lib/gcc/pic32mx/3.4.4/../../../../pic32mx/lib/./proc/32MX795F512L/processor.o
                                                  build/mega/production/startup.o
C1FIFOINT20INV                                    /Applications/microchip/mplabc32/v1.11a/bin/../lib/gcc/pic32mx/3.4.4/../../../../pic32mx/lib/./proc/32MX795F512L/processor.o
                                                  build/mega/production/startup.o
C1FIFOINT20SET                                    /Applications/microchip/mplabc32/v1.11a/bin/../lib/gcc/pic32mx/3.4.4/../../../../pic32mx/lib/./proc/32MX795F512L/processor.o
                                                  build/mega/production/startup.o
C1FIFOINT21                                       /Applications/microchip/mplabc32/v1.11a/bin/../lib/gcc/pic32mx/3.4.4/../../../../pic32mx/lib/./proc/32MX795F512L/processor.o
                                                  build/mega/production/startup.o
C1FIFOINT21CLR                                    /Applications/microchip/mplabc32/v1.11a/bin/../lib/gcc/pic32mx/3.4.4/../../../../pic32mx/lib/./proc/32MX795F512L/processor.o
                                                  build/mega/production/startup.o
C1FIFOINT21INV                                    /Applications/microchip/mplabc32/v1.11a/bin/../lib/gcc/pic32mx/3.4.4/../../../../pic32mx/lib/./proc/32MX795F512L/processor.o
                                                  build/mega/production/startup.o
C1FIFOINT21SET                                    /Applications/microchip/mplabc32/v1.11a/bin/../lib/gcc/pic32mx/3.4.4/../../../../pic32mx/lib/./proc/32MX795F512L/processor.o
                                                  build/mega/production/startup.o
C1FIFOINT22                                       /Applications/microchip/mplabc32/v1.11a/bin/../lib/gcc/pic32mx/3.4.4/../../../../pic32mx/lib/./proc/32MX795F512L/processor.o
                                                  build/mega/production/startup.o
C1FIFOINT22CLR                                    /Applications/microchip/mplabc32/v1.11a/bin/../lib/gcc/pic32mx/3.4.4/../../../../pic32mx/lib/./proc/32MX795F512L/processor.o
                                                  build/mega/production/startup.o
C1FIFOINT22INV                                    /Applications/microchip/mplabc32/v1.11a/bin/../lib/gcc/pic32mx/3.4.4/../../../../pic32mx/lib/./proc/32MX795F512L/processor.o
                                                  build/mega/production/startup.o
C1FIFOINT22SET                                    /Applications/microchip/mplabc32/v1.11a/bin/../lib/gcc/pic32mx/3.4.4/../../../../pic32mx/lib/./proc/32MX795F512L/processor.o
                                                  build/mega/production/startup.o
C1FIFOINT23                                       /Applications/microchip/mplabc32/v1.11a/bin/../lib/gcc/pic32mx/3.4.4/../../../../pic32mx/lib/./proc/32MX795F512L/processor.o
                                                  build/mega/production/startup.o
C1FIFOINT23CLR                                    /Applications/microchip/mplabc32/v1.11a/bin/../lib/gcc/pic32mx/3.4.4/../../../../pic32mx/lib/./proc/32MX795F512L/processor.o
                                                  build/mega/production/startup.o
C1FIFOINT23INV                                    /Applications/microchip/mplabc32/v1.11a/bin/../lib/gcc/pic32mx/3.4.4/../../../../pic32mx/lib/./proc/32MX795F512L/processor.o
                                                  build/mega/production/startup.o
C1FIFOINT23SET                                    /Applications/microchip/mplabc32/v1.11a/bin/../lib/gcc/pic32mx/3.4.4/../../../../pic32mx/lib/./proc/32MX795F512L/processor.o
                                                  build/mega/production/startup.o
C1FIFOINT24                                       /Applications/microchip/mplabc32/v1.11a/bin/../lib/gcc/pic32mx/3.4.4/../../../../pic32mx/lib/./proc/32MX795F512L/processor.o
                                                  build/mega/production/startup.o
C1FIFOINT24CLR                                    /Applications/microchip/mplabc32/v1.11a/bin/../lib/gcc/pic32mx/3.4.4/../../../../pic32mx/lib/./proc/32MX795F512L/processor.o
                                                  build/mega/production/startup.o
C1FIFOINT24INV                                    /Applications/microchip/mplabc32/v1.11a/bin/../lib/gcc/pic32mx/3.4.4/../../../../pic32mx/lib/./proc/32MX795F512L/processor.o
                                                  build/mega/production/startup.o
C1FIFOINT24SET                                    /Applications/microchip/mplabc32/v1.11a/bin/../lib/gcc/pic32mx/3.4.4/../../../../pic32mx/lib/./proc/32MX795F512L/processor.o
                                                  build/mega/production/startup.o
C1FIFOINT25                                       /Applications/microchip/mplabc32/v1.11a/bin/../lib/gcc/pic32mx/3.4.4/../../../../pic32mx/lib/./proc/32MX795F512L/processor.o
                                                  build/mega/production/startup.o
C1FIFOINT25CLR                                    /Applications/microchip/mplabc32/v1.11a/bin/../lib/gcc/pic32mx/3.4.4/../../../../pic32mx/lib/./proc/32MX795F512L/processor.o
                                                  build/mega/production/startup.o
C1FIFOINT25INV                                    /Applications/microchip/mplabc32/v1.11a/bin/../lib/gcc/pic32mx/3.4.4/../../../../pic32mx/lib/./proc/32MX795F512L/processor.o
                                                  build/mega/production/startup.o
C1FIFOINT25SET                                    /Applications/microchip/mplabc32/v1.11a/bin/../lib/gcc/pic32mx/3.4.4/../../../../pic32mx/lib/./proc/32MX795F512L/processor.o
                                                  build/mega/production/startup.o
C1FIFOINT26                                       /Applications/microchip/mplabc32/v1.11a/bin/../lib/gcc/pic32mx/3.4.4/../../../../pic32mx/lib/./proc/32MX795F512L/processor.o
                                                  build/mega/production/startup.o
C1FIFOINT26CLR                                    /Applications/microchip/mplabc32/v1.11a/bin/../lib/gcc/pic32mx/3.4.4/../../../../pic32mx/lib/./proc/32MX795F512L/processor.o
                                                  build/mega/production/startup.o
C1FIFOINT26INV                                    /Applications/microchip/mplabc32/v1.11a/bin/../lib/gcc/pic32mx/3.4.4/../../../../pic32mx/lib/./proc/32MX795F512L/processor.o
                                                  build/mega/production/startup.o
C1FIFOINT26SET                                    /Applications/microchip/mplabc32/v1.11a/bin/../lib/gcc/pic32mx/3.4.4/../../../../pic32mx/lib/./proc/32MX795F512L/processor.o
                                                  build/mega/production/startup.o
C1FIFOINT27                                       /Applications/microchip/mplabc32/v1.11a/bin/../lib/gcc/pic32mx/3.4.4/../../../../pic32mx/lib/./proc/32MX795F512L/processor.o
                                                  build/mega/production/startup.o
C1FIFOINT27CLR                                    /Applications/microchip/mplabc32/v1.11a/bin/../lib/gcc/pic32mx/3.4.4/../../../../pic32mx/lib/./proc/32MX795F512L/processor.o
                                                  build/mega/production/startup.o
C1FIFOINT27INV                                    /Applications/microchip/mplabc32/v1.11a/bin/../lib/gcc/pic32mx/3.4.4/../../../../pic32mx/lib/./proc/32MX795F512L/processor.o
                                                  build/mega/production/startup.o
C1FIFOINT27SET                                    /Applications/microchip/mplabc32/v1.11a/bin/../lib/gcc/pic32mx/3.4.4/../../../../pic32mx/lib/./proc/32MX795F512L/processor.o
                                                  build/mega/production/startup.o
C1FIFOINT28                                       /Applications/microchip/mplabc32/v1.11a/bin/../lib/gcc/pic32mx/3.4.4/../../../../pic32mx/lib/./proc/32MX795F512L/processor.o
                                                  build/mega/production/startup.o
C1FIFOINT28CLR                                    /Applications/microchip/mplabc32/v1.11a/bin/../lib/gcc/pic32mx/3.4.4/../../../../pic32mx/lib/./proc/32MX795F512L/processor.o
                                                  build/mega/production/startup.o
C1FIFOINT28INV                                    /Applications/microchip/mplabc32/v1.11a/bin/../lib/gcc/pic32mx/3.4.4/../../../../pic32mx/lib/./proc/32MX795F512L/processor.o
                                                  build/mega/production/startup.o
C1FIFOINT28SET                                    /Applications/microchip/mplabc32/v1.11a/bin/../lib/gcc/pic32mx/3.4.4/../../../../pic32mx/lib/./proc/32MX795F512L/processor.o
                                                  build/mega/production/startup.o
C1FIFOINT29                                       /Applications/microchip/mplabc32/v1.11a/bin/../lib/gcc/pic32mx/3.4.4/../../../../pic32mx/lib/./proc/32MX795F512L/processor.o
                                                  build/mega/production/startup.o
C1FIFOINT29CLR                                    /Applications/microchip/mplabc32/v1.11a/bin/../lib/gcc/pic32mx/3.4.4/../../../../pic32mx/lib/./proc/32MX795F512L/processor.o
                                                  build/mega/production/startup.o
C1FIFOINT29INV                                    /Applications/microchip/mplabc32/v1.11a/bin/../lib/gcc/pic32mx/3.4.4/../../../../pic32mx/lib/./proc/32MX795F512L/processor.o
                                                  build/mega/production/startup.o
C1FIFOINT29SET                                    /Applications/microchip/mplabc32/v1.11a/bin/../lib/gcc/pic32mx/3.4.4/../../../../pic32mx/lib/./proc/32MX795F512L/processor.o
                                                  build/mega/production/startup.o
C1FIFOINT2CLR                                     /Applications/microchip/mplabc32/v1.11a/bin/../lib/gcc/pic32mx/3.4.4/../../../../pic32mx/lib/./proc/32MX795F512L/processor.o
                                                  build/mega/production/startup.o
C1FIFOINT2INV                                     /Applications/microchip/mplabc32/v1.11a/bin/../lib/gcc/pic32mx/3.4.4/../../../../pic32mx/lib/./proc/32MX795F512L/processor.o
                                                  build/mega/production/startup.o
C1FIFOINT2SET                                     /Applications/microchip/mplabc32/v1.11a/bin/../lib/gcc/pic32mx/3.4.4/../../../../pic32mx/lib/./proc/32MX795F512L/processor.o
                                                  build/mega/production/startup.o
C1FIFOINT3                                        /Applications/microchip/mplabc32/v1.11a/bin/../lib/gcc/pic32mx/3.4.4/../../../../pic32mx/lib/./proc/32MX795F512L/processor.o
                                                  build/mega/production/startup.o
C1FIFOINT30                                       /Applications/microchip/mplabc32/v1.11a/bin/../lib/gcc/pic32mx/3.4.4/../../../../pic32mx/lib/./proc/32MX795F512L/processor.o
                                                  build/mega/production/startup.o
C1FIFOINT30CLR                                    /Applications/microchip/mplabc32/v1.11a/bin/../lib/gcc/pic32mx/3.4.4/../../../../pic32mx/lib/./proc/32MX795F512L/processor.o
                                                  build/mega/production/startup.o
C1FIFOINT30INV                                    /Applications/microchip/mplabc32/v1.11a/bin/../lib/gcc/pic32mx/3.4.4/../../../../pic32mx/lib/./proc/32MX795F512L/processor.o
                                                  build/mega/production/startup.o
C1FIFOINT30SET                                    /Applications/microchip/mplabc32/v1.11a/bin/../lib/gcc/pic32mx/3.4.4/../../../../pic32mx/lib/./proc/32MX795F512L/processor.o
                                                  build/mega/production/startup.o
C1FIFOINT31                                       /Applications/microchip/mplabc32/v1.11a/bin/../lib/gcc/pic32mx/3.4.4/../../../../pic32mx/lib/./proc/32MX795F512L/processor.o
                                                  build/mega/production/startup.o
C1FIFOINT31CLR                                    /Applications/microchip/mplabc32/v1.11a/bin/../lib/gcc/pic32mx/3.4.4/../../../../pic32mx/lib/./proc/32MX795F512L/processor.o
                                                  build/mega/production/startup.o
C1FIFOINT31INV                                    /Applications/microchip/mplabc32/v1.11a/bin/../lib/gcc/pic32mx/3.4.4/../../../../pic32mx/lib/./proc/32MX795F512L/processor.o
                                                  build/mega/production/startup.o
C1FIFOINT31SET                                    /Applications/microchip/mplabc32/v1.11a/bin/../lib/gcc/pic32mx/3.4.4/../../../../pic32mx/lib/./proc/32MX795F512L/processor.o
                                                  build/mega/production/startup.o
C1FIFOINT3CLR                                     /Applications/microchip/mplabc32/v1.11a/bin/../lib/gcc/pic32mx/3.4.4/../../../../pic32mx/lib/./proc/32MX795F512L/processor.o
                                                  build/mega/production/startup.o
C1FIFOINT3INV                                     /Applications/microchip/mplabc32/v1.11a/bin/../lib/gcc/pic32mx/3.4.4/../../../../pic32mx/lib/./proc/32MX795F512L/processor.o
                                                  build/mega/production/startup.o
C1FIFOINT3SET                                     /Applications/microchip/mplabc32/v1.11a/bin/../lib/gcc/pic32mx/3.4.4/../../../../pic32mx/lib/./proc/32MX795F512L/processor.o
                                                  build/mega/production/startup.o
C1FIFOINT4                                        /Applications/microchip/mplabc32/v1.11a/bin/../lib/gcc/pic32mx/3.4.4/../../../../pic32mx/lib/./proc/32MX795F512L/processor.o
                                                  build/mega/production/startup.o
C1FIFOINT4CLR                                     /Applications/microchip/mplabc32/v1.11a/bin/../lib/gcc/pic32mx/3.4.4/../../../../pic32mx/lib/./proc/32MX795F512L/processor.o
                                                  build/mega/production/startup.o
C1FIFOINT4INV                                     /Applications/microchip/mplabc32/v1.11a/bin/../lib/gcc/pic32mx/3.4.4/../../../../pic32mx/lib/./proc/32MX795F512L/processor.o
                                                  build/mega/production/startup.o
C1FIFOINT4SET                                     /Applications/microchip/mplabc32/v1.11a/bin/../lib/gcc/pic32mx/3.4.4/../../../../pic32mx/lib/./proc/32MX795F512L/processor.o
                                                  build/mega/production/startup.o
C1FIFOINT5                                        /Applications/microchip/mplabc32/v1.11a/bin/../lib/gcc/pic32mx/3.4.4/../../../../pic32mx/lib/./proc/32MX795F512L/processor.o
                                                  build/mega/production/startup.o
C1FIFOINT5CLR                                     /Applications/microchip/mplabc32/v1.11a/bin/../lib/gcc/pic32mx/3.4.4/../../../../pic32mx/lib/./proc/32MX795F512L/processor.o
                                                  build/mega/production/startup.o
C1FIFOINT5INV                                     /Applications/microchip/mplabc32/v1.11a/bin/../lib/gcc/pic32mx/3.4.4/../../../../pic32mx/lib/./proc/32MX795F512L/processor.o
                                                  build/mega/production/startup.o
C1FIFOINT5SET                                     /Applications/microchip/mplabc32/v1.11a/bin/../lib/gcc/pic32mx/3.4.4/../../../../pic32mx/lib/./proc/32MX795F512L/processor.o
                                                  build/mega/production/startup.o
C1FIFOINT6                                        /Applications/microchip/mplabc32/v1.11a/bin/../lib/gcc/pic32mx/3.4.4/../../../../pic32mx/lib/./proc/32MX795F512L/processor.o
                                                  build/mega/production/startup.o
C1FIFOINT6CLR                                     /Applications/microchip/mplabc32/v1.11a/bin/../lib/gcc/pic32mx/3.4.4/../../../../pic32mx/lib/./proc/32MX795F512L/processor.o
                                                  build/mega/production/startup.o
C1FIFOINT6INV                                     /Applications/microchip/mplabc32/v1.11a/bin/../lib/gcc/pic32mx/3.4.4/../../../../pic32mx/lib/./proc/32MX795F512L/processor.o
                                                  build/mega/production/startup.o
C1FIFOINT6SET                                     /Applications/microchip/mplabc32/v1.11a/bin/../lib/gcc/pic32mx/3.4.4/../../../../pic32mx/lib/./proc/32MX795F512L/processor.o
                                                  build/mega/production/startup.o
C1FIFOINT7                                        /Applications/microchip/mplabc32/v1.11a/bin/../lib/gcc/pic32mx/3.4.4/../../../../pic32mx/lib/./proc/32MX795F512L/processor.o
                                                  build/mega/production/startup.o
C1FIFOINT7CLR                                     /Applications/microchip/mplabc32/v1.11a/bin/../lib/gcc/pic32mx/3.4.4/../../../../pic32mx/lib/./proc/32MX795F512L/processor.o
                                                  build/mega/production/startup.o
C1FIFOINT7INV                                     /Applications/microchip/mplabc32/v1.11a/bin/../lib/gcc/pic32mx/3.4.4/../../../../pic32mx/lib/./proc/32MX795F512L/processor.o
                                                  build/mega/production/startup.o
C1FIFOINT7SET                                     /Applications/microchip/mplabc32/v1.11a/bin/../lib/gcc/pic32mx/3.4.4/../../../../pic32mx/lib/./proc/32MX795F512L/processor.o
                                                  build/mega/production/startup.o
C1FIFOINT8                                        /Applications/microchip/mplabc32/v1.11a/bin/../lib/gcc/pic32mx/3.4.4/../../../../pic32mx/lib/./proc/32MX795F512L/processor.o
                                                  build/mega/production/startup.o
C1FIFOINT8CLR                                     /Applications/microchip/mplabc32/v1.11a/bin/../lib/gcc/pic32mx/3.4.4/../../../../pic32mx/lib/./proc/32MX795F512L/processor.o
                                                  build/mega/production/startup.o
C1FIFOINT8INV                                     /Applications/microchip/mplabc32/v1.11a/bin/../lib/gcc/pic32mx/3.4.4/../../../../pic32mx/lib/./proc/32MX795F512L/processor.o
                                                  build/mega/production/startup.o
C1FIFOINT8SET                                     /Applications/microchip/mplabc32/v1.11a/bin/../lib/gcc/pic32mx/3.4.4/../../../../pic32mx/lib/./proc/32MX795F512L/processor.o
                                                  build/mega/production/startup.o
C1FIFOINT9                                        /Applications/microchip/mplabc32/v1.11a/bin/../lib/gcc/pic32mx/3.4.4/../../../../pic32mx/lib/./proc/32MX795F512L/processor.o
                                                  build/mega/production/startup.o
C1FIFOINT9CLR                                     /Applications/microchip/mplabc32/v1.11a/bin/../lib/gcc/pic32mx/3.4.4/../../../../pic32mx/lib/./proc/32MX795F512L/processor.o
                                                  build/mega/production/startup.o
C1FIFOINT9INV                                     /Applications/microchip/mplabc32/v1.11a/bin/../lib/gcc/pic32mx/3.4.4/../../../../pic32mx/lib/./proc/32MX795F512L/processor.o
                                                  build/mega/production/startup.o
C1FIFOINT9SET                                     /Applications/microchip/mplabc32/v1.11a/bin/../lib/gcc/pic32mx/3.4.4/../../../../pic32mx/lib/./proc/32MX795F512L/processor.o
                                                  build/mega/production/startup.o
C1FIFOUA0                                         /Applications/microchip/mplabc32/v1.11a/bin/../lib/gcc/pic32mx/3.4.4/../../../../pic32mx/lib/./proc/32MX795F512L/processor.o
                                                  build/mega/production/startup.o
C1FIFOUA0CLR                                      /Applications/microchip/mplabc32/v1.11a/bin/../lib/gcc/pic32mx/3.4.4/../../../../pic32mx/lib/./proc/32MX795F512L/processor.o
                                                  build/mega/production/startup.o
C1FIFOUA0INV                                      /Applications/microchip/mplabc32/v1.11a/bin/../lib/gcc/pic32mx/3.4.4/../../../../pic32mx/lib/./proc/32MX795F512L/processor.o
                                                  build/mega/production/startup.o
C1FIFOUA0SET                                      /Applications/microchip/mplabc32/v1.11a/bin/../lib/gcc/pic32mx/3.4.4/../../../../pic32mx/lib/./proc/32MX795F512L/processor.o
                                                  build/mega/production/startup.o
C1FIFOUA1                                         /Applications/microchip/mplabc32/v1.11a/bin/../lib/gcc/pic32mx/3.4.4/../../../../pic32mx/lib/./proc/32MX795F512L/processor.o
                                                  build/mega/production/startup.o
C1FIFOUA10                                        /Applications/microchip/mplabc32/v1.11a/bin/../lib/gcc/pic32mx/3.4.4/../../../../pic32mx/lib/./proc/32MX795F512L/processor.o
                                                  build/mega/production/startup.o
C1FIFOUA10CLR                                     /Applications/microchip/mplabc32/v1.11a/bin/../lib/gcc/pic32mx/3.4.4/../../../../pic32mx/lib/./proc/32MX795F512L/processor.o
                                                  build/mega/production/startup.o
C1FIFOUA10INV                                     /Applications/microchip/mplabc32/v1.11a/bin/../lib/gcc/pic32mx/3.4.4/../../../../pic32mx/lib/./proc/32MX795F512L/processor.o
                                                  build/mega/production/startup.o
C1FIFOUA10SET                                     /Applications/microchip/mplabc32/v1.11a/bin/../lib/gcc/pic32mx/3.4.4/../../../../pic32mx/lib/./proc/32MX795F512L/processor.o
                                                  build/mega/production/startup.o
C1FIFOUA11                                        /Applications/microchip/mplabc32/v1.11a/bin/../lib/gcc/pic32mx/3.4.4/../../../../pic32mx/lib/./proc/32MX795F512L/processor.o
                                                  build/mega/production/startup.o
C1FIFOUA11CLR                                     /Applications/microchip/mplabc32/v1.11a/bin/../lib/gcc/pic32mx/3.4.4/../../../../pic32mx/lib/./proc/32MX795F512L/processor.o
                                                  build/mega/production/startup.o
C1FIFOUA11INV                                     /Applications/microchip/mplabc32/v1.11a/bin/../lib/gcc/pic32mx/3.4.4/../../../../pic32mx/lib/./proc/32MX795F512L/processor.o
                                                  build/mega/production/startup.o
C1FIFOUA11SET                                     /Applications/microchip/mplabc32/v1.11a/bin/../lib/gcc/pic32mx/3.4.4/../../../../pic32mx/lib/./proc/32MX795F512L/processor.o
                                                  build/mega/production/startup.o
C1FIFOUA12                                        /Applications/microchip/mplabc32/v1.11a/bin/../lib/gcc/pic32mx/3.4.4/../../../../pic32mx/lib/./proc/32MX795F512L/processor.o
                                                  build/mega/production/startup.o
C1FIFOUA12CLR                                     /Applications/microchip/mplabc32/v1.11a/bin/../lib/gcc/pic32mx/3.4.4/../../../../pic32mx/lib/./proc/32MX795F512L/processor.o
                                                  build/mega/production/startup.o
C1FIFOUA12INV                                     /Applications/microchip/mplabc32/v1.11a/bin/../lib/gcc/pic32mx/3.4.4/../../../../pic32mx/lib/./proc/32MX795F512L/processor.o
                                                  build/mega/production/startup.o
C1FIFOUA12SET                                     /Applications/microchip/mplabc32/v1.11a/bin/../lib/gcc/pic32mx/3.4.4/../../../../pic32mx/lib/./proc/32MX795F512L/processor.o
                                                  build/mega/production/startup.o
C1FIFOUA13                                        /Applications/microchip/mplabc32/v1.11a/bin/../lib/gcc/pic32mx/3.4.4/../../../../pic32mx/lib/./proc/32MX795F512L/processor.o
                                                  build/mega/production/startup.o
C1FIFOUA13CLR                                     /Applications/microchip/mplabc32/v1.11a/bin/../lib/gcc/pic32mx/3.4.4/../../../../pic32mx/lib/./proc/32MX795F512L/processor.o
                                                  build/mega/production/startup.o
C1FIFOUA13INV                                     /Applications/microchip/mplabc32/v1.11a/bin/../lib/gcc/pic32mx/3.4.4/../../../../pic32mx/lib/./proc/32MX795F512L/processor.o
                                                  build/mega/production/startup.o
C1FIFOUA13SET                                     /Applications/microchip/mplabc32/v1.11a/bin/../lib/gcc/pic32mx/3.4.4/../../../../pic32mx/lib/./proc/32MX795F512L/processor.o
                                                  build/mega/production/startup.o
C1FIFOUA14                                        /Applications/microchip/mplabc32/v1.11a/bin/../lib/gcc/pic32mx/3.4.4/../../../../pic32mx/lib/./proc/32MX795F512L/processor.o
                                                  build/mega/production/startup.o
C1FIFOUA14CLR                                     /Applications/microchip/mplabc32/v1.11a/bin/../lib/gcc/pic32mx/3.4.4/../../../../pic32mx/lib/./proc/32MX795F512L/processor.o
                                                  build/mega/production/startup.o
C1FIFOUA14INV                                     /Applications/microchip/mplabc32/v1.11a/bin/../lib/gcc/pic32mx/3.4.4/../../../../pic32mx/lib/./proc/32MX795F512L/processor.o
                                                  build/mega/production/startup.o
C1FIFOUA14SET                                     /Applications/microchip/mplabc32/v1.11a/bin/../lib/gcc/pic32mx/3.4.4/../../../../pic32mx/lib/./proc/32MX795F512L/processor.o
                                                  build/mega/production/startup.o
C1FIFOUA15                                        /Applications/microchip/mplabc32/v1.11a/bin/../lib/gcc/pic32mx/3.4.4/../../../../pic32mx/lib/./proc/32MX795F512L/processor.o
                                                  build/mega/production/startup.o
C1FIFOUA15CLR                                     /Applications/microchip/mplabc32/v1.11a/bin/../lib/gcc/pic32mx/3.4.4/../../../../pic32mx/lib/./proc/32MX795F512L/processor.o
                                                  build/mega/production/startup.o
C1FIFOUA15INV                                     /Applications/microchip/mplabc32/v1.11a/bin/../lib/gcc/pic32mx/3.4.4/../../../../pic32mx/lib/./proc/32MX795F512L/processor.o
                                                  build/mega/production/startup.o
C1FIFOUA15SET                                     /Applications/microchip/mplabc32/v1.11a/bin/../lib/gcc/pic32mx/3.4.4/../../../../pic32mx/lib/./proc/32MX795F512L/processor.o
                                                  build/mega/production/startup.o
C1FIFOUA16                                        /Applications/microchip/mplabc32/v1.11a/bin/../lib/gcc/pic32mx/3.4.4/../../../../pic32mx/lib/./proc/32MX795F512L/processor.o
                                                  build/mega/production/startup.o
C1FIFOUA16CLR                                     /Applications/microchip/mplabc32/v1.11a/bin/../lib/gcc/pic32mx/3.4.4/../../../../pic32mx/lib/./proc/32MX795F512L/processor.o
                                                  build/mega/production/startup.o
C1FIFOUA16INV                                     /Applications/microchip/mplabc32/v1.11a/bin/../lib/gcc/pic32mx/3.4.4/../../../../pic32mx/lib/./proc/32MX795F512L/processor.o
                                                  build/mega/production/startup.o
C1FIFOUA16SET                                     /Applications/microchip/mplabc32/v1.11a/bin/../lib/gcc/pic32mx/3.4.4/../../../../pic32mx/lib/./proc/32MX795F512L/processor.o
                                                  build/mega/production/startup.o
C1FIFOUA17                                        /Applications/microchip/mplabc32/v1.11a/bin/../lib/gcc/pic32mx/3.4.4/../../../../pic32mx/lib/./proc/32MX795F512L/processor.o
                                                  build/mega/production/startup.o
C1FIFOUA17CLR                                     /Applications/microchip/mplabc32/v1.11a/bin/../lib/gcc/pic32mx/3.4.4/../../../../pic32mx/lib/./proc/32MX795F512L/processor.o
                                                  build/mega/production/startup.o
C1FIFOUA17INV                                     /Applications/microchip/mplabc32/v1.11a/bin/../lib/gcc/pic32mx/3.4.4/../../../../pic32mx/lib/./proc/32MX795F512L/processor.o
                                                  build/mega/production/startup.o
C1FIFOUA17SET                                     /Applications/microchip/mplabc32/v1.11a/bin/../lib/gcc/pic32mx/3.4.4/../../../../pic32mx/lib/./proc/32MX795F512L/processor.o
                                                  build/mega/production/startup.o
C1FIFOUA18                                        /Applications/microchip/mplabc32/v1.11a/bin/../lib/gcc/pic32mx/3.4.4/../../../../pic32mx/lib/./proc/32MX795F512L/processor.o
                                                  build/mega/production/startup.o
C1FIFOUA18CLR                                     /Applications/microchip/mplabc32/v1.11a/bin/../lib/gcc/pic32mx/3.4.4/../../../../pic32mx/lib/./proc/32MX795F512L/processor.o
                                                  build/mega/production/startup.o
C1FIFOUA18INV                                     /Applications/microchip/mplabc32/v1.11a/bin/../lib/gcc/pic32mx/3.4.4/../../../../pic32mx/lib/./proc/32MX795F512L/processor.o
                                                  build/mega/production/startup.o
C1FIFOUA18SET                                     /Applications/microchip/mplabc32/v1.11a/bin/../lib/gcc/pic32mx/3.4.4/../../../../pic32mx/lib/./proc/32MX795F512L/processor.o
                                                  build/mega/production/startup.o
C1FIFOUA19                                        /Applications/microchip/mplabc32/v1.11a/bin/../lib/gcc/pic32mx/3.4.4/../../../../pic32mx/lib/./proc/32MX795F512L/processor.o
                                                  build/mega/production/startup.o
C1FIFOUA19CLR                                     /Applications/microchip/mplabc32/v1.11a/bin/../lib/gcc/pic32mx/3.4.4/../../../../pic32mx/lib/./proc/32MX795F512L/processor.o
                                                  build/mega/production/startup.o
C1FIFOUA19INV                                     /Applications/microchip/mplabc32/v1.11a/bin/../lib/gcc/pic32mx/3.4.4/../../../../pic32mx/lib/./proc/32MX795F512L/processor.o
                                                  build/mega/production/startup.o
C1FIFOUA19SET                                     /Applications/microchip/mplabc32/v1.11a/bin/../lib/gcc/pic32mx/3.4.4/../../../../pic32mx/lib/./proc/32MX795F512L/processor.o
                                                  build/mega/production/startup.o
C1FIFOUA1CLR                                      /Applications/microchip/mplabc32/v1.11a/bin/../lib/gcc/pic32mx/3.4.4/../../../../pic32mx/lib/./proc/32MX795F512L/processor.o
                                                  build/mega/production/startup.o
C1FIFOUA1INV                                      /Applications/microchip/mplabc32/v1.11a/bin/../lib/gcc/pic32mx/3.4.4/../../../../pic32mx/lib/./proc/32MX795F512L/processor.o
                                                  build/mega/production/startup.o
C1FIFOUA1SET                                      /Applications/microchip/mplabc32/v1.11a/bin/../lib/gcc/pic32mx/3.4.4/../../../../pic32mx/lib/./proc/32MX795F512L/processor.o
                                                  build/mega/production/startup.o
C1FIFOUA2                                         /Applications/microchip/mplabc32/v1.11a/bin/../lib/gcc/pic32mx/3.4.4/../../../../pic32mx/lib/./proc/32MX795F512L/processor.o
                                                  build/mega/production/startup.o
C1FIFOUA20                                        /Applications/microchip/mplabc32/v1.11a/bin/../lib/gcc/pic32mx/3.4.4/../../../../pic32mx/lib/./proc/32MX795F512L/processor.o
                                                  build/mega/production/startup.o
C1FIFOUA20CLR                                     /Applications/microchip/mplabc32/v1.11a/bin/../lib/gcc/pic32mx/3.4.4/../../../../pic32mx/lib/./proc/32MX795F512L/processor.o
                                                  build/mega/production/startup.o
C1FIFOUA20INV                                     /Applications/microchip/mplabc32/v1.11a/bin/../lib/gcc/pic32mx/3.4.4/../../../../pic32mx/lib/./proc/32MX795F512L/processor.o
                                                  build/mega/production/startup.o
C1FIFOUA20SET                                     /Applications/microchip/mplabc32/v1.11a/bin/../lib/gcc/pic32mx/3.4.4/../../../../pic32mx/lib/./proc/32MX795F512L/processor.o
                                                  build/mega/production/startup.o
C1FIFOUA21                                        /Applications/microchip/mplabc32/v1.11a/bin/../lib/gcc/pic32mx/3.4.4/../../../../pic32mx/lib/./proc/32MX795F512L/processor.o
                                                  build/mega/production/startup.o
C1FIFOUA21CLR                                     /Applications/microchip/mplabc32/v1.11a/bin/../lib/gcc/pic32mx/3.4.4/../../../../pic32mx/lib/./proc/32MX795F512L/processor.o
                                                  build/mega/production/startup.o
C1FIFOUA21INV                                     /Applications/microchip/mplabc32/v1.11a/bin/../lib/gcc/pic32mx/3.4.4/../../../../pic32mx/lib/./proc/32MX795F512L/processor.o
                                                  build/mega/production/startup.o
C1FIFOUA21SET                                     /Applications/microchip/mplabc32/v1.11a/bin/../lib/gcc/pic32mx/3.4.4/../../../../pic32mx/lib/./proc/32MX795F512L/processor.o
                                                  build/mega/production/startup.o
C1FIFOUA22                                        /Applications/microchip/mplabc32/v1.11a/bin/../lib/gcc/pic32mx/3.4.4/../../../../pic32mx/lib/./proc/32MX795F512L/processor.o
                                                  build/mega/production/startup.o
C1FIFOUA22CLR                                     /Applications/microchip/mplabc32/v1.11a/bin/../lib/gcc/pic32mx/3.4.4/../../../../pic32mx/lib/./proc/32MX795F512L/processor.o
                                                  build/mega/production/startup.o
C1FIFOUA22INV                                     /Applications/microchip/mplabc32/v1.11a/bin/../lib/gcc/pic32mx/3.4.4/../../../../pic32mx/lib/./proc/32MX795F512L/processor.o
                                                  build/mega/production/startup.o
C1FIFOUA22SET                                     /Applications/microchip/mplabc32/v1.11a/bin/../lib/gcc/pic32mx/3.4.4/../../../../pic32mx/lib/./proc/32MX795F512L/processor.o
                                                  build/mega/production/startup.o
C1FIFOUA23                                        /Applications/microchip/mplabc32/v1.11a/bin/../lib/gcc/pic32mx/3.4.4/../../../../pic32mx/lib/./proc/32MX795F512L/processor.o
                                                  build/mega/production/startup.o
C1FIFOUA23CLR                                     /Applications/microchip/mplabc32/v1.11a/bin/../lib/gcc/pic32mx/3.4.4/../../../../pic32mx/lib/./proc/32MX795F512L/processor.o
                                                  build/mega/production/startup.o
C1FIFOUA23INV                                     /Applications/microchip/mplabc32/v1.11a/bin/../lib/gcc/pic32mx/3.4.4/../../../../pic32mx/lib/./proc/32MX795F512L/processor.o
                                                  build/mega/production/startup.o
C1FIFOUA23SET                                     /Applications/microchip/mplabc32/v1.11a/bin/../lib/gcc/pic32mx/3.4.4/../../../../pic32mx/lib/./proc/32MX795F512L/processor.o
                                                  build/mega/production/startup.o
C1FIFOUA24                                        /Applications/microchip/mplabc32/v1.11a/bin/../lib/gcc/pic32mx/3.4.4/../../../../pic32mx/lib/./proc/32MX795F512L/processor.o
                                                  build/mega/production/startup.o
C1FIFOUA24CLR                                     /Applications/microchip/mplabc32/v1.11a/bin/../lib/gcc/pic32mx/3.4.4/../../../../pic32mx/lib/./proc/32MX795F512L/processor.o
                                                  build/mega/production/startup.o
C1FIFOUA24INV                                     /Applications/microchip/mplabc32/v1.11a/bin/../lib/gcc/pic32mx/3.4.4/../../../../pic32mx/lib/./proc/32MX795F512L/processor.o
                                                  build/mega/production/startup.o
C1FIFOUA24SET                                     /Applications/microchip/mplabc32/v1.11a/bin/../lib/gcc/pic32mx/3.4.4/../../../../pic32mx/lib/./proc/32MX795F512L/processor.o
                                                  build/mega/production/startup.o
C1FIFOUA25                                        /Applications/microchip/mplabc32/v1.11a/bin/../lib/gcc/pic32mx/3.4.4/../../../../pic32mx/lib/./proc/32MX795F512L/processor.o
                                                  build/mega/production/startup.o
C1FIFOUA25CLR                                     /Applications/microchip/mplabc32/v1.11a/bin/../lib/gcc/pic32mx/3.4.4/../../../../pic32mx/lib/./proc/32MX795F512L/processor.o
                                                  build/mega/production/startup.o
C1FIFOUA25INV                                     /Applications/microchip/mplabc32/v1.11a/bin/../lib/gcc/pic32mx/3.4.4/../../../../pic32mx/lib/./proc/32MX795F512L/processor.o
                                                  build/mega/production/startup.o
C1FIFOUA25SET                                     /Applications/microchip/mplabc32/v1.11a/bin/../lib/gcc/pic32mx/3.4.4/../../../../pic32mx/lib/./proc/32MX795F512L/processor.o
                                                  build/mega/production/startup.o
C1FIFOUA26                                        /Applications/microchip/mplabc32/v1.11a/bin/../lib/gcc/pic32mx/3.4.4/../../../../pic32mx/lib/./proc/32MX795F512L/processor.o
                                                  build/mega/production/startup.o
C1FIFOUA26CLR                                     /Applications/microchip/mplabc32/v1.11a/bin/../lib/gcc/pic32mx/3.4.4/../../../../pic32mx/lib/./proc/32MX795F512L/processor.o
                                                  build/mega/production/startup.o
C1FIFOUA26INV                                     /Applications/microchip/mplabc32/v1.11a/bin/../lib/gcc/pic32mx/3.4.4/../../../../pic32mx/lib/./proc/32MX795F512L/processor.o
                                                  build/mega/production/startup.o
C1FIFOUA26SET                                     /Applications/microchip/mplabc32/v1.11a/bin/../lib/gcc/pic32mx/3.4.4/../../../../pic32mx/lib/./proc/32MX795F512L/processor.o
                                                  build/mega/production/startup.o
C1FIFOUA27                                        /Applications/microchip/mplabc32/v1.11a/bin/../lib/gcc/pic32mx/3.4.4/../../../../pic32mx/lib/./proc/32MX795F512L/processor.o
                                                  build/mega/production/startup.o
C1FIFOUA27CLR                                     /Applications/microchip/mplabc32/v1.11a/bin/../lib/gcc/pic32mx/3.4.4/../../../../pic32mx/lib/./proc/32MX795F512L/processor.o
                                                  build/mega/production/startup.o
C1FIFOUA27INV                                     /Applications/microchip/mplabc32/v1.11a/bin/../lib/gcc/pic32mx/3.4.4/../../../../pic32mx/lib/./proc/32MX795F512L/processor.o
                                                  build/mega/production/startup.o
C1FIFOUA27SET                                     /Applications/microchip/mplabc32/v1.11a/bin/../lib/gcc/pic32mx/3.4.4/../../../../pic32mx/lib/./proc/32MX795F512L/processor.o
                                                  build/mega/production/startup.o
C1FIFOUA28                                        /Applications/microchip/mplabc32/v1.11a/bin/../lib/gcc/pic32mx/3.4.4/../../../../pic32mx/lib/./proc/32MX795F512L/processor.o
                                                  build/mega/production/startup.o
C1FIFOUA28CLR                                     /Applications/microchip/mplabc32/v1.11a/bin/../lib/gcc/pic32mx/3.4.4/../../../../pic32mx/lib/./proc/32MX795F512L/processor.o
                                                  build/mega/production/startup.o
C1FIFOUA28INV                                     /Applications/microchip/mplabc32/v1.11a/bin/../lib/gcc/pic32mx/3.4.4/../../../../pic32mx/lib/./proc/32MX795F512L/processor.o
                                                  build/mega/production/startup.o
C1FIFOUA28SET                                     /Applications/microchip/mplabc32/v1.11a/bin/../lib/gcc/pic32mx/3.4.4/../../../../pic32mx/lib/./proc/32MX795F512L/processor.o
                                                  build/mega/production/startup.o
C1FIFOUA29                                        /Applications/microchip/mplabc32/v1.11a/bin/../lib/gcc/pic32mx/3.4.4/../../../../pic32mx/lib/./proc/32MX795F512L/processor.o
                                                  build/mega/production/startup.o
C1FIFOUA29CLR                                     /Applications/microchip/mplabc32/v1.11a/bin/../lib/gcc/pic32mx/3.4.4/../../../../pic32mx/lib/./proc/32MX795F512L/processor.o
                                                  build/mega/production/startup.o
C1FIFOUA29INV                                     /Applications/microchip/mplabc32/v1.11a/bin/../lib/gcc/pic32mx/3.4.4/../../../../pic32mx/lib/./proc/32MX795F512L/processor.o
                                                  build/mega/production/startup.o
C1FIFOUA29SET                                     /Applications/microchip/mplabc32/v1.11a/bin/../lib/gcc/pic32mx/3.4.4/../../../../pic32mx/lib/./proc/32MX795F512L/processor.o
                                                  build/mega/production/startup.o
C1FIFOUA2CLR                                      /Applications/microchip/mplabc32/v1.11a/bin/../lib/gcc/pic32mx/3.4.4/../../../../pic32mx/lib/./proc/32MX795F512L/processor.o
                                                  build/mega/production/startup.o
C1FIFOUA2INV                                      /Applications/microchip/mplabc32/v1.11a/bin/../lib/gcc/pic32mx/3.4.4/../../../../pic32mx/lib/./proc/32MX795F512L/processor.o
                                                  build/mega/production/startup.o
C1FIFOUA2SET                                      /Applications/microchip/mplabc32/v1.11a/bin/../lib/gcc/pic32mx/3.4.4/../../../../pic32mx/lib/./proc/32MX795F512L/processor.o
                                                  build/mega/production/startup.o
C1FIFOUA3                                         /Applications/microchip/mplabc32/v1.11a/bin/../lib/gcc/pic32mx/3.4.4/../../../../pic32mx/lib/./proc/32MX795F512L/processor.o
                                                  build/mega/production/startup.o
C1FIFOUA30                                        /Applications/microchip/mplabc32/v1.11a/bin/../lib/gcc/pic32mx/3.4.4/../../../../pic32mx/lib/./proc/32MX795F512L/processor.o
                                                  build/mega/production/startup.o
C1FIFOUA30CLR                                     /Applications/microchip/mplabc32/v1.11a/bin/../lib/gcc/pic32mx/3.4.4/../../../../pic32mx/lib/./proc/32MX795F512L/processor.o
                                                  build/mega/production/startup.o
C1FIFOUA30INV                                     /Applications/microchip/mplabc32/v1.11a/bin/../lib/gcc/pic32mx/3.4.4/../../../../pic32mx/lib/./proc/32MX795F512L/processor.o
                                                  build/mega/production/startup.o
C1FIFOUA30SET                                     /Applications/microchip/mplabc32/v1.11a/bin/../lib/gcc/pic32mx/3.4.4/../../../../pic32mx/lib/./proc/32MX795F512L/processor.o
                                                  build/mega/production/startup.o
C1FIFOUA31                                        /Applications/microchip/mplabc32/v1.11a/bin/../lib/gcc/pic32mx/3.4.4/../../../../pic32mx/lib/./proc/32MX795F512L/processor.o
                                                  build/mega/production/startup.o
C1FIFOUA31CLR                                     /Applications/microchip/mplabc32/v1.11a/bin/../lib/gcc/pic32mx/3.4.4/../../../../pic32mx/lib/./proc/32MX795F512L/processor.o
                                                  build/mega/production/startup.o
C1FIFOUA31INV                                     /Applications/microchip/mplabc32/v1.11a/bin/../lib/gcc/pic32mx/3.4.4/../../../../pic32mx/lib/./proc/32MX795F512L/processor.o
                                                  build/mega/production/startup.o
C1FIFOUA31SET                                     /Applications/microchip/mplabc32/v1.11a/bin/../lib/gcc/pic32mx/3.4.4/../../../../pic32mx/lib/./proc/32MX795F512L/processor.o
                                                  build/mega/production/startup.o
C1FIFOUA3CLR                                      /Applications/microchip/mplabc32/v1.11a/bin/../lib/gcc/pic32mx/3.4.4/../../../../pic32mx/lib/./proc/32MX795F512L/processor.o
                                                  build/mega/production/startup.o
C1FIFOUA3INV                                      /Applications/microchip/mplabc32/v1.11a/bin/../lib/gcc/pic32mx/3.4.4/../../../../pic32mx/lib/./proc/32MX795F512L/processor.o
                                                  build/mega/production/startup.o
C1FIFOUA3SET                                      /Applications/microchip/mplabc32/v1.11a/bin/../lib/gcc/pic32mx/3.4.4/../../../../pic32mx/lib/./proc/32MX795F512L/processor.o
                                                  build/mega/production/startup.o
C1FIFOUA4                                         /Applications/microchip/mplabc32/v1.11a/bin/../lib/gcc/pic32mx/3.4.4/../../../../pic32mx/lib/./proc/32MX795F512L/processor.o
                                                  build/mega/production/startup.o
C1FIFOUA4CLR                                      /Applications/microchip/mplabc32/v1.11a/bin/../lib/gcc/pic32mx/3.4.4/../../../../pic32mx/lib/./proc/32MX795F512L/processor.o
                                                  build/mega/production/startup.o
C1FIFOUA4INV                                      /Applications/microchip/mplabc32/v1.11a/bin/../lib/gcc/pic32mx/3.4.4/../../../../pic32mx/lib/./proc/32MX795F512L/processor.o
                                                  build/mega/production/startup.o
C1FIFOUA4SET                                      /Applications/microchip/mplabc32/v1.11a/bin/../lib/gcc/pic32mx/3.4.4/../../../../pic32mx/lib/./proc/32MX795F512L/processor.o
                                                  build/mega/production/startup.o
C1FIFOUA5                                         /Applications/microchip/mplabc32/v1.11a/bin/../lib/gcc/pic32mx/3.4.4/../../../../pic32mx/lib/./proc/32MX795F512L/processor.o
                                                  build/mega/production/startup.o
C1FIFOUA5CLR                                      /Applications/microchip/mplabc32/v1.11a/bin/../lib/gcc/pic32mx/3.4.4/../../../../pic32mx/lib/./proc/32MX795F512L/processor.o
                                                  build/mega/production/startup.o
C1FIFOUA5INV                                      /Applications/microchip/mplabc32/v1.11a/bin/../lib/gcc/pic32mx/3.4.4/../../../../pic32mx/lib/./proc/32MX795F512L/processor.o
                                                  build/mega/production/startup.o
C1FIFOUA5SET                                      /Applications/microchip/mplabc32/v1.11a/bin/../lib/gcc/pic32mx/3.4.4/../../../../pic32mx/lib/./proc/32MX795F512L/processor.o
                                                  build/mega/production/startup.o
C1FIFOUA6                                         /Applications/microchip/mplabc32/v1.11a/bin/../lib/gcc/pic32mx/3.4.4/../../../../pic32mx/lib/./proc/32MX795F512L/processor.o
                                                  build/mega/production/startup.o
C1FIFOUA6CLR                                      /Applications/microchip/mplabc32/v1.11a/bin/../lib/gcc/pic32mx/3.4.4/../../../../pic32mx/lib/./proc/32MX795F512L/processor.o
                                                  build/mega/production/startup.o
C1FIFOUA6INV                                      /Applications/microchip/mplabc32/v1.11a/bin/../lib/gcc/pic32mx/3.4.4/../../../../pic32mx/lib/./proc/32MX795F512L/processor.o
                                                  build/mega/production/startup.o
C1FIFOUA6SET                                      /Applications/microchip/mplabc32/v1.11a/bin/../lib/gcc/pic32mx/3.4.4/../../../../pic32mx/lib/./proc/32MX795F512L/processor.o
                                                  build/mega/production/startup.o
C1FIFOUA7                                         /Applications/microchip/mplabc32/v1.11a/bin/../lib/gcc/pic32mx/3.4.4/../../../../pic32mx/lib/./proc/32MX795F512L/processor.o
                                                  build/mega/production/startup.o
C1FIFOUA7CLR                                      /Applications/microchip/mplabc32/v1.11a/bin/../lib/gcc/pic32mx/3.4.4/../../../../pic32mx/lib/./proc/32MX795F512L/processor.o
                                                  build/mega/production/startup.o
C1FIFOUA7INV                                      /Applications/microchip/mplabc32/v1.11a/bin/../lib/gcc/pic32mx/3.4.4/../../../../pic32mx/lib/./proc/32MX795F512L/processor.o
                                                  build/mega/production/startup.o
C1FIFOUA7SET                                      /Applications/microchip/mplabc32/v1.11a/bin/../lib/gcc/pic32mx/3.4.4/../../../../pic32mx/lib/./proc/32MX795F512L/processor.o
                                                  build/mega/production/startup.o
C1FIFOUA8                                         /Applications/microchip/mplabc32/v1.11a/bin/../lib/gcc/pic32mx/3.4.4/../../../../pic32mx/lib/./proc/32MX795F512L/processor.o
                                                  build/mega/production/startup.o
C1FIFOUA8CLR                                      /Applications/microchip/mplabc32/v1.11a/bin/../lib/gcc/pic32mx/3.4.4/../../../../pic32mx/lib/./proc/32MX795F512L/processor.o
                                                  build/mega/production/startup.o
C1FIFOUA8INV                                      /Applications/microchip/mplabc32/v1.11a/bin/../lib/gcc/pic32mx/3.4.4/../../../../pic32mx/lib/./proc/32MX795F512L/processor.o
                                                  build/mega/production/startup.o
C1FIFOUA8SET                                      /Applications/microchip/mplabc32/v1.11a/bin/../lib/gcc/pic32mx/3.4.4/../../../../pic32mx/lib/./proc/32MX795F512L/processor.o
                                                  build/mega/production/startup.o
C1FIFOUA9                                         /Applications/microchip/mplabc32/v1.11a/bin/../lib/gcc/pic32mx/3.4.4/../../../../pic32mx/lib/./proc/32MX795F512L/processor.o
                                                  build/mega/production/startup.o
C1FIFOUA9CLR                                      /Applications/microchip/mplabc32/v1.11a/bin/../lib/gcc/pic32mx/3.4.4/../../../../pic32mx/lib/./proc/32MX795F512L/processor.o
                                                  build/mega/production/startup.o
C1FIFOUA9INV                                      /Applications/microchip/mplabc32/v1.11a/bin/../lib/gcc/pic32mx/3.4.4/../../../../pic32mx/lib/./proc/32MX795F512L/processor.o
                                                  build/mega/production/startup.o
C1FIFOUA9SET                                      /Applications/microchip/mplabc32/v1.11a/bin/../lib/gcc/pic32mx/3.4.4/../../../../pic32mx/lib/./proc/32MX795F512L/processor.o
                                                  build/mega/production/startup.o
C1FLTCON0                                         /Applications/microchip/mplabc32/v1.11a/bin/../lib/gcc/pic32mx/3.4.4/../../../../pic32mx/lib/./proc/32MX795F512L/processor.o
                                                  build/mega/production/startup.o
C1FLTCON0CLR                                      /Applications/microchip/mplabc32/v1.11a/bin/../lib/gcc/pic32mx/3.4.4/../../../../pic32mx/lib/./proc/32MX795F512L/processor.o
                                                  build/mega/production/startup.o
C1FLTCON0INV                                      /Applications/microchip/mplabc32/v1.11a/bin/../lib/gcc/pic32mx/3.4.4/../../../../pic32mx/lib/./proc/32MX795F512L/processor.o
                                                  build/mega/production/startup.o
C1FLTCON0SET                                      /Applications/microchip/mplabc32/v1.11a/bin/../lib/gcc/pic32mx/3.4.4/../../../../pic32mx/lib/./proc/32MX795F512L/processor.o
                                                  build/mega/production/startup.o
C1FLTCON1                                         /Applications/microchip/mplabc32/v1.11a/bin/../lib/gcc/pic32mx/3.4.4/../../../../pic32mx/lib/./proc/32MX795F512L/processor.o
                                                  build/mega/production/startup.o
C1FLTCON1CLR                                      /Applications/microchip/mplabc32/v1.11a/bin/../lib/gcc/pic32mx/3.4.4/../../../../pic32mx/lib/./proc/32MX795F512L/processor.o
                                                  build/mega/production/startup.o
C1FLTCON1INV                                      /Applications/microchip/mplabc32/v1.11a/bin/../lib/gcc/pic32mx/3.4.4/../../../../pic32mx/lib/./proc/32MX795F512L/processor.o
                                                  build/mega/production/startup.o
C1FLTCON1SET                                      /Applications/microchip/mplabc32/v1.11a/bin/../lib/gcc/pic32mx/3.4.4/../../../../pic32mx/lib/./proc/32MX795F512L/processor.o
                                                  build/mega/production/startup.o
C1FLTCON2                                         /Applications/microchip/mplabc32/v1.11a/bin/../lib/gcc/pic32mx/3.4.4/../../../../pic32mx/lib/./proc/32MX795F512L/processor.o
                                                  build/mega/production/startup.o
C1FLTCON2CLR                                      /Applications/microchip/mplabc32/v1.11a/bin/../lib/gcc/pic32mx/3.4.4/../../../../pic32mx/lib/./proc/32MX795F512L/processor.o
                                                  build/mega/production/startup.o
C1FLTCON2INV                                      /Applications/microchip/mplabc32/v1.11a/bin/../lib/gcc/pic32mx/3.4.4/../../../../pic32mx/lib/./proc/32MX795F512L/processor.o
                                                  build/mega/production/startup.o
C1FLTCON2SET                                      /Applications/microchip/mplabc32/v1.11a/bin/../lib/gcc/pic32mx/3.4.4/../../../../pic32mx/lib/./proc/32MX795F512L/processor.o
                                                  build/mega/production/startup.o
C1FLTCON3                                         /Applications/microchip/mplabc32/v1.11a/bin/../lib/gcc/pic32mx/3.4.4/../../../../pic32mx/lib/./proc/32MX795F512L/processor.o
                                                  build/mega/production/startup.o
C1FLTCON3CLR                                      /Applications/microchip/mplabc32/v1.11a/bin/../lib/gcc/pic32mx/3.4.4/../../../../pic32mx/lib/./proc/32MX795F512L/processor.o
                                                  build/mega/production/startup.o
C1FLTCON3INV                                      /Applications/microchip/mplabc32/v1.11a/bin/../lib/gcc/pic32mx/3.4.4/../../../../pic32mx/lib/./proc/32MX795F512L/processor.o
                                                  build/mega/production/startup.o
C1FLTCON3SET                                      /Applications/microchip/mplabc32/v1.11a/bin/../lib/gcc/pic32mx/3.4.4/../../../../pic32mx/lib/./proc/32MX795F512L/processor.o
                                                  build/mega/production/startup.o
C1FLTCON4                                         /Applications/microchip/mplabc32/v1.11a/bin/../lib/gcc/pic32mx/3.4.4/../../../../pic32mx/lib/./proc/32MX795F512L/processor.o
                                                  build/mega/production/startup.o
C1FLTCON4CLR                                      /Applications/microchip/mplabc32/v1.11a/bin/../lib/gcc/pic32mx/3.4.4/../../../../pic32mx/lib/./proc/32MX795F512L/processor.o
                                                  build/mega/production/startup.o
C1FLTCON4INV                                      /Applications/microchip/mplabc32/v1.11a/bin/../lib/gcc/pic32mx/3.4.4/../../../../pic32mx/lib/./proc/32MX795F512L/processor.o
                                                  build/mega/production/startup.o
C1FLTCON4SET                                      /Applications/microchip/mplabc32/v1.11a/bin/../lib/gcc/pic32mx/3.4.4/../../../../pic32mx/lib/./proc/32MX795F512L/processor.o
                                                  build/mega/production/startup.o
C1FLTCON5                                         /Applications/microchip/mplabc32/v1.11a/bin/../lib/gcc/pic32mx/3.4.4/../../../../pic32mx/lib/./proc/32MX795F512L/processor.o
                                                  build/mega/production/startup.o
C1FLTCON5CLR                                      /Applications/microchip/mplabc32/v1.11a/bin/../lib/gcc/pic32mx/3.4.4/../../../../pic32mx/lib/./proc/32MX795F512L/processor.o
                                                  build/mega/production/startup.o
C1FLTCON5INV                                      /Applications/microchip/mplabc32/v1.11a/bin/../lib/gcc/pic32mx/3.4.4/../../../../pic32mx/lib/./proc/32MX795F512L/processor.o
                                                  build/mega/production/startup.o
C1FLTCON5SET                                      /Applications/microchip/mplabc32/v1.11a/bin/../lib/gcc/pic32mx/3.4.4/../../../../pic32mx/lib/./proc/32MX795F512L/processor.o
                                                  build/mega/production/startup.o
C1FLTCON6                                         /Applications/microchip/mplabc32/v1.11a/bin/../lib/gcc/pic32mx/3.4.4/../../../../pic32mx/lib/./proc/32MX795F512L/processor.o
                                                  build/mega/production/startup.o
C1FLTCON6CLR                                      /Applications/microchip/mplabc32/v1.11a/bin/../lib/gcc/pic32mx/3.4.4/../../../../pic32mx/lib/./proc/32MX795F512L/processor.o
                                                  build/mega/production/startup.o
C1FLTCON6INV                                      /Applications/microchip/mplabc32/v1.11a/bin/../lib/gcc/pic32mx/3.4.4/../../../../pic32mx/lib/./proc/32MX795F512L/processor.o
                                                  build/mega/production/startup.o
C1FLTCON6SET                                      /Applications/microchip/mplabc32/v1.11a/bin/../lib/gcc/pic32mx/3.4.4/../../../../pic32mx/lib/./proc/32MX795F512L/processor.o
                                                  build/mega/production/startup.o
C1FLTCON7                                         /Applications/microchip/mplabc32/v1.11a/bin/../lib/gcc/pic32mx/3.4.4/../../../../pic32mx/lib/./proc/32MX795F512L/processor.o
                                                  build/mega/production/startup.o
C1FLTCON7CLR                                      /Applications/microchip/mplabc32/v1.11a/bin/../lib/gcc/pic32mx/3.4.4/../../../../pic32mx/lib/./proc/32MX795F512L/processor.o
                                                  build/mega/production/startup.o
C1FLTCON7INV                                      /Applications/microchip/mplabc32/v1.11a/bin/../lib/gcc/pic32mx/3.4.4/../../../../pic32mx/lib/./proc/32MX795F512L/processor.o
                                                  build/mega/production/startup.o
C1FLTCON7SET                                      /Applications/microchip/mplabc32/v1.11a/bin/../lib/gcc/pic32mx/3.4.4/../../../../pic32mx/lib/./proc/32MX795F512L/processor.o
                                                  build/mega/production/startup.o
C1FSTAT                                           /Applications/microchip/mplabc32/v1.11a/bin/../lib/gcc/pic32mx/3.4.4/../../../../pic32mx/lib/./proc/32MX795F512L/processor.o
                                                  build/mega/production/startup.o
C1FSTATCLR                                        /Applications/microchip/mplabc32/v1.11a/bin/../lib/gcc/pic32mx/3.4.4/../../../../pic32mx/lib/./proc/32MX795F512L/processor.o
                                                  build/mega/production/startup.o
C1FSTATINV                                        /Applications/microchip/mplabc32/v1.11a/bin/../lib/gcc/pic32mx/3.4.4/../../../../pic32mx/lib/./proc/32MX795F512L/processor.o
                                                  build/mega/production/startup.o
C1FSTATSET                                        /Applications/microchip/mplabc32/v1.11a/bin/../lib/gcc/pic32mx/3.4.4/../../../../pic32mx/lib/./proc/32MX795F512L/processor.o
                                                  build/mega/production/startup.o
C1INT                                             /Applications/microchip/mplabc32/v1.11a/bin/../lib/gcc/pic32mx/3.4.4/../../../../pic32mx/lib/./proc/32MX795F512L/processor.o
                                                  build/mega/production/startup.o
C1INTCLR                                          /Applications/microchip/mplabc32/v1.11a/bin/../lib/gcc/pic32mx/3.4.4/../../../../pic32mx/lib/./proc/32MX795F512L/processor.o
                                                  build/mega/production/startup.o
C1INTINV                                          /Applications/microchip/mplabc32/v1.11a/bin/../lib/gcc/pic32mx/3.4.4/../../../../pic32mx/lib/./proc/32MX795F512L/processor.o
                                                  build/mega/production/startup.o
C1INTSET                                          /Applications/microchip/mplabc32/v1.11a/bin/../lib/gcc/pic32mx/3.4.4/../../../../pic32mx/lib/./proc/32MX795F512L/processor.o
                                                  build/mega/production/startup.o
C1RXF0                                            /Applications/microchip/mplabc32/v1.11a/bin/../lib/gcc/pic32mx/3.4.4/../../../../pic32mx/lib/./proc/32MX795F512L/processor.o
                                                  build/mega/production/startup.o
C1RXF0CLR                                         /Applications/microchip/mplabc32/v1.11a/bin/../lib/gcc/pic32mx/3.4.4/../../../../pic32mx/lib/./proc/32MX795F512L/processor.o
                                                  build/mega/production/startup.o
C1RXF0INV                                         /Applications/microchip/mplabc32/v1.11a/bin/../lib/gcc/pic32mx/3.4.4/../../../../pic32mx/lib/./proc/32MX795F512L/processor.o
                                                  build/mega/production/startup.o
C1RXF0SET                                         /Applications/microchip/mplabc32/v1.11a/bin/../lib/gcc/pic32mx/3.4.4/../../../../pic32mx/lib/./proc/32MX795F512L/processor.o
                                                  build/mega/production/startup.o
C1RXF1                                            /Applications/microchip/mplabc32/v1.11a/bin/../lib/gcc/pic32mx/3.4.4/../../../../pic32mx/lib/./proc/32MX795F512L/processor.o
                                                  build/mega/production/startup.o
C1RXF10                                           /Applications/microchip/mplabc32/v1.11a/bin/../lib/gcc/pic32mx/3.4.4/../../../../pic32mx/lib/./proc/32MX795F512L/processor.o
                                                  build/mega/production/startup.o
C1RXF10CLR                                        /Applications/microchip/mplabc32/v1.11a/bin/../lib/gcc/pic32mx/3.4.4/../../../../pic32mx/lib/./proc/32MX795F512L/processor.o
                                                  build/mega/production/startup.o
C1RXF10INV                                        /Applications/microchip/mplabc32/v1.11a/bin/../lib/gcc/pic32mx/3.4.4/../../../../pic32mx/lib/./proc/32MX795F512L/processor.o
                                                  build/mega/production/startup.o
C1RXF10SET                                        /Applications/microchip/mplabc32/v1.11a/bin/../lib/gcc/pic32mx/3.4.4/../../../../pic32mx/lib/./proc/32MX795F512L/processor.o
                                                  build/mega/production/startup.o
C1RXF11                                           /Applications/microchip/mplabc32/v1.11a/bin/../lib/gcc/pic32mx/3.4.4/../../../../pic32mx/lib/./proc/32MX795F512L/processor.o
                                                  build/mega/production/startup.o
C1RXF11CLR                                        /Applications/microchip/mplabc32/v1.11a/bin/../lib/gcc/pic32mx/3.4.4/../../../../pic32mx/lib/./proc/32MX795F512L/processor.o
                                                  build/mega/production/startup.o
C1RXF11INV                                        /Applications/microchip/mplabc32/v1.11a/bin/../lib/gcc/pic32mx/3.4.4/../../../../pic32mx/lib/./proc/32MX795F512L/processor.o
                                                  build/mega/production/startup.o
C1RXF11SET                                        /Applications/microchip/mplabc32/v1.11a/bin/../lib/gcc/pic32mx/3.4.4/../../../../pic32mx/lib/./proc/32MX795F512L/processor.o
                                                  build/mega/production/startup.o
C1RXF12                                           /Applications/microchip/mplabc32/v1.11a/bin/../lib/gcc/pic32mx/3.4.4/../../../../pic32mx/lib/./proc/32MX795F512L/processor.o
                                                  build/mega/production/startup.o
C1RXF12CLR                                        /Applications/microchip/mplabc32/v1.11a/bin/../lib/gcc/pic32mx/3.4.4/../../../../pic32mx/lib/./proc/32MX795F512L/processor.o
                                                  build/mega/production/startup.o
C1RXF12INV                                        /Applications/microchip/mplabc32/v1.11a/bin/../lib/gcc/pic32mx/3.4.4/../../../../pic32mx/lib/./proc/32MX795F512L/processor.o
                                                  build/mega/production/startup.o
C1RXF12SET                                        /Applications/microchip/mplabc32/v1.11a/bin/../lib/gcc/pic32mx/3.4.4/../../../../pic32mx/lib/./proc/32MX795F512L/processor.o
                                                  build/mega/production/startup.o
C1RXF13                                           /Applications/microchip/mplabc32/v1.11a/bin/../lib/gcc/pic32mx/3.4.4/../../../../pic32mx/lib/./proc/32MX795F512L/processor.o
                                                  build/mega/production/startup.o
C1RXF13CLR                                        /Applications/microchip/mplabc32/v1.11a/bin/../lib/gcc/pic32mx/3.4.4/../../../../pic32mx/lib/./proc/32MX795F512L/processor.o
                                                  build/mega/production/startup.o
C1RXF13INV                                        /Applications/microchip/mplabc32/v1.11a/bin/../lib/gcc/pic32mx/3.4.4/../../../../pic32mx/lib/./proc/32MX795F512L/processor.o
                                                  build/mega/production/startup.o
C1RXF13SET                                        /Applications/microchip/mplabc32/v1.11a/bin/../lib/gcc/pic32mx/3.4.4/../../../../pic32mx/lib/./proc/32MX795F512L/processor.o
                                                  build/mega/production/startup.o
C1RXF14                                           /Applications/microchip/mplabc32/v1.11a/bin/../lib/gcc/pic32mx/3.4.4/../../../../pic32mx/lib/./proc/32MX795F512L/processor.o
                                                  build/mega/production/startup.o
C1RXF14CLR                                        /Applications/microchip/mplabc32/v1.11a/bin/../lib/gcc/pic32mx/3.4.4/../../../../pic32mx/lib/./proc/32MX795F512L/processor.o
                                                  build/mega/production/startup.o
C1RXF14INV                                        /Applications/microchip/mplabc32/v1.11a/bin/../lib/gcc/pic32mx/3.4.4/../../../../pic32mx/lib/./proc/32MX795F512L/processor.o
                                                  build/mega/production/startup.o
C1RXF14SET                                        /Applications/microchip/mplabc32/v1.11a/bin/../lib/gcc/pic32mx/3.4.4/../../../../pic32mx/lib/./proc/32MX795F512L/processor.o
                                                  build/mega/production/startup.o
C1RXF15                                           /Applications/microchip/mplabc32/v1.11a/bin/../lib/gcc/pic32mx/3.4.4/../../../../pic32mx/lib/./proc/32MX795F512L/processor.o
                                                  build/mega/production/startup.o
C1RXF15CLR                                        /Applications/microchip/mplabc32/v1.11a/bin/../lib/gcc/pic32mx/3.4.4/../../../../pic32mx/lib/./proc/32MX795F512L/processor.o
                                                  build/mega/production/startup.o
C1RXF15INV                                        /Applications/microchip/mplabc32/v1.11a/bin/../lib/gcc/pic32mx/3.4.4/../../../../pic32mx/lib/./proc/32MX795F512L/processor.o
                                                  build/mega/production/startup.o
C1RXF15SET                                        /Applications/microchip/mplabc32/v1.11a/bin/../lib/gcc/pic32mx/3.4.4/../../../../pic32mx/lib/./proc/32MX795F512L/processor.o
                                                  build/mega/production/startup.o
C1RXF16                                           /Applications/microchip/mplabc32/v1.11a/bin/../lib/gcc/pic32mx/3.4.4/../../../../pic32mx/lib/./proc/32MX795F512L/processor.o
                                                  build/mega/production/startup.o
C1RXF16CLR                                        /Applications/microchip/mplabc32/v1.11a/bin/../lib/gcc/pic32mx/3.4.4/../../../../pic32mx/lib/./proc/32MX795F512L/processor.o
                                                  build/mega/production/startup.o
C1RXF16INV                                        /Applications/microchip/mplabc32/v1.11a/bin/../lib/gcc/pic32mx/3.4.4/../../../../pic32mx/lib/./proc/32MX795F512L/processor.o
                                                  build/mega/production/startup.o
C1RXF16SET                                        /Applications/microchip/mplabc32/v1.11a/bin/../lib/gcc/pic32mx/3.4.4/../../../../pic32mx/lib/./proc/32MX795F512L/processor.o
                                                  build/mega/production/startup.o
C1RXF17                                           /Applications/microchip/mplabc32/v1.11a/bin/../lib/gcc/pic32mx/3.4.4/../../../../pic32mx/lib/./proc/32MX795F512L/processor.o
                                                  build/mega/production/startup.o
C1RXF17CLR                                        /Applications/microchip/mplabc32/v1.11a/bin/../lib/gcc/pic32mx/3.4.4/../../../../pic32mx/lib/./proc/32MX795F512L/processor.o
                                                  build/mega/production/startup.o
C1RXF17INV                                        /Applications/microchip/mplabc32/v1.11a/bin/../lib/gcc/pic32mx/3.4.4/../../../../pic32mx/lib/./proc/32MX795F512L/processor.o
                                                  build/mega/production/startup.o
C1RXF17SET                                        /Applications/microchip/mplabc32/v1.11a/bin/../lib/gcc/pic32mx/3.4.4/../../../../pic32mx/lib/./proc/32MX795F512L/processor.o
                                                  build/mega/production/startup.o
C1RXF18                                           /Applications/microchip/mplabc32/v1.11a/bin/../lib/gcc/pic32mx/3.4.4/../../../../pic32mx/lib/./proc/32MX795F512L/processor.o
                                                  build/mega/production/startup.o
C1RXF18CLR                                        /Applications/microchip/mplabc32/v1.11a/bin/../lib/gcc/pic32mx/3.4.4/../../../../pic32mx/lib/./proc/32MX795F512L/processor.o
                                                  build/mega/production/startup.o
C1RXF18INV                                        /Applications/microchip/mplabc32/v1.11a/bin/../lib/gcc/pic32mx/3.4.4/../../../../pic32mx/lib/./proc/32MX795F512L/processor.o
                                                  build/mega/production/startup.o
C1RXF18SET                                        /Applications/microchip/mplabc32/v1.11a/bin/../lib/gcc/pic32mx/3.4.4/../../../../pic32mx/lib/./proc/32MX795F512L/processor.o
                                                  build/mega/production/startup.o
C1RXF19                                           /Applications/microchip/mplabc32/v1.11a/bin/../lib/gcc/pic32mx/3.4.4/../../../../pic32mx/lib/./proc/32MX795F512L/processor.o
                                                  build/mega/production/startup.o
C1RXF19CLR                                        /Applications/microchip/mplabc32/v1.11a/bin/../lib/gcc/pic32mx/3.4.4/../../../../pic32mx/lib/./proc/32MX795F512L/processor.o
                                                  build/mega/production/startup.o
C1RXF19INV                                        /Applications/microchip/mplabc32/v1.11a/bin/../lib/gcc/pic32mx/3.4.4/../../../../pic32mx/lib/./proc/32MX795F512L/processor.o
                                                  build/mega/production/startup.o
C1RXF19SET                                        /Applications/microchip/mplabc32/v1.11a/bin/../lib/gcc/pic32mx/3.4.4/../../../../pic32mx/lib/./proc/32MX795F512L/processor.o
                                                  build/mega/production/startup.o
C1RXF1CLR                                         /Applications/microchip/mplabc32/v1.11a/bin/../lib/gcc/pic32mx/3.4.4/../../../../pic32mx/lib/./proc/32MX795F512L/processor.o
                                                  build/mega/production/startup.o
C1RXF1INV                                         /Applications/microchip/mplabc32/v1.11a/bin/../lib/gcc/pic32mx/3.4.4/../../../../pic32mx/lib/./proc/32MX795F512L/processor.o
                                                  build/mega/production/startup.o
C1RXF1SET                                         /Applications/microchip/mplabc32/v1.11a/bin/../lib/gcc/pic32mx/3.4.4/../../../../pic32mx/lib/./proc/32MX795F512L/processor.o
                                                  build/mega/production/startup.o
C1RXF2                                            /Applications/microchip/mplabc32/v1.11a/bin/../lib/gcc/pic32mx/3.4.4/../../../../pic32mx/lib/./proc/32MX795F512L/processor.o
                                                  build/mega/production/startup.o
C1RXF20                                           /Applications/microchip/mplabc32/v1.11a/bin/../lib/gcc/pic32mx/3.4.4/../../../../pic32mx/lib/./proc/32MX795F512L/processor.o
                                                  build/mega/production/startup.o
C1RXF20CLR                                        /Applications/microchip/mplabc32/v1.11a/bin/../lib/gcc/pic32mx/3.4.4/../../../../pic32mx/lib/./proc/32MX795F512L/processor.o
                                                  build/mega/production/startup.o
C1RXF20INV                                        /Applications/microchip/mplabc32/v1.11a/bin/../lib/gcc/pic32mx/3.4.4/../../../../pic32mx/lib/./proc/32MX795F512L/processor.o
                                                  build/mega/production/startup.o
C1RXF20SET                                        /Applications/microchip/mplabc32/v1.11a/bin/../lib/gcc/pic32mx/3.4.4/../../../../pic32mx/lib/./proc/32MX795F512L/processor.o
                                                  build/mega/production/startup.o
C1RXF21                                           /Applications/microchip/mplabc32/v1.11a/bin/../lib/gcc/pic32mx/3.4.4/../../../../pic32mx/lib/./proc/32MX795F512L/processor.o
                                                  build/mega/production/startup.o
C1RXF21CLR                                        /Applications/microchip/mplabc32/v1.11a/bin/../lib/gcc/pic32mx/3.4.4/../../../../pic32mx/lib/./proc/32MX795F512L/processor.o
                                                  build/mega/production/startup.o
C1RXF21INV                                        /Applications/microchip/mplabc32/v1.11a/bin/../lib/gcc/pic32mx/3.4.4/../../../../pic32mx/lib/./proc/32MX795F512L/processor.o
                                                  build/mega/production/startup.o
C1RXF21SET                                        /Applications/microchip/mplabc32/v1.11a/bin/../lib/gcc/pic32mx/3.4.4/../../../../pic32mx/lib/./proc/32MX795F512L/processor.o
                                                  build/mega/production/startup.o
C1RXF22                                           /Applications/microchip/mplabc32/v1.11a/bin/../lib/gcc/pic32mx/3.4.4/../../../../pic32mx/lib/./proc/32MX795F512L/processor.o
                                                  build/mega/production/startup.o
C1RXF22CLR                                        /Applications/microchip/mplabc32/v1.11a/bin/../lib/gcc/pic32mx/3.4.4/../../../../pic32mx/lib/./proc/32MX795F512L/processor.o
                                                  build/mega/production/startup.o
C1RXF22INV                                        /Applications/microchip/mplabc32/v1.11a/bin/../lib/gcc/pic32mx/3.4.4/../../../../pic32mx/lib/./proc/32MX795F512L/processor.o
                                                  build/mega/production/startup.o
C1RXF22SET                                        /Applications/microchip/mplabc32/v1.11a/bin/../lib/gcc/pic32mx/3.4.4/../../../../pic32mx/lib/./proc/32MX795F512L/processor.o
                                                  build/mega/production/startup.o
C1RXF23                                           /Applications/microchip/mplabc32/v1.11a/bin/../lib/gcc/pic32mx/3.4.4/../../../../pic32mx/lib/./proc/32MX795F512L/processor.o
                                                  build/mega/production/startup.o
C1RXF23CLR                                        /Applications/microchip/mplabc32/v1.11a/bin/../lib/gcc/pic32mx/3.4.4/../../../../pic32mx/lib/./proc/32MX795F512L/processor.o
                                                  build/mega/production/startup.o
C1RXF23INV                                        /Applications/microchip/mplabc32/v1.11a/bin/../lib/gcc/pic32mx/3.4.4/../../../../pic32mx/lib/./proc/32MX795F512L/processor.o
                                                  build/mega/production/startup.o
C1RXF23SET                                        /Applications/microchip/mplabc32/v1.11a/bin/../lib/gcc/pic32mx/3.4.4/../../../../pic32mx/lib/./proc/32MX795F512L/processor.o
                                                  build/mega/production/startup.o
C1RXF24                                           /Applications/microchip/mplabc32/v1.11a/bin/../lib/gcc/pic32mx/3.4.4/../../../../pic32mx/lib/./proc/32MX795F512L/processor.o
                                                  build/mega/production/startup.o
C1RXF24CLR                                        /Applications/microchip/mplabc32/v1.11a/bin/../lib/gcc/pic32mx/3.4.4/../../../../pic32mx/lib/./proc/32MX795F512L/processor.o
                                                  build/mega/production/startup.o
C1RXF24INV                                        /Applications/microchip/mplabc32/v1.11a/bin/../lib/gcc/pic32mx/3.4.4/../../../../pic32mx/lib/./proc/32MX795F512L/processor.o
                                                  build/mega/production/startup.o
C1RXF24SET                                        /Applications/microchip/mplabc32/v1.11a/bin/../lib/gcc/pic32mx/3.4.4/../../../../pic32mx/lib/./proc/32MX795F512L/processor.o
                                                  build/mega/production/startup.o
C1RXF25                                           /Applications/microchip/mplabc32/v1.11a/bin/../lib/gcc/pic32mx/3.4.4/../../../../pic32mx/lib/./proc/32MX795F512L/processor.o
                                                  build/mega/production/startup.o
C1RXF25CLR                                        /Applications/microchip/mplabc32/v1.11a/bin/../lib/gcc/pic32mx/3.4.4/../../../../pic32mx/lib/./proc/32MX795F512L/processor.o
                                                  build/mega/production/startup.o
C1RXF25INV                                        /Applications/microchip/mplabc32/v1.11a/bin/../lib/gcc/pic32mx/3.4.4/../../../../pic32mx/lib/./proc/32MX795F512L/processor.o
                                                  build/mega/production/startup.o
C1RXF25SET                                        /Applications/microchip/mplabc32/v1.11a/bin/../lib/gcc/pic32mx/3.4.4/../../../../pic32mx/lib/./proc/32MX795F512L/processor.o
                                                  build/mega/production/startup.o
C1RXF26                                           /Applications/microchip/mplabc32/v1.11a/bin/../lib/gcc/pic32mx/3.4.4/../../../../pic32mx/lib/./proc/32MX795F512L/processor.o
                                                  build/mega/production/startup.o
C1RXF26CLR                                        /Applications/microchip/mplabc32/v1.11a/bin/../lib/gcc/pic32mx/3.4.4/../../../../pic32mx/lib/./proc/32MX795F512L/processor.o
                                                  build/mega/production/startup.o
C1RXF26INV                                        /Applications/microchip/mplabc32/v1.11a/bin/../lib/gcc/pic32mx/3.4.4/../../../../pic32mx/lib/./proc/32MX795F512L/processor.o
                                                  build/mega/production/startup.o
C1RXF26SET                                        /Applications/microchip/mplabc32/v1.11a/bin/../lib/gcc/pic32mx/3.4.4/../../../../pic32mx/lib/./proc/32MX795F512L/processor.o
                                                  build/mega/production/startup.o
C1RXF27                                           /Applications/microchip/mplabc32/v1.11a/bin/../lib/gcc/pic32mx/3.4.4/../../../../pic32mx/lib/./proc/32MX795F512L/processor.o
                                                  build/mega/production/startup.o
C1RXF27CLR                                        /Applications/microchip/mplabc32/v1.11a/bin/../lib/gcc/pic32mx/3.4.4/../../../../pic32mx/lib/./proc/32MX795F512L/processor.o
                                                  build/mega/production/startup.o
C1RXF27INV                                        /Applications/microchip/mplabc32/v1.11a/bin/../lib/gcc/pic32mx/3.4.4/../../../../pic32mx/lib/./proc/32MX795F512L/processor.o
                                                  build/mega/production/startup.o
C1RXF27SET                                        /Applications/microchip/mplabc32/v1.11a/bin/../lib/gcc/pic32mx/3.4.4/../../../../pic32mx/lib/./proc/32MX795F512L/processor.o
                                                  build/mega/production/startup.o
C1RXF28                                           /Applications/microchip/mplabc32/v1.11a/bin/../lib/gcc/pic32mx/3.4.4/../../../../pic32mx/lib/./proc/32MX795F512L/processor.o
                                                  build/mega/production/startup.o
C1RXF28CLR                                        /Applications/microchip/mplabc32/v1.11a/bin/../lib/gcc/pic32mx/3.4.4/../../../../pic32mx/lib/./proc/32MX795F512L/processor.o
                                                  build/mega/production/startup.o
C1RXF28INV                                        /Applications/microchip/mplabc32/v1.11a/bin/../lib/gcc/pic32mx/3.4.4/../../../../pic32mx/lib/./proc/32MX795F512L/processor.o
                                                  build/mega/production/startup.o
C1RXF28SET                                        /Applications/microchip/mplabc32/v1.11a/bin/../lib/gcc/pic32mx/3.4.4/../../../../pic32mx/lib/./proc/32MX795F512L/processor.o
                                                  build/mega/production/startup.o
C1RXF29                                           /Applications/microchip/mplabc32/v1.11a/bin/../lib/gcc/pic32mx/3.4.4/../../../../pic32mx/lib/./proc/32MX795F512L/processor.o
                                                  build/mega/production/startup.o
C1RXF29CLR                                        /Applications/microchip/mplabc32/v1.11a/bin/../lib/gcc/pic32mx/3.4.4/../../../../pic32mx/lib/./proc/32MX795F512L/processor.o
                                                  build/mega/production/startup.o
C1RXF29INV                                        /Applications/microchip/mplabc32/v1.11a/bin/../lib/gcc/pic32mx/3.4.4/../../../../pic32mx/lib/./proc/32MX795F512L/processor.o
                                                  build/mega/production/startup.o
C1RXF29SET                                        /Applications/microchip/mplabc32/v1.11a/bin/../lib/gcc/pic32mx/3.4.4/../../../../pic32mx/lib/./proc/32MX795F512L/processor.o
                                                  build/mega/production/startup.o
C1RXF2CLR                                         /Applications/microchip/mplabc32/v1.11a/bin/../lib/gcc/pic32mx/3.4.4/../../../../pic32mx/lib/./proc/32MX795F512L/processor.o
                                                  build/mega/production/startup.o
C1RXF2INV                                         /Applications/microchip/mplabc32/v1.11a/bin/../lib/gcc/pic32mx/3.4.4/../../../../pic32mx/lib/./proc/32MX795F512L/processor.o
                                                  build/mega/production/startup.o
C1RXF2SET                                         /Applications/microchip/mplabc32/v1.11a/bin/../lib/gcc/pic32mx/3.4.4/../../../../pic32mx/lib/./proc/32MX795F512L/processor.o
                                                  build/mega/production/startup.o
C1RXF3                                            /Applications/microchip/mplabc32/v1.11a/bin/../lib/gcc/pic32mx/3.4.4/../../../../pic32mx/lib/./proc/32MX795F512L/processor.o
                                                  build/mega/production/startup.o
C1RXF30                                           /Applications/microchip/mplabc32/v1.11a/bin/../lib/gcc/pic32mx/3.4.4/../../../../pic32mx/lib/./proc/32MX795F512L/processor.o
                                                  build/mega/production/startup.o
C1RXF30CLR                                        /Applications/microchip/mplabc32/v1.11a/bin/../lib/gcc/pic32mx/3.4.4/../../../../pic32mx/lib/./proc/32MX795F512L/processor.o
                                                  build/mega/production/startup.o
C1RXF30INV                                        /Applications/microchip/mplabc32/v1.11a/bin/../lib/gcc/pic32mx/3.4.4/../../../../pic32mx/lib/./proc/32MX795F512L/processor.o
                                                  build/mega/production/startup.o
C1RXF30SET                                        /Applications/microchip/mplabc32/v1.11a/bin/../lib/gcc/pic32mx/3.4.4/../../../../pic32mx/lib/./proc/32MX795F512L/processor.o
                                                  build/mega/production/startup.o
C1RXF31                                           /Applications/microchip/mplabc32/v1.11a/bin/../lib/gcc/pic32mx/3.4.4/../../../../pic32mx/lib/./proc/32MX795F512L/processor.o
                                                  build/mega/production/startup.o
C1RXF31CLR                                        /Applications/microchip/mplabc32/v1.11a/bin/../lib/gcc/pic32mx/3.4.4/../../../../pic32mx/lib/./proc/32MX795F512L/processor.o
                                                  build/mega/production/startup.o
C1RXF31INV                                        /Applications/microchip/mplabc32/v1.11a/bin/../lib/gcc/pic32mx/3.4.4/../../../../pic32mx/lib/./proc/32MX795F512L/processor.o
                                                  build/mega/production/startup.o
C1RXF31SET                                        /Applications/microchip/mplabc32/v1.11a/bin/../lib/gcc/pic32mx/3.4.4/../../../../pic32mx/lib/./proc/32MX795F512L/processor.o
                                                  build/mega/production/startup.o
C1RXF3CLR                                         /Applications/microchip/mplabc32/v1.11a/bin/../lib/gcc/pic32mx/3.4.4/../../../../pic32mx/lib/./proc/32MX795F512L/processor.o
                                                  build/mega/production/startup.o
C1RXF3INV                                         /Applications/microchip/mplabc32/v1.11a/bin/../lib/gcc/pic32mx/3.4.4/../../../../pic32mx/lib/./proc/32MX795F512L/processor.o
                                                  build/mega/production/startup.o
C1RXF3SET                                         /Applications/microchip/mplabc32/v1.11a/bin/../lib/gcc/pic32mx/3.4.4/../../../../pic32mx/lib/./proc/32MX795F512L/processor.o
                                                  build/mega/production/startup.o
C1RXF4                                            /Applications/microchip/mplabc32/v1.11a/bin/../lib/gcc/pic32mx/3.4.4/../../../../pic32mx/lib/./proc/32MX795F512L/processor.o
                                                  build/mega/production/startup.o
C1RXF4CLR                                         /Applications/microchip/mplabc32/v1.11a/bin/../lib/gcc/pic32mx/3.4.4/../../../../pic32mx/lib/./proc/32MX795F512L/processor.o
                                                  build/mega/production/startup.o
C1RXF4INV                                         /Applications/microchip/mplabc32/v1.11a/bin/../lib/gcc/pic32mx/3.4.4/../../../../pic32mx/lib/./proc/32MX795F512L/processor.o
                                                  build/mega/production/startup.o
C1RXF4SET                                         /Applications/microchip/mplabc32/v1.11a/bin/../lib/gcc/pic32mx/3.4.4/../../../../pic32mx/lib/./proc/32MX795F512L/processor.o
                                                  build/mega/production/startup.o
C1RXF5                                            /Applications/microchip/mplabc32/v1.11a/bin/../lib/gcc/pic32mx/3.4.4/../../../../pic32mx/lib/./proc/32MX795F512L/processor.o
                                                  build/mega/production/startup.o
C1RXF5CLR                                         /Applications/microchip/mplabc32/v1.11a/bin/../lib/gcc/pic32mx/3.4.4/../../../../pic32mx/lib/./proc/32MX795F512L/processor.o
                                                  build/mega/production/startup.o
C1RXF5INV                                         /Applications/microchip/mplabc32/v1.11a/bin/../lib/gcc/pic32mx/3.4.4/../../../../pic32mx/lib/./proc/32MX795F512L/processor.o
                                                  build/mega/production/startup.o
C1RXF5SET                                         /Applications/microchip/mplabc32/v1.11a/bin/../lib/gcc/pic32mx/3.4.4/../../../../pic32mx/lib/./proc/32MX795F512L/processor.o
                                                  build/mega/production/startup.o
C1RXF6                                            /Applications/microchip/mplabc32/v1.11a/bin/../lib/gcc/pic32mx/3.4.4/../../../../pic32mx/lib/./proc/32MX795F512L/processor.o
                                                  build/mega/production/startup.o
C1RXF6CLR                                         /Applications/microchip/mplabc32/v1.11a/bin/../lib/gcc/pic32mx/3.4.4/../../../../pic32mx/lib/./proc/32MX795F512L/processor.o
                                                  build/mega/production/startup.o
C1RXF6INV                                         /Applications/microchip/mplabc32/v1.11a/bin/../lib/gcc/pic32mx/3.4.4/../../../../pic32mx/lib/./proc/32MX795F512L/processor.o
                                                  build/mega/production/startup.o
C1RXF6SET                                         /Applications/microchip/mplabc32/v1.11a/bin/../lib/gcc/pic32mx/3.4.4/../../../../pic32mx/lib/./proc/32MX795F512L/processor.o
                                                  build/mega/production/startup.o
C1RXF7                                            /Applications/microchip/mplabc32/v1.11a/bin/../lib/gcc/pic32mx/3.4.4/../../../../pic32mx/lib/./proc/32MX795F512L/processor.o
                                                  build/mega/production/startup.o
C1RXF7CLR                                         /Applications/microchip/mplabc32/v1.11a/bin/../lib/gcc/pic32mx/3.4.4/../../../../pic32mx/lib/./proc/32MX795F512L/processor.o
                                                  build/mega/production/startup.o
C1RXF7INV                                         /Applications/microchip/mplabc32/v1.11a/bin/../lib/gcc/pic32mx/3.4.4/../../../../pic32mx/lib/./proc/32MX795F512L/processor.o
                                                  build/mega/production/startup.o
C1RXF7SET                                         /Applications/microchip/mplabc32/v1.11a/bin/../lib/gcc/pic32mx/3.4.4/../../../../pic32mx/lib/./proc/32MX795F512L/processor.o
                                                  build/mega/production/startup.o
C1RXF8                                            /Applications/microchip/mplabc32/v1.11a/bin/../lib/gcc/pic32mx/3.4.4/../../../../pic32mx/lib/./proc/32MX795F512L/processor.o
                                                  build/mega/production/startup.o
C1RXF8CLR                                         /Applications/microchip/mplabc32/v1.11a/bin/../lib/gcc/pic32mx/3.4.4/../../../../pic32mx/lib/./proc/32MX795F512L/processor.o
                                                  build/mega/production/startup.o
C1RXF8INV                                         /Applications/microchip/mplabc32/v1.11a/bin/../lib/gcc/pic32mx/3.4.4/../../../../pic32mx/lib/./proc/32MX795F512L/processor.o
                                                  build/mega/production/startup.o
C1RXF8SET                                         /Applications/microchip/mplabc32/v1.11a/bin/../lib/gcc/pic32mx/3.4.4/../../../../pic32mx/lib/./proc/32MX795F512L/processor.o
                                                  build/mega/production/startup.o
C1RXF9                                            /Applications/microchip/mplabc32/v1.11a/bin/../lib/gcc/pic32mx/3.4.4/../../../../pic32mx/lib/./proc/32MX795F512L/processor.o
                                                  build/mega/production/startup.o
C1RXF9CLR                                         /Applications/microchip/mplabc32/v1.11a/bin/../lib/gcc/pic32mx/3.4.4/../../../../pic32mx/lib/./proc/32MX795F512L/processor.o
                                                  build/mega/production/startup.o
C1RXF9INV                                         /Applications/microchip/mplabc32/v1.11a/bin/../lib/gcc/pic32mx/3.4.4/../../../../pic32mx/lib/./proc/32MX795F512L/processor.o
                                                  build/mega/production/startup.o
C1RXF9SET                                         /Applications/microchip/mplabc32/v1.11a/bin/../lib/gcc/pic32mx/3.4.4/../../../../pic32mx/lib/./proc/32MX795F512L/processor.o
                                                  build/mega/production/startup.o
C1RXM0                                            /Applications/microchip/mplabc32/v1.11a/bin/../lib/gcc/pic32mx/3.4.4/../../../../pic32mx/lib/./proc/32MX795F512L/processor.o
                                                  build/mega/production/startup.o
C1RXM0CLR                                         /Applications/microchip/mplabc32/v1.11a/bin/../lib/gcc/pic32mx/3.4.4/../../../../pic32mx/lib/./proc/32MX795F512L/processor.o
                                                  build/mega/production/startup.o
C1RXM0INV                                         /Applications/microchip/mplabc32/v1.11a/bin/../lib/gcc/pic32mx/3.4.4/../../../../pic32mx/lib/./proc/32MX795F512L/processor.o
                                                  build/mega/production/startup.o
C1RXM0SET                                         /Applications/microchip/mplabc32/v1.11a/bin/../lib/gcc/pic32mx/3.4.4/../../../../pic32mx/lib/./proc/32MX795F512L/processor.o
                                                  build/mega/production/startup.o
C1RXM1                                            /Applications/microchip/mplabc32/v1.11a/bin/../lib/gcc/pic32mx/3.4.4/../../../../pic32mx/lib/./proc/32MX795F512L/processor.o
                                                  build/mega/production/startup.o
C1RXM1CLR                                         /Applications/microchip/mplabc32/v1.11a/bin/../lib/gcc/pic32mx/3.4.4/../../../../pic32mx/lib/./proc/32MX795F512L/processor.o
                                                  build/mega/production/startup.o
C1RXM1INV                                         /Applications/microchip/mplabc32/v1.11a/bin/../lib/gcc/pic32mx/3.4.4/../../../../pic32mx/lib/./proc/32MX795F512L/processor.o
                                                  build/mega/production/startup.o
C1RXM1SET                                         /Applications/microchip/mplabc32/v1.11a/bin/../lib/gcc/pic32mx/3.4.4/../../../../pic32mx/lib/./proc/32MX795F512L/processor.o
                                                  build/mega/production/startup.o
C1RXM2                                            /Applications/microchip/mplabc32/v1.11a/bin/../lib/gcc/pic32mx/3.4.4/../../../../pic32mx/lib/./proc/32MX795F512L/processor.o
                                                  build/mega/production/startup.o
C1RXM2CLR                                         /Applications/microchip/mplabc32/v1.11a/bin/../lib/gcc/pic32mx/3.4.4/../../../../pic32mx/lib/./proc/32MX795F512L/processor.o
                                                  build/mega/production/startup.o
C1RXM2INV                                         /Applications/microchip/mplabc32/v1.11a/bin/../lib/gcc/pic32mx/3.4.4/../../../../pic32mx/lib/./proc/32MX795F512L/processor.o
                                                  build/mega/production/startup.o
C1RXM2SET                                         /Applications/microchip/mplabc32/v1.11a/bin/../lib/gcc/pic32mx/3.4.4/../../../../pic32mx/lib/./proc/32MX795F512L/processor.o
                                                  build/mega/production/startup.o
C1RXM3                                            /Applications/microchip/mplabc32/v1.11a/bin/../lib/gcc/pic32mx/3.4.4/../../../../pic32mx/lib/./proc/32MX795F512L/processor.o
                                                  build/mega/production/startup.o
C1RXM3CLR                                         /Applications/microchip/mplabc32/v1.11a/bin/../lib/gcc/pic32mx/3.4.4/../../../../pic32mx/lib/./proc/32MX795F512L/processor.o
                                                  build/mega/production/startup.o
C1RXM3INV                                         /Applications/microchip/mplabc32/v1.11a/bin/../lib/gcc/pic32mx/3.4.4/../../../../pic32mx/lib/./proc/32MX795F512L/processor.o
                                                  build/mega/production/startup.o
C1RXM3SET                                         /Applications/microchip/mplabc32/v1.11a/bin/../lib/gcc/pic32mx/3.4.4/../../../../pic32mx/lib/./proc/32MX795F512L/processor.o
                                                  build/mega/production/startup.o
C1RXOVF                                           /Applications/microchip/mplabc32/v1.11a/bin/../lib/gcc/pic32mx/3.4.4/../../../../pic32mx/lib/./proc/32MX795F512L/processor.o
                                                  build/mega/production/startup.o
C1RXOVFCLR                                        /Applications/microchip/mplabc32/v1.11a/bin/../lib/gcc/pic32mx/3.4.4/../../../../pic32mx/lib/./proc/32MX795F512L/processor.o
                                                  build/mega/production/startup.o
C1RXOVFINV                                        /Applications/microchip/mplabc32/v1.11a/bin/../lib/gcc/pic32mx/3.4.4/../../../../pic32mx/lib/./proc/32MX795F512L/processor.o
                                                  build/mega/production/startup.o
C1RXOVFSET                                        /Applications/microchip/mplabc32/v1.11a/bin/../lib/gcc/pic32mx/3.4.4/../../../../pic32mx/lib/./proc/32MX795F512L/processor.o
                                                  build/mega/production/startup.o
C1TMR                                             /Applications/microchip/mplabc32/v1.11a/bin/../lib/gcc/pic32mx/3.4.4/../../../../pic32mx/lib/./proc/32MX795F512L/processor.o
                                                  build/mega/production/startup.o
C1TMRCLR                                          /Applications/microchip/mplabc32/v1.11a/bin/../lib/gcc/pic32mx/3.4.4/../../../../pic32mx/lib/./proc/32MX795F512L/processor.o
                                                  build/mega/production/startup.o
C1TMRINV                                          /Applications/microchip/mplabc32/v1.11a/bin/../lib/gcc/pic32mx/3.4.4/../../../../pic32mx/lib/./proc/32MX795F512L/processor.o
                                                  build/mega/production/startup.o
C1TMRSET                                          /Applications/microchip/mplabc32/v1.11a/bin/../lib/gcc/pic32mx/3.4.4/../../../../pic32mx/lib/./proc/32MX795F512L/processor.o
                                                  build/mega/production/startup.o
C1TREC                                            /Applications/microchip/mplabc32/v1.11a/bin/../lib/gcc/pic32mx/3.4.4/../../../../pic32mx/lib/./proc/32MX795F512L/processor.o
                                                  build/mega/production/startup.o
C1TRECCLR                                         /Applications/microchip/mplabc32/v1.11a/bin/../lib/gcc/pic32mx/3.4.4/../../../../pic32mx/lib/./proc/32MX795F512L/processor.o
                                                  build/mega/production/startup.o
C1TRECINV                                         /Applications/microchip/mplabc32/v1.11a/bin/../lib/gcc/pic32mx/3.4.4/../../../../pic32mx/lib/./proc/32MX795F512L/processor.o
                                                  build/mega/production/startup.o
C1TRECSET                                         /Applications/microchip/mplabc32/v1.11a/bin/../lib/gcc/pic32mx/3.4.4/../../../../pic32mx/lib/./proc/32MX795F512L/processor.o
                                                  build/mega/production/startup.o
C1VEC                                             /Applications/microchip/mplabc32/v1.11a/bin/../lib/gcc/pic32mx/3.4.4/../../../../pic32mx/lib/./proc/32MX795F512L/processor.o
                                                  build/mega/production/startup.o
C1VECCLR                                          /Applications/microchip/mplabc32/v1.11a/bin/../lib/gcc/pic32mx/3.4.4/../../../../pic32mx/lib/./proc/32MX795F512L/processor.o
                                                  build/mega/production/startup.o
C1VECINV                                          /Applications/microchip/mplabc32/v1.11a/bin/../lib/gcc/pic32mx/3.4.4/../../../../pic32mx/lib/./proc/32MX795F512L/processor.o
                                                  build/mega/production/startup.o
C1VECSET                                          /Applications/microchip/mplabc32/v1.11a/bin/../lib/gcc/pic32mx/3.4.4/../../../../pic32mx/lib/./proc/32MX795F512L/processor.o
                                                  build/mega/production/startup.o
C2CFG                                             /Applications/microchip/mplabc32/v1.11a/bin/../lib/gcc/pic32mx/3.4.4/../../../../pic32mx/lib/./proc/32MX795F512L/processor.o
                                                  build/mega/production/startup.o
C2CFGCLR                                          /Applications/microchip/mplabc32/v1.11a/bin/../lib/gcc/pic32mx/3.4.4/../../../../pic32mx/lib/./proc/32MX795F512L/processor.o
                                                  build/mega/production/startup.o
C2CFGINV                                          /Applications/microchip/mplabc32/v1.11a/bin/../lib/gcc/pic32mx/3.4.4/../../../../pic32mx/lib/./proc/32MX795F512L/processor.o
                                                  build/mega/production/startup.o
C2CFGSET                                          /Applications/microchip/mplabc32/v1.11a/bin/../lib/gcc/pic32mx/3.4.4/../../../../pic32mx/lib/./proc/32MX795F512L/processor.o
                                                  build/mega/production/startup.o
C2CON                                             /Applications/microchip/mplabc32/v1.11a/bin/../lib/gcc/pic32mx/3.4.4/../../../../pic32mx/lib/./proc/32MX795F512L/processor.o
                                                  build/mega/production/startup.o
C2CONCLR                                          /Applications/microchip/mplabc32/v1.11a/bin/../lib/gcc/pic32mx/3.4.4/../../../../pic32mx/lib/./proc/32MX795F512L/processor.o
                                                  build/mega/production/startup.o
C2CONINV                                          /Applications/microchip/mplabc32/v1.11a/bin/../lib/gcc/pic32mx/3.4.4/../../../../pic32mx/lib/./proc/32MX795F512L/processor.o
                                                  build/mega/production/startup.o
C2CONSET                                          /Applications/microchip/mplabc32/v1.11a/bin/../lib/gcc/pic32mx/3.4.4/../../../../pic32mx/lib/./proc/32MX795F512L/processor.o
                                                  build/mega/production/startup.o
C2FIFOBA                                          /Applications/microchip/mplabc32/v1.11a/bin/../lib/gcc/pic32mx/3.4.4/../../../../pic32mx/lib/./proc/32MX795F512L/processor.o
                                                  build/mega/production/startup.o
C2FIFOBACLR                                       /Applications/microchip/mplabc32/v1.11a/bin/../lib/gcc/pic32mx/3.4.4/../../../../pic32mx/lib/./proc/32MX795F512L/processor.o
                                                  build/mega/production/startup.o
C2FIFOBAINV                                       /Applications/microchip/mplabc32/v1.11a/bin/../lib/gcc/pic32mx/3.4.4/../../../../pic32mx/lib/./proc/32MX795F512L/processor.o
                                                  build/mega/production/startup.o
C2FIFOBASET                                       /Applications/microchip/mplabc32/v1.11a/bin/../lib/gcc/pic32mx/3.4.4/../../../../pic32mx/lib/./proc/32MX795F512L/processor.o
                                                  build/mega/production/startup.o
C2FIFOCI0                                         /Applications/microchip/mplabc32/v1.11a/bin/../lib/gcc/pic32mx/3.4.4/../../../../pic32mx/lib/./proc/32MX795F512L/processor.o
                                                  build/mega/production/startup.o
C2FIFOCI0CLR                                      /Applications/microchip/mplabc32/v1.11a/bin/../lib/gcc/pic32mx/3.4.4/../../../../pic32mx/lib/./proc/32MX795F512L/processor.o
                                                  build/mega/production/startup.o
C2FIFOCI0INV                                      /Applications/microchip/mplabc32/v1.11a/bin/../lib/gcc/pic32mx/3.4.4/../../../../pic32mx/lib/./proc/32MX795F512L/processor.o
                                                  build/mega/production/startup.o
C2FIFOCI0SET                                      /Applications/microchip/mplabc32/v1.11a/bin/../lib/gcc/pic32mx/3.4.4/../../../../pic32mx/lib/./proc/32MX795F512L/processor.o
                                                  build/mega/production/startup.o
C2FIFOCI1                                         /Applications/microchip/mplabc32/v1.11a/bin/../lib/gcc/pic32mx/3.4.4/../../../../pic32mx/lib/./proc/32MX795F512L/processor.o
                                                  build/mega/production/startup.o
C2FIFOCI10                                        /Applications/microchip/mplabc32/v1.11a/bin/../lib/gcc/pic32mx/3.4.4/../../../../pic32mx/lib/./proc/32MX795F512L/processor.o
                                                  build/mega/production/startup.o
C2FIFOCI10CLR                                     /Applications/microchip/mplabc32/v1.11a/bin/../lib/gcc/pic32mx/3.4.4/../../../../pic32mx/lib/./proc/32MX795F512L/processor.o
                                                  build/mega/production/startup.o
C2FIFOCI10INV                                     /Applications/microchip/mplabc32/v1.11a/bin/../lib/gcc/pic32mx/3.4.4/../../../../pic32mx/lib/./proc/32MX795F512L/processor.o
                                                  build/mega/production/startup.o
C2FIFOCI10SET                                     /Applications/microchip/mplabc32/v1.11a/bin/../lib/gcc/pic32mx/3.4.4/../../../../pic32mx/lib/./proc/32MX795F512L/processor.o
                                                  build/mega/production/startup.o
C2FIFOCI11                                        /Applications/microchip/mplabc32/v1.11a/bin/../lib/gcc/pic32mx/3.4.4/../../../../pic32mx/lib/./proc/32MX795F512L/processor.o
                                                  build/mega/production/startup.o
C2FIFOCI11CLR                                     /Applications/microchip/mplabc32/v1.11a/bin/../lib/gcc/pic32mx/3.4.4/../../../../pic32mx/lib/./proc/32MX795F512L/processor.o
                                                  build/mega/production/startup.o
C2FIFOCI11INV                                     /Applications/microchip/mplabc32/v1.11a/bin/../lib/gcc/pic32mx/3.4.4/../../../../pic32mx/lib/./proc/32MX795F512L/processor.o
                                                  build/mega/production/startup.o
C2FIFOCI11SET                                     /Applications/microchip/mplabc32/v1.11a/bin/../lib/gcc/pic32mx/3.4.4/../../../../pic32mx/lib/./proc/32MX795F512L/processor.o
                                                  build/mega/production/startup.o
C2FIFOCI12                                        /Applications/microchip/mplabc32/v1.11a/bin/../lib/gcc/pic32mx/3.4.4/../../../../pic32mx/lib/./proc/32MX795F512L/processor.o
                                                  build/mega/production/startup.o
C2FIFOCI12CLR                                     /Applications/microchip/mplabc32/v1.11a/bin/../lib/gcc/pic32mx/3.4.4/../../../../pic32mx/lib/./proc/32MX795F512L/processor.o
                                                  build/mega/production/startup.o
C2FIFOCI12INV                                     /Applications/microchip/mplabc32/v1.11a/bin/../lib/gcc/pic32mx/3.4.4/../../../../pic32mx/lib/./proc/32MX795F512L/processor.o
                                                  build/mega/production/startup.o
C2FIFOCI12SET                                     /Applications/microchip/mplabc32/v1.11a/bin/../lib/gcc/pic32mx/3.4.4/../../../../pic32mx/lib/./proc/32MX795F512L/processor.o
                                                  build/mega/production/startup.o
C2FIFOCI13                                        /Applications/microchip/mplabc32/v1.11a/bin/../lib/gcc/pic32mx/3.4.4/../../../../pic32mx/lib/./proc/32MX795F512L/processor.o
                                                  build/mega/production/startup.o
C2FIFOCI13CLR                                     /Applications/microchip/mplabc32/v1.11a/bin/../lib/gcc/pic32mx/3.4.4/../../../../pic32mx/lib/./proc/32MX795F512L/processor.o
                                                  build/mega/production/startup.o
C2FIFOCI13INV                                     /Applications/microchip/mplabc32/v1.11a/bin/../lib/gcc/pic32mx/3.4.4/../../../../pic32mx/lib/./proc/32MX795F512L/processor.o
                                                  build/mega/production/startup.o
C2FIFOCI13SET                                     /Applications/microchip/mplabc32/v1.11a/bin/../lib/gcc/pic32mx/3.4.4/../../../../pic32mx/lib/./proc/32MX795F512L/processor.o
                                                  build/mega/production/startup.o
C2FIFOCI14                                        /Applications/microchip/mplabc32/v1.11a/bin/../lib/gcc/pic32mx/3.4.4/../../../../pic32mx/lib/./proc/32MX795F512L/processor.o
                                                  build/mega/production/startup.o
C2FIFOCI14CLR                                     /Applications/microchip/mplabc32/v1.11a/bin/../lib/gcc/pic32mx/3.4.4/../../../../pic32mx/lib/./proc/32MX795F512L/processor.o
                                                  build/mega/production/startup.o
C2FIFOCI14INV                                     /Applications/microchip/mplabc32/v1.11a/bin/../lib/gcc/pic32mx/3.4.4/../../../../pic32mx/lib/./proc/32MX795F512L/processor.o
                                                  build/mega/production/startup.o
C2FIFOCI14SET                                     /Applications/microchip/mplabc32/v1.11a/bin/../lib/gcc/pic32mx/3.4.4/../../../../pic32mx/lib/./proc/32MX795F512L/processor.o
                                                  build/mega/production/startup.o
C2FIFOCI15                                        /Applications/microchip/mplabc32/v1.11a/bin/../lib/gcc/pic32mx/3.4.4/../../../../pic32mx/lib/./proc/32MX795F512L/processor.o
                                                  build/mega/production/startup.o
C2FIFOCI15CLR                                     /Applications/microchip/mplabc32/v1.11a/bin/../lib/gcc/pic32mx/3.4.4/../../../../pic32mx/lib/./proc/32MX795F512L/processor.o
                                                  build/mega/production/startup.o
C2FIFOCI15INV                                     /Applications/microchip/mplabc32/v1.11a/bin/../lib/gcc/pic32mx/3.4.4/../../../../pic32mx/lib/./proc/32MX795F512L/processor.o
                                                  build/mega/production/startup.o
C2FIFOCI15SET                                     /Applications/microchip/mplabc32/v1.11a/bin/../lib/gcc/pic32mx/3.4.4/../../../../pic32mx/lib/./proc/32MX795F512L/processor.o
                                                  build/mega/production/startup.o
C2FIFOCI16                                        /Applications/microchip/mplabc32/v1.11a/bin/../lib/gcc/pic32mx/3.4.4/../../../../pic32mx/lib/./proc/32MX795F512L/processor.o
                                                  build/mega/production/startup.o
C2FIFOCI16CLR                                     /Applications/microchip/mplabc32/v1.11a/bin/../lib/gcc/pic32mx/3.4.4/../../../../pic32mx/lib/./proc/32MX795F512L/processor.o
                                                  build/mega/production/startup.o
C2FIFOCI16INV                                     /Applications/microchip/mplabc32/v1.11a/bin/../lib/gcc/pic32mx/3.4.4/../../../../pic32mx/lib/./proc/32MX795F512L/processor.o
                                                  build/mega/production/startup.o
C2FIFOCI16SET                                     /Applications/microchip/mplabc32/v1.11a/bin/../lib/gcc/pic32mx/3.4.4/../../../../pic32mx/lib/./proc/32MX795F512L/processor.o
                                                  build/mega/production/startup.o
C2FIFOCI17                                        /Applications/microchip/mplabc32/v1.11a/bin/../lib/gcc/pic32mx/3.4.4/../../../../pic32mx/lib/./proc/32MX795F512L/processor.o
                                                  build/mega/production/startup.o
C2FIFOCI17CLR                                     /Applications/microchip/mplabc32/v1.11a/bin/../lib/gcc/pic32mx/3.4.4/../../../../pic32mx/lib/./proc/32MX795F512L/processor.o
                                                  build/mega/production/startup.o
C2FIFOCI17INV                                     /Applications/microchip/mplabc32/v1.11a/bin/../lib/gcc/pic32mx/3.4.4/../../../../pic32mx/lib/./proc/32MX795F512L/processor.o
                                                  build/mega/production/startup.o
C2FIFOCI17SET                                     /Applications/microchip/mplabc32/v1.11a/bin/../lib/gcc/pic32mx/3.4.4/../../../../pic32mx/lib/./proc/32MX795F512L/processor.o
                                                  build/mega/production/startup.o
C2FIFOCI18                                        /Applications/microchip/mplabc32/v1.11a/bin/../lib/gcc/pic32mx/3.4.4/../../../../pic32mx/lib/./proc/32MX795F512L/processor.o
                                                  build/mega/production/startup.o
C2FIFOCI18CLR                                     /Applications/microchip/mplabc32/v1.11a/bin/../lib/gcc/pic32mx/3.4.4/../../../../pic32mx/lib/./proc/32MX795F512L/processor.o
                                                  build/mega/production/startup.o
C2FIFOCI18INV                                     /Applications/microchip/mplabc32/v1.11a/bin/../lib/gcc/pic32mx/3.4.4/../../../../pic32mx/lib/./proc/32MX795F512L/processor.o
                                                  build/mega/production/startup.o
C2FIFOCI18SET                                     /Applications/microchip/mplabc32/v1.11a/bin/../lib/gcc/pic32mx/3.4.4/../../../../pic32mx/lib/./proc/32MX795F512L/processor.o
                                                  build/mega/production/startup.o
C2FIFOCI19                                        /Applications/microchip/mplabc32/v1.11a/bin/../lib/gcc/pic32mx/3.4.4/../../../../pic32mx/lib/./proc/32MX795F512L/processor.o
                                                  build/mega/production/startup.o
C2FIFOCI19CLR                                     /Applications/microchip/mplabc32/v1.11a/bin/../lib/gcc/pic32mx/3.4.4/../../../../pic32mx/lib/./proc/32MX795F512L/processor.o
                                                  build/mega/production/startup.o
C2FIFOCI19INV                                     /Applications/microchip/mplabc32/v1.11a/bin/../lib/gcc/pic32mx/3.4.4/../../../../pic32mx/lib/./proc/32MX795F512L/processor.o
                                                  build/mega/production/startup.o
C2FIFOCI19SET                                     /Applications/microchip/mplabc32/v1.11a/bin/../lib/gcc/pic32mx/3.4.4/../../../../pic32mx/lib/./proc/32MX795F512L/processor.o
                                                  build/mega/production/startup.o
C2FIFOCI1CLR                                      /Applications/microchip/mplabc32/v1.11a/bin/../lib/gcc/pic32mx/3.4.4/../../../../pic32mx/lib/./proc/32MX795F512L/processor.o
                                                  build/mega/production/startup.o
C2FIFOCI1INV                                      /Applications/microchip/mplabc32/v1.11a/bin/../lib/gcc/pic32mx/3.4.4/../../../../pic32mx/lib/./proc/32MX795F512L/processor.o
                                                  build/mega/production/startup.o
C2FIFOCI1SET                                      /Applications/microchip/mplabc32/v1.11a/bin/../lib/gcc/pic32mx/3.4.4/../../../../pic32mx/lib/./proc/32MX795F512L/processor.o
                                                  build/mega/production/startup.o
C2FIFOCI2                                         /Applications/microchip/mplabc32/v1.11a/bin/../lib/gcc/pic32mx/3.4.4/../../../../pic32mx/lib/./proc/32MX795F512L/processor.o
                                                  build/mega/production/startup.o
C2FIFOCI20                                        /Applications/microchip/mplabc32/v1.11a/bin/../lib/gcc/pic32mx/3.4.4/../../../../pic32mx/lib/./proc/32MX795F512L/processor.o
                                                  build/mega/production/startup.o
C2FIFOCI20CLR                                     /Applications/microchip/mplabc32/v1.11a/bin/../lib/gcc/pic32mx/3.4.4/../../../../pic32mx/lib/./proc/32MX795F512L/processor.o
                                                  build/mega/production/startup.o
C2FIFOCI20INV                                     /Applications/microchip/mplabc32/v1.11a/bin/../lib/gcc/pic32mx/3.4.4/../../../../pic32mx/lib/./proc/32MX795F512L/processor.o
                                                  build/mega/production/startup.o
C2FIFOCI20SET                                     /Applications/microchip/mplabc32/v1.11a/bin/../lib/gcc/pic32mx/3.4.4/../../../../pic32mx/lib/./proc/32MX795F512L/processor.o
                                                  build/mega/production/startup.o
C2FIFOCI21                                        /Applications/microchip/mplabc32/v1.11a/bin/../lib/gcc/pic32mx/3.4.4/../../../../pic32mx/lib/./proc/32MX795F512L/processor.o
                                                  build/mega/production/startup.o
C2FIFOCI21CLR                                     /Applications/microchip/mplabc32/v1.11a/bin/../lib/gcc/pic32mx/3.4.4/../../../../pic32mx/lib/./proc/32MX795F512L/processor.o
                                                  build/mega/production/startup.o
C2FIFOCI21INV                                     /Applications/microchip/mplabc32/v1.11a/bin/../lib/gcc/pic32mx/3.4.4/../../../../pic32mx/lib/./proc/32MX795F512L/processor.o
                                                  build/mega/production/startup.o
C2FIFOCI21SET                                     /Applications/microchip/mplabc32/v1.11a/bin/../lib/gcc/pic32mx/3.4.4/../../../../pic32mx/lib/./proc/32MX795F512L/processor.o
                                                  build/mega/production/startup.o
C2FIFOCI22                                        /Applications/microchip/mplabc32/v1.11a/bin/../lib/gcc/pic32mx/3.4.4/../../../../pic32mx/lib/./proc/32MX795F512L/processor.o
                                                  build/mega/production/startup.o
C2FIFOCI22CLR                                     /Applications/microchip/mplabc32/v1.11a/bin/../lib/gcc/pic32mx/3.4.4/../../../../pic32mx/lib/./proc/32MX795F512L/processor.o
                                                  build/mega/production/startup.o
C2FIFOCI22INV                                     /Applications/microchip/mplabc32/v1.11a/bin/../lib/gcc/pic32mx/3.4.4/../../../../pic32mx/lib/./proc/32MX795F512L/processor.o
                                                  build/mega/production/startup.o
C2FIFOCI22SET                                     /Applications/microchip/mplabc32/v1.11a/bin/../lib/gcc/pic32mx/3.4.4/../../../../pic32mx/lib/./proc/32MX795F512L/processor.o
                                                  build/mega/production/startup.o
C2FIFOCI23                                        /Applications/microchip/mplabc32/v1.11a/bin/../lib/gcc/pic32mx/3.4.4/../../../../pic32mx/lib/./proc/32MX795F512L/processor.o
                                                  build/mega/production/startup.o
C2FIFOCI23CLR                                     /Applications/microchip/mplabc32/v1.11a/bin/../lib/gcc/pic32mx/3.4.4/../../../../pic32mx/lib/./proc/32MX795F512L/processor.o
                                                  build/mega/production/startup.o
C2FIFOCI23INV                                     /Applications/microchip/mplabc32/v1.11a/bin/../lib/gcc/pic32mx/3.4.4/../../../../pic32mx/lib/./proc/32MX795F512L/processor.o
                                                  build/mega/production/startup.o
C2FIFOCI23SET                                     /Applications/microchip/mplabc32/v1.11a/bin/../lib/gcc/pic32mx/3.4.4/../../../../pic32mx/lib/./proc/32MX795F512L/processor.o
                                                  build/mega/production/startup.o
C2FIFOCI24                                        /Applications/microchip/mplabc32/v1.11a/bin/../lib/gcc/pic32mx/3.4.4/../../../../pic32mx/lib/./proc/32MX795F512L/processor.o
                                                  build/mega/production/startup.o
C2FIFOCI24CLR                                     /Applications/microchip/mplabc32/v1.11a/bin/../lib/gcc/pic32mx/3.4.4/../../../../pic32mx/lib/./proc/32MX795F512L/processor.o
                                                  build/mega/production/startup.o
C2FIFOCI24INV                                     /Applications/microchip/mplabc32/v1.11a/bin/../lib/gcc/pic32mx/3.4.4/../../../../pic32mx/lib/./proc/32MX795F512L/processor.o
                                                  build/mega/production/startup.o
C2FIFOCI24SET                                     /Applications/microchip/mplabc32/v1.11a/bin/../lib/gcc/pic32mx/3.4.4/../../../../pic32mx/lib/./proc/32MX795F512L/processor.o
                                                  build/mega/production/startup.o
C2FIFOCI25                                        /Applications/microchip/mplabc32/v1.11a/bin/../lib/gcc/pic32mx/3.4.4/../../../../pic32mx/lib/./proc/32MX795F512L/processor.o
                                                  build/mega/production/startup.o
C2FIFOCI25CLR                                     /Applications/microchip/mplabc32/v1.11a/bin/../lib/gcc/pic32mx/3.4.4/../../../../pic32mx/lib/./proc/32MX795F512L/processor.o
                                                  build/mega/production/startup.o
C2FIFOCI25INV                                     /Applications/microchip/mplabc32/v1.11a/bin/../lib/gcc/pic32mx/3.4.4/../../../../pic32mx/lib/./proc/32MX795F512L/processor.o
                                                  build/mega/production/startup.o
C2FIFOCI25SET                                     /Applications/microchip/mplabc32/v1.11a/bin/../lib/gcc/pic32mx/3.4.4/../../../../pic32mx/lib/./proc/32MX795F512L/processor.o
                                                  build/mega/production/startup.o
C2FIFOCI26                                        /Applications/microchip/mplabc32/v1.11a/bin/../lib/gcc/pic32mx/3.4.4/../../../../pic32mx/lib/./proc/32MX795F512L/processor.o
                                                  build/mega/production/startup.o
C2FIFOCI26CLR                                     /Applications/microchip/mplabc32/v1.11a/bin/../lib/gcc/pic32mx/3.4.4/../../../../pic32mx/lib/./proc/32MX795F512L/processor.o
                                                  build/mega/production/startup.o
C2FIFOCI26INV                                     /Applications/microchip/mplabc32/v1.11a/bin/../lib/gcc/pic32mx/3.4.4/../../../../pic32mx/lib/./proc/32MX795F512L/processor.o
                                                  build/mega/production/startup.o
C2FIFOCI26SET                                     /Applications/microchip/mplabc32/v1.11a/bin/../lib/gcc/pic32mx/3.4.4/../../../../pic32mx/lib/./proc/32MX795F512L/processor.o
                                                  build/mega/production/startup.o
C2FIFOCI27                                        /Applications/microchip/mplabc32/v1.11a/bin/../lib/gcc/pic32mx/3.4.4/../../../../pic32mx/lib/./proc/32MX795F512L/processor.o
                                                  build/mega/production/startup.o
C2FIFOCI27CLR                                     /Applications/microchip/mplabc32/v1.11a/bin/../lib/gcc/pic32mx/3.4.4/../../../../pic32mx/lib/./proc/32MX795F512L/processor.o
                                                  build/mega/production/startup.o
C2FIFOCI27INV                                     /Applications/microchip/mplabc32/v1.11a/bin/../lib/gcc/pic32mx/3.4.4/../../../../pic32mx/lib/./proc/32MX795F512L/processor.o
                                                  build/mega/production/startup.o
C2FIFOCI27SET                                     /Applications/microchip/mplabc32/v1.11a/bin/../lib/gcc/pic32mx/3.4.4/../../../../pic32mx/lib/./proc/32MX795F512L/processor.o
                                                  build/mega/production/startup.o
C2FIFOCI28                                        /Applications/microchip/mplabc32/v1.11a/bin/../lib/gcc/pic32mx/3.4.4/../../../../pic32mx/lib/./proc/32MX795F512L/processor.o
                                                  build/mega/production/startup.o
C2FIFOCI28CLR                                     /Applications/microchip/mplabc32/v1.11a/bin/../lib/gcc/pic32mx/3.4.4/../../../../pic32mx/lib/./proc/32MX795F512L/processor.o
                                                  build/mega/production/startup.o
C2FIFOCI28INV                                     /Applications/microchip/mplabc32/v1.11a/bin/../lib/gcc/pic32mx/3.4.4/../../../../pic32mx/lib/./proc/32MX795F512L/processor.o
                                                  build/mega/production/startup.o
C2FIFOCI28SET                                     /Applications/microchip/mplabc32/v1.11a/bin/../lib/gcc/pic32mx/3.4.4/../../../../pic32mx/lib/./proc/32MX795F512L/processor.o
                                                  build/mega/production/startup.o
C2FIFOCI29                                        /Applications/microchip/mplabc32/v1.11a/bin/../lib/gcc/pic32mx/3.4.4/../../../../pic32mx/lib/./proc/32MX795F512L/processor.o
                                                  build/mega/production/startup.o
C2FIFOCI29CLR                                     /Applications/microchip/mplabc32/v1.11a/bin/../lib/gcc/pic32mx/3.4.4/../../../../pic32mx/lib/./proc/32MX795F512L/processor.o
                                                  build/mega/production/startup.o
C2FIFOCI29INV                                     /Applications/microchip/mplabc32/v1.11a/bin/../lib/gcc/pic32mx/3.4.4/../../../../pic32mx/lib/./proc/32MX795F512L/processor.o
                                                  build/mega/production/startup.o
C2FIFOCI29SET                                     /Applications/microchip/mplabc32/v1.11a/bin/../lib/gcc/pic32mx/3.4.4/../../../../pic32mx/lib/./proc/32MX795F512L/processor.o
                                                  build/mega/production/startup.o
C2FIFOCI2CLR                                      /Applications/microchip/mplabc32/v1.11a/bin/../lib/gcc/pic32mx/3.4.4/../../../../pic32mx/lib/./proc/32MX795F512L/processor.o
                                                  build/mega/production/startup.o
C2FIFOCI2INV                                      /Applications/microchip/mplabc32/v1.11a/bin/../lib/gcc/pic32mx/3.4.4/../../../../pic32mx/lib/./proc/32MX795F512L/processor.o
                                                  build/mega/production/startup.o
C2FIFOCI2SET                                      /Applications/microchip/mplabc32/v1.11a/bin/../lib/gcc/pic32mx/3.4.4/../../../../pic32mx/lib/./proc/32MX795F512L/processor.o
                                                  build/mega/production/startup.o
C2FIFOCI3                                         /Applications/microchip/mplabc32/v1.11a/bin/../lib/gcc/pic32mx/3.4.4/../../../../pic32mx/lib/./proc/32MX795F512L/processor.o
                                                  build/mega/production/startup.o
C2FIFOCI30                                        /Applications/microchip/mplabc32/v1.11a/bin/../lib/gcc/pic32mx/3.4.4/../../../../pic32mx/lib/./proc/32MX795F512L/processor.o
                                                  build/mega/production/startup.o
C2FIFOCI30CLR                                     /Applications/microchip/mplabc32/v1.11a/bin/../lib/gcc/pic32mx/3.4.4/../../../../pic32mx/lib/./proc/32MX795F512L/processor.o
                                                  build/mega/production/startup.o
C2FIFOCI30INV                                     /Applications/microchip/mplabc32/v1.11a/bin/../lib/gcc/pic32mx/3.4.4/../../../../pic32mx/lib/./proc/32MX795F512L/processor.o
                                                  build/mega/production/startup.o
C2FIFOCI30SET                                     /Applications/microchip/mplabc32/v1.11a/bin/../lib/gcc/pic32mx/3.4.4/../../../../pic32mx/lib/./proc/32MX795F512L/processor.o
                                                  build/mega/production/startup.o
C2FIFOCI31                                        /Applications/microchip/mplabc32/v1.11a/bin/../lib/gcc/pic32mx/3.4.4/../../../../pic32mx/lib/./proc/32MX795F512L/processor.o
                                                  build/mega/production/startup.o
C2FIFOCI31CLR                                     /Applications/microchip/mplabc32/v1.11a/bin/../lib/gcc/pic32mx/3.4.4/../../../../pic32mx/lib/./proc/32MX795F512L/processor.o
                                                  build/mega/production/startup.o
C2FIFOCI31INV                                     /Applications/microchip/mplabc32/v1.11a/bin/../lib/gcc/pic32mx/3.4.4/../../../../pic32mx/lib/./proc/32MX795F512L/processor.o
                                                  build/mega/production/startup.o
C2FIFOCI31SET                                     /Applications/microchip/mplabc32/v1.11a/bin/../lib/gcc/pic32mx/3.4.4/../../../../pic32mx/lib/./proc/32MX795F512L/processor.o
                                                  build/mega/production/startup.o
C2FIFOCI3CLR                                      /Applications/microchip/mplabc32/v1.11a/bin/../lib/gcc/pic32mx/3.4.4/../../../../pic32mx/lib/./proc/32MX795F512L/processor.o
                                                  build/mega/production/startup.o
C2FIFOCI3INV                                      /Applications/microchip/mplabc32/v1.11a/bin/../lib/gcc/pic32mx/3.4.4/../../../../pic32mx/lib/./proc/32MX795F512L/processor.o
                                                  build/mega/production/startup.o
C2FIFOCI3SET                                      /Applications/microchip/mplabc32/v1.11a/bin/../lib/gcc/pic32mx/3.4.4/../../../../pic32mx/lib/./proc/32MX795F512L/processor.o
                                                  build/mega/production/startup.o
C2FIFOCI4                                         /Applications/microchip/mplabc32/v1.11a/bin/../lib/gcc/pic32mx/3.4.4/../../../../pic32mx/lib/./proc/32MX795F512L/processor.o
                                                  build/mega/production/startup.o
C2FIFOCI4CLR                                      /Applications/microchip/mplabc32/v1.11a/bin/../lib/gcc/pic32mx/3.4.4/../../../../pic32mx/lib/./proc/32MX795F512L/processor.o
                                                  build/mega/production/startup.o
C2FIFOCI4INV                                      /Applications/microchip/mplabc32/v1.11a/bin/../lib/gcc/pic32mx/3.4.4/../../../../pic32mx/lib/./proc/32MX795F512L/processor.o
                                                  build/mega/production/startup.o
C2FIFOCI4SET                                      /Applications/microchip/mplabc32/v1.11a/bin/../lib/gcc/pic32mx/3.4.4/../../../../pic32mx/lib/./proc/32MX795F512L/processor.o
                                                  build/mega/production/startup.o
C2FIFOCI5                                         /Applications/microchip/mplabc32/v1.11a/bin/../lib/gcc/pic32mx/3.4.4/../../../../pic32mx/lib/./proc/32MX795F512L/processor.o
                                                  build/mega/production/startup.o
C2FIFOCI5CLR                                      /Applications/microchip/mplabc32/v1.11a/bin/../lib/gcc/pic32mx/3.4.4/../../../../pic32mx/lib/./proc/32MX795F512L/processor.o
                                                  build/mega/production/startup.o
C2FIFOCI5INV                                      /Applications/microchip/mplabc32/v1.11a/bin/../lib/gcc/pic32mx/3.4.4/../../../../pic32mx/lib/./proc/32MX795F512L/processor.o
                                                  build/mega/production/startup.o
C2FIFOCI5SET                                      /Applications/microchip/mplabc32/v1.11a/bin/../lib/gcc/pic32mx/3.4.4/../../../../pic32mx/lib/./proc/32MX795F512L/processor.o
                                                  build/mega/production/startup.o
C2FIFOCI6                                         /Applications/microchip/mplabc32/v1.11a/bin/../lib/gcc/pic32mx/3.4.4/../../../../pic32mx/lib/./proc/32MX795F512L/processor.o
                                                  build/mega/production/startup.o
C2FIFOCI6CLR                                      /Applications/microchip/mplabc32/v1.11a/bin/../lib/gcc/pic32mx/3.4.4/../../../../pic32mx/lib/./proc/32MX795F512L/processor.o
                                                  build/mega/production/startup.o
C2FIFOCI6INV                                      /Applications/microchip/mplabc32/v1.11a/bin/../lib/gcc/pic32mx/3.4.4/../../../../pic32mx/lib/./proc/32MX795F512L/processor.o
                                                  build/mega/production/startup.o
C2FIFOCI6SET                                      /Applications/microchip/mplabc32/v1.11a/bin/../lib/gcc/pic32mx/3.4.4/../../../../pic32mx/lib/./proc/32MX795F512L/processor.o
                                                  build/mega/production/startup.o
C2FIFOCI7                                         /Applications/microchip/mplabc32/v1.11a/bin/../lib/gcc/pic32mx/3.4.4/../../../../pic32mx/lib/./proc/32MX795F512L/processor.o
                                                  build/mega/production/startup.o
C2FIFOCI7CLR                                      /Applications/microchip/mplabc32/v1.11a/bin/../lib/gcc/pic32mx/3.4.4/../../../../pic32mx/lib/./proc/32MX795F512L/processor.o
                                                  build/mega/production/startup.o
C2FIFOCI7INV                                      /Applications/microchip/mplabc32/v1.11a/bin/../lib/gcc/pic32mx/3.4.4/../../../../pic32mx/lib/./proc/32MX795F512L/processor.o
                                                  build/mega/production/startup.o
C2FIFOCI7SET                                      /Applications/microchip/mplabc32/v1.11a/bin/../lib/gcc/pic32mx/3.4.4/../../../../pic32mx/lib/./proc/32MX795F512L/processor.o
                                                  build/mega/production/startup.o
C2FIFOCI8                                         /Applications/microchip/mplabc32/v1.11a/bin/../lib/gcc/pic32mx/3.4.4/../../../../pic32mx/lib/./proc/32MX795F512L/processor.o
                                                  build/mega/production/startup.o
C2FIFOCI8CLR                                      /Applications/microchip/mplabc32/v1.11a/bin/../lib/gcc/pic32mx/3.4.4/../../../../pic32mx/lib/./proc/32MX795F512L/processor.o
                                                  build/mega/production/startup.o
C2FIFOCI8INV                                      /Applications/microchip/mplabc32/v1.11a/bin/../lib/gcc/pic32mx/3.4.4/../../../../pic32mx/lib/./proc/32MX795F512L/processor.o
                                                  build/mega/production/startup.o
C2FIFOCI8SET                                      /Applications/microchip/mplabc32/v1.11a/bin/../lib/gcc/pic32mx/3.4.4/../../../../pic32mx/lib/./proc/32MX795F512L/processor.o
                                                  build/mega/production/startup.o
C2FIFOCI9                                         /Applications/microchip/mplabc32/v1.11a/bin/../lib/gcc/pic32mx/3.4.4/../../../../pic32mx/lib/./proc/32MX795F512L/processor.o
                                                  build/mega/production/startup.o
C2FIFOCI9CLR                                      /Applications/microchip/mplabc32/v1.11a/bin/../lib/gcc/pic32mx/3.4.4/../../../../pic32mx/lib/./proc/32MX795F512L/processor.o
                                                  build/mega/production/startup.o
C2FIFOCI9INV                                      /Applications/microchip/mplabc32/v1.11a/bin/../lib/gcc/pic32mx/3.4.4/../../../../pic32mx/lib/./proc/32MX795F512L/processor.o
                                                  build/mega/production/startup.o
C2FIFOCI9SET                                      /Applications/microchip/mplabc32/v1.11a/bin/../lib/gcc/pic32mx/3.4.4/../../../../pic32mx/lib/./proc/32MX795F512L/processor.o
                                                  build/mega/production/startup.o
C2FIFOCON0                                        /Applications/microchip/mplabc32/v1.11a/bin/../lib/gcc/pic32mx/3.4.4/../../../../pic32mx/lib/./proc/32MX795F512L/processor.o
                                                  build/mega/production/startup.o
C2FIFOCON0CLR                                     /Applications/microchip/mplabc32/v1.11a/bin/../lib/gcc/pic32mx/3.4.4/../../../../pic32mx/lib/./proc/32MX795F512L/processor.o
                                                  build/mega/production/startup.o
C2FIFOCON0INV                                     /Applications/microchip/mplabc32/v1.11a/bin/../lib/gcc/pic32mx/3.4.4/../../../../pic32mx/lib/./proc/32MX795F512L/processor.o
                                                  build/mega/production/startup.o
C2FIFOCON0SET                                     /Applications/microchip/mplabc32/v1.11a/bin/../lib/gcc/pic32mx/3.4.4/../../../../pic32mx/lib/./proc/32MX795F512L/processor.o
                                                  build/mega/production/startup.o
C2FIFOCON1                                        /Applications/microchip/mplabc32/v1.11a/bin/../lib/gcc/pic32mx/3.4.4/../../../../pic32mx/lib/./proc/32MX795F512L/processor.o
                                                  build/mega/production/startup.o
C2FIFOCON10                                       /Applications/microchip/mplabc32/v1.11a/bin/../lib/gcc/pic32mx/3.4.4/../../../../pic32mx/lib/./proc/32MX795F512L/processor.o
                                                  build/mega/production/startup.o
C2FIFOCON10CLR                                    /Applications/microchip/mplabc32/v1.11a/bin/../lib/gcc/pic32mx/3.4.4/../../../../pic32mx/lib/./proc/32MX795F512L/processor.o
                                                  build/mega/production/startup.o
C2FIFOCON10INV                                    /Applications/microchip/mplabc32/v1.11a/bin/../lib/gcc/pic32mx/3.4.4/../../../../pic32mx/lib/./proc/32MX795F512L/processor.o
                                                  build/mega/production/startup.o
C2FIFOCON10SET                                    /Applications/microchip/mplabc32/v1.11a/bin/../lib/gcc/pic32mx/3.4.4/../../../../pic32mx/lib/./proc/32MX795F512L/processor.o
                                                  build/mega/production/startup.o
C2FIFOCON11                                       /Applications/microchip/mplabc32/v1.11a/bin/../lib/gcc/pic32mx/3.4.4/../../../../pic32mx/lib/./proc/32MX795F512L/processor.o
                                                  build/mega/production/startup.o
C2FIFOCON11CLR                                    /Applications/microchip/mplabc32/v1.11a/bin/../lib/gcc/pic32mx/3.4.4/../../../../pic32mx/lib/./proc/32MX795F512L/processor.o
                                                  build/mega/production/startup.o
C2FIFOCON11INV                                    /Applications/microchip/mplabc32/v1.11a/bin/../lib/gcc/pic32mx/3.4.4/../../../../pic32mx/lib/./proc/32MX795F512L/processor.o
                                                  build/mega/production/startup.o
C2FIFOCON11SET                                    /Applications/microchip/mplabc32/v1.11a/bin/../lib/gcc/pic32mx/3.4.4/../../../../pic32mx/lib/./proc/32MX795F512L/processor.o
                                                  build/mega/production/startup.o
C2FIFOCON12                                       /Applications/microchip/mplabc32/v1.11a/bin/../lib/gcc/pic32mx/3.4.4/../../../../pic32mx/lib/./proc/32MX795F512L/processor.o
                                                  build/mega/production/startup.o
C2FIFOCON12CLR                                    /Applications/microchip/mplabc32/v1.11a/bin/../lib/gcc/pic32mx/3.4.4/../../../../pic32mx/lib/./proc/32MX795F512L/processor.o
                                                  build/mega/production/startup.o
C2FIFOCON12INV                                    /Applications/microchip/mplabc32/v1.11a/bin/../lib/gcc/pic32mx/3.4.4/../../../../pic32mx/lib/./proc/32MX795F512L/processor.o
                                                  build/mega/production/startup.o
C2FIFOCON12SET                                    /Applications/microchip/mplabc32/v1.11a/bin/../lib/gcc/pic32mx/3.4.4/../../../../pic32mx/lib/./proc/32MX795F512L/processor.o
                                                  build/mega/production/startup.o
C2FIFOCON13                                       /Applications/microchip/mplabc32/v1.11a/bin/../lib/gcc/pic32mx/3.4.4/../../../../pic32mx/lib/./proc/32MX795F512L/processor.o
                                                  build/mega/production/startup.o
C2FIFOCON13CLR                                    /Applications/microchip/mplabc32/v1.11a/bin/../lib/gcc/pic32mx/3.4.4/../../../../pic32mx/lib/./proc/32MX795F512L/processor.o
                                                  build/mega/production/startup.o
C2FIFOCON13INV                                    /Applications/microchip/mplabc32/v1.11a/bin/../lib/gcc/pic32mx/3.4.4/../../../../pic32mx/lib/./proc/32MX795F512L/processor.o
                                                  build/mega/production/startup.o
C2FIFOCON13SET                                    /Applications/microchip/mplabc32/v1.11a/bin/../lib/gcc/pic32mx/3.4.4/../../../../pic32mx/lib/./proc/32MX795F512L/processor.o
                                                  build/mega/production/startup.o
C2FIFOCON14                                       /Applications/microchip/mplabc32/v1.11a/bin/../lib/gcc/pic32mx/3.4.4/../../../../pic32mx/lib/./proc/32MX795F512L/processor.o
                                                  build/mega/production/startup.o
C2FIFOCON14CLR                                    /Applications/microchip/mplabc32/v1.11a/bin/../lib/gcc/pic32mx/3.4.4/../../../../pic32mx/lib/./proc/32MX795F512L/processor.o
                                                  build/mega/production/startup.o
C2FIFOCON14INV                                    /Applications/microchip/mplabc32/v1.11a/bin/../lib/gcc/pic32mx/3.4.4/../../../../pic32mx/lib/./proc/32MX795F512L/processor.o
                                                  build/mega/production/startup.o
C2FIFOCON14SET                                    /Applications/microchip/mplabc32/v1.11a/bin/../lib/gcc/pic32mx/3.4.4/../../../../pic32mx/lib/./proc/32MX795F512L/processor.o
                                                  build/mega/production/startup.o
C2FIFOCON15                                       /Applications/microchip/mplabc32/v1.11a/bin/../lib/gcc/pic32mx/3.4.4/../../../../pic32mx/lib/./proc/32MX795F512L/processor.o
                                                  build/mega/production/startup.o
C2FIFOCON15CLR                                    /Applications/microchip/mplabc32/v1.11a/bin/../lib/gcc/pic32mx/3.4.4/../../../../pic32mx/lib/./proc/32MX795F512L/processor.o
                                                  build/mega/production/startup.o
C2FIFOCON15INV                                    /Applications/microchip/mplabc32/v1.11a/bin/../lib/gcc/pic32mx/3.4.4/../../../../pic32mx/lib/./proc/32MX795F512L/processor.o
                                                  build/mega/production/startup.o
C2FIFOCON15SET                                    /Applications/microchip/mplabc32/v1.11a/bin/../lib/gcc/pic32mx/3.4.4/../../../../pic32mx/lib/./proc/32MX795F512L/processor.o
                                                  build/mega/production/startup.o
C2FIFOCON16                                       /Applications/microchip/mplabc32/v1.11a/bin/../lib/gcc/pic32mx/3.4.4/../../../../pic32mx/lib/./proc/32MX795F512L/processor.o
                                                  build/mega/production/startup.o
C2FIFOCON16CLR                                    /Applications/microchip/mplabc32/v1.11a/bin/../lib/gcc/pic32mx/3.4.4/../../../../pic32mx/lib/./proc/32MX795F512L/processor.o
                                                  build/mega/production/startup.o
C2FIFOCON16INV                                    /Applications/microchip/mplabc32/v1.11a/bin/../lib/gcc/pic32mx/3.4.4/../../../../pic32mx/lib/./proc/32MX795F512L/processor.o
                                                  build/mega/production/startup.o
C2FIFOCON16SET                                    /Applications/microchip/mplabc32/v1.11a/bin/../lib/gcc/pic32mx/3.4.4/../../../../pic32mx/lib/./proc/32MX795F512L/processor.o
                                                  build/mega/production/startup.o
C2FIFOCON17                                       /Applications/microchip/mplabc32/v1.11a/bin/../lib/gcc/pic32mx/3.4.4/../../../../pic32mx/lib/./proc/32MX795F512L/processor.o
                                                  build/mega/production/startup.o
C2FIFOCON17CLR                                    /Applications/microchip/mplabc32/v1.11a/bin/../lib/gcc/pic32mx/3.4.4/../../../../pic32mx/lib/./proc/32MX795F512L/processor.o
                                                  build/mega/production/startup.o
C2FIFOCON17INV                                    /Applications/microchip/mplabc32/v1.11a/bin/../lib/gcc/pic32mx/3.4.4/../../../../pic32mx/lib/./proc/32MX795F512L/processor.o
                                                  build/mega/production/startup.o
C2FIFOCON17SET                                    /Applications/microchip/mplabc32/v1.11a/bin/../lib/gcc/pic32mx/3.4.4/../../../../pic32mx/lib/./proc/32MX795F512L/processor.o
                                                  build/mega/production/startup.o
C2FIFOCON18                                       /Applications/microchip/mplabc32/v1.11a/bin/../lib/gcc/pic32mx/3.4.4/../../../../pic32mx/lib/./proc/32MX795F512L/processor.o
                                                  build/mega/production/startup.o
C2FIFOCON18CLR                                    /Applications/microchip/mplabc32/v1.11a/bin/../lib/gcc/pic32mx/3.4.4/../../../../pic32mx/lib/./proc/32MX795F512L/processor.o
                                                  build/mega/production/startup.o
C2FIFOCON18INV                                    /Applications/microchip/mplabc32/v1.11a/bin/../lib/gcc/pic32mx/3.4.4/../../../../pic32mx/lib/./proc/32MX795F512L/processor.o
                                                  build/mega/production/startup.o
C2FIFOCON18SET                                    /Applications/microchip/mplabc32/v1.11a/bin/../lib/gcc/pic32mx/3.4.4/../../../../pic32mx/lib/./proc/32MX795F512L/processor.o
                                                  build/mega/production/startup.o
C2FIFOCON19                                       /Applications/microchip/mplabc32/v1.11a/bin/../lib/gcc/pic32mx/3.4.4/../../../../pic32mx/lib/./proc/32MX795F512L/processor.o
                                                  build/mega/production/startup.o
C2FIFOCON19CLR                                    /Applications/microchip/mplabc32/v1.11a/bin/../lib/gcc/pic32mx/3.4.4/../../../../pic32mx/lib/./proc/32MX795F512L/processor.o
                                                  build/mega/production/startup.o
C2FIFOCON19INV                                    /Applications/microchip/mplabc32/v1.11a/bin/../lib/gcc/pic32mx/3.4.4/../../../../pic32mx/lib/./proc/32MX795F512L/processor.o
                                                  build/mega/production/startup.o
C2FIFOCON19SET                                    /Applications/microchip/mplabc32/v1.11a/bin/../lib/gcc/pic32mx/3.4.4/../../../../pic32mx/lib/./proc/32MX795F512L/processor.o
                                                  build/mega/production/startup.o
C2FIFOCON1CLR                                     /Applications/microchip/mplabc32/v1.11a/bin/../lib/gcc/pic32mx/3.4.4/../../../../pic32mx/lib/./proc/32MX795F512L/processor.o
                                                  build/mega/production/startup.o
C2FIFOCON1INV                                     /Applications/microchip/mplabc32/v1.11a/bin/../lib/gcc/pic32mx/3.4.4/../../../../pic32mx/lib/./proc/32MX795F512L/processor.o
                                                  build/mega/production/startup.o
C2FIFOCON1SET                                     /Applications/microchip/mplabc32/v1.11a/bin/../lib/gcc/pic32mx/3.4.4/../../../../pic32mx/lib/./proc/32MX795F512L/processor.o
                                                  build/mega/production/startup.o
C2FIFOCON2                                        /Applications/microchip/mplabc32/v1.11a/bin/../lib/gcc/pic32mx/3.4.4/../../../../pic32mx/lib/./proc/32MX795F512L/processor.o
                                                  build/mega/production/startup.o
C2FIFOCON20                                       /Applications/microchip/mplabc32/v1.11a/bin/../lib/gcc/pic32mx/3.4.4/../../../../pic32mx/lib/./proc/32MX795F512L/processor.o
                                                  build/mega/production/startup.o
C2FIFOCON20CLR                                    /Applications/microchip/mplabc32/v1.11a/bin/../lib/gcc/pic32mx/3.4.4/../../../../pic32mx/lib/./proc/32MX795F512L/processor.o
                                                  build/mega/production/startup.o
C2FIFOCON20INV                                    /Applications/microchip/mplabc32/v1.11a/bin/../lib/gcc/pic32mx/3.4.4/../../../../pic32mx/lib/./proc/32MX795F512L/processor.o
                                                  build/mega/production/startup.o
C2FIFOCON20SET                                    /Applications/microchip/mplabc32/v1.11a/bin/../lib/gcc/pic32mx/3.4.4/../../../../pic32mx/lib/./proc/32MX795F512L/processor.o
                                                  build/mega/production/startup.o
C2FIFOCON21                                       /Applications/microchip/mplabc32/v1.11a/bin/../lib/gcc/pic32mx/3.4.4/../../../../pic32mx/lib/./proc/32MX795F512L/processor.o
                                                  build/mega/production/startup.o
C2FIFOCON21CLR                                    /Applications/microchip/mplabc32/v1.11a/bin/../lib/gcc/pic32mx/3.4.4/../../../../pic32mx/lib/./proc/32MX795F512L/processor.o
                                                  build/mega/production/startup.o
C2FIFOCON21INV                                    /Applications/microchip/mplabc32/v1.11a/bin/../lib/gcc/pic32mx/3.4.4/../../../../pic32mx/lib/./proc/32MX795F512L/processor.o
                                                  build/mega/production/startup.o
C2FIFOCON21SET                                    /Applications/microchip/mplabc32/v1.11a/bin/../lib/gcc/pic32mx/3.4.4/../../../../pic32mx/lib/./proc/32MX795F512L/processor.o
                                                  build/mega/production/startup.o
C2FIFOCON22                                       /Applications/microchip/mplabc32/v1.11a/bin/../lib/gcc/pic32mx/3.4.4/../../../../pic32mx/lib/./proc/32MX795F512L/processor.o
                                                  build/mega/production/startup.o
C2FIFOCON22CLR                                    /Applications/microchip/mplabc32/v1.11a/bin/../lib/gcc/pic32mx/3.4.4/../../../../pic32mx/lib/./proc/32MX795F512L/processor.o
                                                  build/mega/production/startup.o
C2FIFOCON22INV                                    /Applications/microchip/mplabc32/v1.11a/bin/../lib/gcc/pic32mx/3.4.4/../../../../pic32mx/lib/./proc/32MX795F512L/processor.o
                                                  build/mega/production/startup.o
C2FIFOCON22SET                                    /Applications/microchip/mplabc32/v1.11a/bin/../lib/gcc/pic32mx/3.4.4/../../../../pic32mx/lib/./proc/32MX795F512L/processor.o
                                                  build/mega/production/startup.o
C2FIFOCON23                                       /Applications/microchip/mplabc32/v1.11a/bin/../lib/gcc/pic32mx/3.4.4/../../../../pic32mx/lib/./proc/32MX795F512L/processor.o
                                                  build/mega/production/startup.o
C2FIFOCON23CLR                                    /Applications/microchip/mplabc32/v1.11a/bin/../lib/gcc/pic32mx/3.4.4/../../../../pic32mx/lib/./proc/32MX795F512L/processor.o
                                                  build/mega/production/startup.o
C2FIFOCON23INV                                    /Applications/microchip/mplabc32/v1.11a/bin/../lib/gcc/pic32mx/3.4.4/../../../../pic32mx/lib/./proc/32MX795F512L/processor.o
                                                  build/mega/production/startup.o
C2FIFOCON23SET                                    /Applications/microchip/mplabc32/v1.11a/bin/../lib/gcc/pic32mx/3.4.4/../../../../pic32mx/lib/./proc/32MX795F512L/processor.o
                                                  build/mega/production/startup.o
C2FIFOCON24                                       /Applications/microchip/mplabc32/v1.11a/bin/../lib/gcc/pic32mx/3.4.4/../../../../pic32mx/lib/./proc/32MX795F512L/processor.o
                                                  build/mega/production/startup.o
C2FIFOCON24CLR                                    /Applications/microchip/mplabc32/v1.11a/bin/../lib/gcc/pic32mx/3.4.4/../../../../pic32mx/lib/./proc/32MX795F512L/processor.o
                                                  build/mega/production/startup.o
C2FIFOCON24INV                                    /Applications/microchip/mplabc32/v1.11a/bin/../lib/gcc/pic32mx/3.4.4/../../../../pic32mx/lib/./proc/32MX795F512L/processor.o
                                                  build/mega/production/startup.o
C2FIFOCON24SET                                    /Applications/microchip/mplabc32/v1.11a/bin/../lib/gcc/pic32mx/3.4.4/../../../../pic32mx/lib/./proc/32MX795F512L/processor.o
                                                  build/mega/production/startup.o
C2FIFOCON25                                       /Applications/microchip/mplabc32/v1.11a/bin/../lib/gcc/pic32mx/3.4.4/../../../../pic32mx/lib/./proc/32MX795F512L/processor.o
                                                  build/mega/production/startup.o
C2FIFOCON25CLR                                    /Applications/microchip/mplabc32/v1.11a/bin/../lib/gcc/pic32mx/3.4.4/../../../../pic32mx/lib/./proc/32MX795F512L/processor.o
                                                  build/mega/production/startup.o
C2FIFOCON25INV                                    /Applications/microchip/mplabc32/v1.11a/bin/../lib/gcc/pic32mx/3.4.4/../../../../pic32mx/lib/./proc/32MX795F512L/processor.o
                                                  build/mega/production/startup.o
C2FIFOCON25SET                                    /Applications/microchip/mplabc32/v1.11a/bin/../lib/gcc/pic32mx/3.4.4/../../../../pic32mx/lib/./proc/32MX795F512L/processor.o
                                                  build/mega/production/startup.o
C2FIFOCON26                                       /Applications/microchip/mplabc32/v1.11a/bin/../lib/gcc/pic32mx/3.4.4/../../../../pic32mx/lib/./proc/32MX795F512L/processor.o
                                                  build/mega/production/startup.o
C2FIFOCON26CLR                                    /Applications/microchip/mplabc32/v1.11a/bin/../lib/gcc/pic32mx/3.4.4/../../../../pic32mx/lib/./proc/32MX795F512L/processor.o
                                                  build/mega/production/startup.o
C2FIFOCON26INV                                    /Applications/microchip/mplabc32/v1.11a/bin/../lib/gcc/pic32mx/3.4.4/../../../../pic32mx/lib/./proc/32MX795F512L/processor.o
                                                  build/mega/production/startup.o
C2FIFOCON26SET                                    /Applications/microchip/mplabc32/v1.11a/bin/../lib/gcc/pic32mx/3.4.4/../../../../pic32mx/lib/./proc/32MX795F512L/processor.o
                                                  build/mega/production/startup.o
C2FIFOCON27                                       /Applications/microchip/mplabc32/v1.11a/bin/../lib/gcc/pic32mx/3.4.4/../../../../pic32mx/lib/./proc/32MX795F512L/processor.o
                                                  build/mega/production/startup.o
C2FIFOCON27CLR                                    /Applications/microchip/mplabc32/v1.11a/bin/../lib/gcc/pic32mx/3.4.4/../../../../pic32mx/lib/./proc/32MX795F512L/processor.o
                                                  build/mega/production/startup.o
C2FIFOCON27INV                                    /Applications/microchip/mplabc32/v1.11a/bin/../lib/gcc/pic32mx/3.4.4/../../../../pic32mx/lib/./proc/32MX795F512L/processor.o
                                                  build/mega/production/startup.o
C2FIFOCON27SET                                    /Applications/microchip/mplabc32/v1.11a/bin/../lib/gcc/pic32mx/3.4.4/../../../../pic32mx/lib/./proc/32MX795F512L/processor.o
                                                  build/mega/production/startup.o
C2FIFOCON28                                       /Applications/microchip/mplabc32/v1.11a/bin/../lib/gcc/pic32mx/3.4.4/../../../../pic32mx/lib/./proc/32MX795F512L/processor.o
                                                  build/mega/production/startup.o
C2FIFOCON28CLR                                    /Applications/microchip/mplabc32/v1.11a/bin/../lib/gcc/pic32mx/3.4.4/../../../../pic32mx/lib/./proc/32MX795F512L/processor.o
                                                  build/mega/production/startup.o
C2FIFOCON28INV                                    /Applications/microchip/mplabc32/v1.11a/bin/../lib/gcc/pic32mx/3.4.4/../../../../pic32mx/lib/./proc/32MX795F512L/processor.o
                                                  build/mega/production/startup.o
C2FIFOCON28SET                                    /Applications/microchip/mplabc32/v1.11a/bin/../lib/gcc/pic32mx/3.4.4/../../../../pic32mx/lib/./proc/32MX795F512L/processor.o
                                                  build/mega/production/startup.o
C2FIFOCON29                                       /Applications/microchip/mplabc32/v1.11a/bin/../lib/gcc/pic32mx/3.4.4/../../../../pic32mx/lib/./proc/32MX795F512L/processor.o
                                                  build/mega/production/startup.o
C2FIFOCON29CLR                                    /Applications/microchip/mplabc32/v1.11a/bin/../lib/gcc/pic32mx/3.4.4/../../../../pic32mx/lib/./proc/32MX795F512L/processor.o
                                                  build/mega/production/startup.o
C2FIFOCON29INV                                    /Applications/microchip/mplabc32/v1.11a/bin/../lib/gcc/pic32mx/3.4.4/../../../../pic32mx/lib/./proc/32MX795F512L/processor.o
                                                  build/mega/production/startup.o
C2FIFOCON29SET                                    /Applications/microchip/mplabc32/v1.11a/bin/../lib/gcc/pic32mx/3.4.4/../../../../pic32mx/lib/./proc/32MX795F512L/processor.o
                                                  build/mega/production/startup.o
C2FIFOCON2CLR                                     /Applications/microchip/mplabc32/v1.11a/bin/../lib/gcc/pic32mx/3.4.4/../../../../pic32mx/lib/./proc/32MX795F512L/processor.o
                                                  build/mega/production/startup.o
C2FIFOCON2INV                                     /Applications/microchip/mplabc32/v1.11a/bin/../lib/gcc/pic32mx/3.4.4/../../../../pic32mx/lib/./proc/32MX795F512L/processor.o
                                                  build/mega/production/startup.o
C2FIFOCON2SET                                     /Applications/microchip/mplabc32/v1.11a/bin/../lib/gcc/pic32mx/3.4.4/../../../../pic32mx/lib/./proc/32MX795F512L/processor.o
                                                  build/mega/production/startup.o
C2FIFOCON3                                        /Applications/microchip/mplabc32/v1.11a/bin/../lib/gcc/pic32mx/3.4.4/../../../../pic32mx/lib/./proc/32MX795F512L/processor.o
                                                  build/mega/production/startup.o
C2FIFOCON30                                       /Applications/microchip/mplabc32/v1.11a/bin/../lib/gcc/pic32mx/3.4.4/../../../../pic32mx/lib/./proc/32MX795F512L/processor.o
                                                  build/mega/production/startup.o
C2FIFOCON30CLR                                    /Applications/microchip/mplabc32/v1.11a/bin/../lib/gcc/pic32mx/3.4.4/../../../../pic32mx/lib/./proc/32MX795F512L/processor.o
                                                  build/mega/production/startup.o
C2FIFOCON30INV                                    /Applications/microchip/mplabc32/v1.11a/bin/../lib/gcc/pic32mx/3.4.4/../../../../pic32mx/lib/./proc/32MX795F512L/processor.o
                                                  build/mega/production/startup.o
C2FIFOCON30SET                                    /Applications/microchip/mplabc32/v1.11a/bin/../lib/gcc/pic32mx/3.4.4/../../../../pic32mx/lib/./proc/32MX795F512L/processor.o
                                                  build/mega/production/startup.o
C2FIFOCON31                                       /Applications/microchip/mplabc32/v1.11a/bin/../lib/gcc/pic32mx/3.4.4/../../../../pic32mx/lib/./proc/32MX795F512L/processor.o
                                                  build/mega/production/startup.o
C2FIFOCON31CLR                                    /Applications/microchip/mplabc32/v1.11a/bin/../lib/gcc/pic32mx/3.4.4/../../../../pic32mx/lib/./proc/32MX795F512L/processor.o
                                                  build/mega/production/startup.o
C2FIFOCON31INV                                    /Applications/microchip/mplabc32/v1.11a/bin/../lib/gcc/pic32mx/3.4.4/../../../../pic32mx/lib/./proc/32MX795F512L/processor.o
                                                  build/mega/production/startup.o
C2FIFOCON31SET                                    /Applications/microchip/mplabc32/v1.11a/bin/../lib/gcc/pic32mx/3.4.4/../../../../pic32mx/lib/./proc/32MX795F512L/processor.o
                                                  build/mega/production/startup.o
C2FIFOCON3CLR                                     /Applications/microchip/mplabc32/v1.11a/bin/../lib/gcc/pic32mx/3.4.4/../../../../pic32mx/lib/./proc/32MX795F512L/processor.o
                                                  build/mega/production/startup.o
C2FIFOCON3INV                                     /Applications/microchip/mplabc32/v1.11a/bin/../lib/gcc/pic32mx/3.4.4/../../../../pic32mx/lib/./proc/32MX795F512L/processor.o
                                                  build/mega/production/startup.o
C2FIFOCON3SET                                     /Applications/microchip/mplabc32/v1.11a/bin/../lib/gcc/pic32mx/3.4.4/../../../../pic32mx/lib/./proc/32MX795F512L/processor.o
                                                  build/mega/production/startup.o
C2FIFOCON4                                        /Applications/microchip/mplabc32/v1.11a/bin/../lib/gcc/pic32mx/3.4.4/../../../../pic32mx/lib/./proc/32MX795F512L/processor.o
                                                  build/mega/production/startup.o
C2FIFOCON4CLR                                     /Applications/microchip/mplabc32/v1.11a/bin/../lib/gcc/pic32mx/3.4.4/../../../../pic32mx/lib/./proc/32MX795F512L/processor.o
                                                  build/mega/production/startup.o
C2FIFOCON4INV                                     /Applications/microchip/mplabc32/v1.11a/bin/../lib/gcc/pic32mx/3.4.4/../../../../pic32mx/lib/./proc/32MX795F512L/processor.o
                                                  build/mega/production/startup.o
C2FIFOCON4SET                                     /Applications/microchip/mplabc32/v1.11a/bin/../lib/gcc/pic32mx/3.4.4/../../../../pic32mx/lib/./proc/32MX795F512L/processor.o
                                                  build/mega/production/startup.o
C2FIFOCON5                                        /Applications/microchip/mplabc32/v1.11a/bin/../lib/gcc/pic32mx/3.4.4/../../../../pic32mx/lib/./proc/32MX795F512L/processor.o
                                                  build/mega/production/startup.o
C2FIFOCON5CLR                                     /Applications/microchip/mplabc32/v1.11a/bin/../lib/gcc/pic32mx/3.4.4/../../../../pic32mx/lib/./proc/32MX795F512L/processor.o
                                                  build/mega/production/startup.o
C2FIFOCON5INV                                     /Applications/microchip/mplabc32/v1.11a/bin/../lib/gcc/pic32mx/3.4.4/../../../../pic32mx/lib/./proc/32MX795F512L/processor.o
                                                  build/mega/production/startup.o
C2FIFOCON5SET                                     /Applications/microchip/mplabc32/v1.11a/bin/../lib/gcc/pic32mx/3.4.4/../../../../pic32mx/lib/./proc/32MX795F512L/processor.o
                                                  build/mega/production/startup.o
C2FIFOCON6                                        /Applications/microchip/mplabc32/v1.11a/bin/../lib/gcc/pic32mx/3.4.4/../../../../pic32mx/lib/./proc/32MX795F512L/processor.o
                                                  build/mega/production/startup.o
C2FIFOCON6CLR                                     /Applications/microchip/mplabc32/v1.11a/bin/../lib/gcc/pic32mx/3.4.4/../../../../pic32mx/lib/./proc/32MX795F512L/processor.o
                                                  build/mega/production/startup.o
C2FIFOCON6INV                                     /Applications/microchip/mplabc32/v1.11a/bin/../lib/gcc/pic32mx/3.4.4/../../../../pic32mx/lib/./proc/32MX795F512L/processor.o
                                                  build/mega/production/startup.o
C2FIFOCON6SET                                     /Applications/microchip/mplabc32/v1.11a/bin/../lib/gcc/pic32mx/3.4.4/../../../../pic32mx/lib/./proc/32MX795F512L/processor.o
                                                  build/mega/production/startup.o
C2FIFOCON7                                        /Applications/microchip/mplabc32/v1.11a/bin/../lib/gcc/pic32mx/3.4.4/../../../../pic32mx/lib/./proc/32MX795F512L/processor.o
                                                  build/mega/production/startup.o
C2FIFOCON7CLR                                     /Applications/microchip/mplabc32/v1.11a/bin/../lib/gcc/pic32mx/3.4.4/../../../../pic32mx/lib/./proc/32MX795F512L/processor.o
                                                  build/mega/production/startup.o
C2FIFOCON7INV                                     /Applications/microchip/mplabc32/v1.11a/bin/../lib/gcc/pic32mx/3.4.4/../../../../pic32mx/lib/./proc/32MX795F512L/processor.o
                                                  build/mega/production/startup.o
C2FIFOCON7SET                                     /Applications/microchip/mplabc32/v1.11a/bin/../lib/gcc/pic32mx/3.4.4/../../../../pic32mx/lib/./proc/32MX795F512L/processor.o
                                                  build/mega/production/startup.o
C2FIFOCON8                                        /Applications/microchip/mplabc32/v1.11a/bin/../lib/gcc/pic32mx/3.4.4/../../../../pic32mx/lib/./proc/32MX795F512L/processor.o
                                                  build/mega/production/startup.o
C2FIFOCON8CLR                                     /Applications/microchip/mplabc32/v1.11a/bin/../lib/gcc/pic32mx/3.4.4/../../../../pic32mx/lib/./proc/32MX795F512L/processor.o
                                                  build/mega/production/startup.o
C2FIFOCON8INV                                     /Applications/microchip/mplabc32/v1.11a/bin/../lib/gcc/pic32mx/3.4.4/../../../../pic32mx/lib/./proc/32MX795F512L/processor.o
                                                  build/mega/production/startup.o
C2FIFOCON8SET                                     /Applications/microchip/mplabc32/v1.11a/bin/../lib/gcc/pic32mx/3.4.4/../../../../pic32mx/lib/./proc/32MX795F512L/processor.o
                                                  build/mega/production/startup.o
C2FIFOCON9                                        /Applications/microchip/mplabc32/v1.11a/bin/../lib/gcc/pic32mx/3.4.4/../../../../pic32mx/lib/./proc/32MX795F512L/processor.o
                                                  build/mega/production/startup.o
C2FIFOCON9CLR                                     /Applications/microchip/mplabc32/v1.11a/bin/../lib/gcc/pic32mx/3.4.4/../../../../pic32mx/lib/./proc/32MX795F512L/processor.o
                                                  build/mega/production/startup.o
C2FIFOCON9INV                                     /Applications/microchip/mplabc32/v1.11a/bin/../lib/gcc/pic32mx/3.4.4/../../../../pic32mx/lib/./proc/32MX795F512L/processor.o
                                                  build/mega/production/startup.o
C2FIFOCON9SET                                     /Applications/microchip/mplabc32/v1.11a/bin/../lib/gcc/pic32mx/3.4.4/../../../../pic32mx/lib/./proc/32MX795F512L/processor.o
                                                  build/mega/production/startup.o
C2FIFOINT0                                        /Applications/microchip/mplabc32/v1.11a/bin/../lib/gcc/pic32mx/3.4.4/../../../../pic32mx/lib/./proc/32MX795F512L/processor.o
                                                  build/mega/production/startup.o
C2FIFOINT0CLR                                     /Applications/microchip/mplabc32/v1.11a/bin/../lib/gcc/pic32mx/3.4.4/../../../../pic32mx/lib/./proc/32MX795F512L/processor.o
                                                  build/mega/production/startup.o
C2FIFOINT0INV                                     /Applications/microchip/mplabc32/v1.11a/bin/../lib/gcc/pic32mx/3.4.4/../../../../pic32mx/lib/./proc/32MX795F512L/processor.o
                                                  build/mega/production/startup.o
C2FIFOINT0SET                                     /Applications/microchip/mplabc32/v1.11a/bin/../lib/gcc/pic32mx/3.4.4/../../../../pic32mx/lib/./proc/32MX795F512L/processor.o
                                                  build/mega/production/startup.o
C2FIFOINT1                                        /Applications/microchip/mplabc32/v1.11a/bin/../lib/gcc/pic32mx/3.4.4/../../../../pic32mx/lib/./proc/32MX795F512L/processor.o
                                                  build/mega/production/startup.o
C2FIFOINT10                                       /Applications/microchip/mplabc32/v1.11a/bin/../lib/gcc/pic32mx/3.4.4/../../../../pic32mx/lib/./proc/32MX795F512L/processor.o
                                                  build/mega/production/startup.o
C2FIFOINT10CLR                                    /Applications/microchip/mplabc32/v1.11a/bin/../lib/gcc/pic32mx/3.4.4/../../../../pic32mx/lib/./proc/32MX795F512L/processor.o
                                                  build/mega/production/startup.o
C2FIFOINT10INV                                    /Applications/microchip/mplabc32/v1.11a/bin/../lib/gcc/pic32mx/3.4.4/../../../../pic32mx/lib/./proc/32MX795F512L/processor.o
                                                  build/mega/production/startup.o
C2FIFOINT10SET                                    /Applications/microchip/mplabc32/v1.11a/bin/../lib/gcc/pic32mx/3.4.4/../../../../pic32mx/lib/./proc/32MX795F512L/processor.o
                                                  build/mega/production/startup.o
C2FIFOINT11                                       /Applications/microchip/mplabc32/v1.11a/bin/../lib/gcc/pic32mx/3.4.4/../../../../pic32mx/lib/./proc/32MX795F512L/processor.o
                                                  build/mega/production/startup.o
C2FIFOINT11CLR                                    /Applications/microchip/mplabc32/v1.11a/bin/../lib/gcc/pic32mx/3.4.4/../../../../pic32mx/lib/./proc/32MX795F512L/processor.o
                                                  build/mega/production/startup.o
C2FIFOINT11INV                                    /Applications/microchip/mplabc32/v1.11a/bin/../lib/gcc/pic32mx/3.4.4/../../../../pic32mx/lib/./proc/32MX795F512L/processor.o
                                                  build/mega/production/startup.o
C2FIFOINT11SET                                    /Applications/microchip/mplabc32/v1.11a/bin/../lib/gcc/pic32mx/3.4.4/../../../../pic32mx/lib/./proc/32MX795F512L/processor.o
                                                  build/mega/production/startup.o
C2FIFOINT12                                       /Applications/microchip/mplabc32/v1.11a/bin/../lib/gcc/pic32mx/3.4.4/../../../../pic32mx/lib/./proc/32MX795F512L/processor.o
                                                  build/mega/production/startup.o
C2FIFOINT12CLR                                    /Applications/microchip/mplabc32/v1.11a/bin/../lib/gcc/pic32mx/3.4.4/../../../../pic32mx/lib/./proc/32MX795F512L/processor.o
                                                  build/mega/production/startup.o
C2FIFOINT12INV                                    /Applications/microchip/mplabc32/v1.11a/bin/../lib/gcc/pic32mx/3.4.4/../../../../pic32mx/lib/./proc/32MX795F512L/processor.o
                                                  build/mega/production/startup.o
C2FIFOINT12SET                                    /Applications/microchip/mplabc32/v1.11a/bin/../lib/gcc/pic32mx/3.4.4/../../../../pic32mx/lib/./proc/32MX795F512L/processor.o
                                                  build/mega/production/startup.o
C2FIFOINT13                                       /Applications/microchip/mplabc32/v1.11a/bin/../lib/gcc/pic32mx/3.4.4/../../../../pic32mx/lib/./proc/32MX795F512L/processor.o
                                                  build/mega/production/startup.o
C2FIFOINT13CLR                                    /Applications/microchip/mplabc32/v1.11a/bin/../lib/gcc/pic32mx/3.4.4/../../../../pic32mx/lib/./proc/32MX795F512L/processor.o
                                                  build/mega/production/startup.o
C2FIFOINT13INV                                    /Applications/microchip/mplabc32/v1.11a/bin/../lib/gcc/pic32mx/3.4.4/../../../../pic32mx/lib/./proc/32MX795F512L/processor.o
                                                  build/mega/production/startup.o
C2FIFOINT13SET                                    /Applications/microchip/mplabc32/v1.11a/bin/../lib/gcc/pic32mx/3.4.4/../../../../pic32mx/lib/./proc/32MX795F512L/processor.o
                                                  build/mega/production/startup.o
C2FIFOINT14                                       /Applications/microchip/mplabc32/v1.11a/bin/../lib/gcc/pic32mx/3.4.4/../../../../pic32mx/lib/./proc/32MX795F512L/processor.o
                                                  build/mega/production/startup.o
C2FIFOINT14CLR                                    /Applications/microchip/mplabc32/v1.11a/bin/../lib/gcc/pic32mx/3.4.4/../../../../pic32mx/lib/./proc/32MX795F512L/processor.o
                                                  build/mega/production/startup.o
C2FIFOINT14INV                                    /Applications/microchip/mplabc32/v1.11a/bin/../lib/gcc/pic32mx/3.4.4/../../../../pic32mx/lib/./proc/32MX795F512L/processor.o
                                                  build/mega/production/startup.o
C2FIFOINT14SET                                    /Applications/microchip/mplabc32/v1.11a/bin/../lib/gcc/pic32mx/3.4.4/../../../../pic32mx/lib/./proc/32MX795F512L/processor.o
                                                  build/mega/production/startup.o
C2FIFOINT15                                       /Applications/microchip/mplabc32/v1.11a/bin/../lib/gcc/pic32mx/3.4.4/../../../../pic32mx/lib/./proc/32MX795F512L/processor.o
                                                  build/mega/production/startup.o
C2FIFOINT15CLR                                    /Applications/microchip/mplabc32/v1.11a/bin/../lib/gcc/pic32mx/3.4.4/../../../../pic32mx/lib/./proc/32MX795F512L/processor.o
                                                  build/mega/production/startup.o
C2FIFOINT15INV                                    /Applications/microchip/mplabc32/v1.11a/bin/../lib/gcc/pic32mx/3.4.4/../../../../pic32mx/lib/./proc/32MX795F512L/processor.o
                                                  build/mega/production/startup.o
C2FIFOINT15SET                                    /Applications/microchip/mplabc32/v1.11a/bin/../lib/gcc/pic32mx/3.4.4/../../../../pic32mx/lib/./proc/32MX795F512L/processor.o
                                                  build/mega/production/startup.o
C2FIFOINT16                                       /Applications/microchip/mplabc32/v1.11a/bin/../lib/gcc/pic32mx/3.4.4/../../../../pic32mx/lib/./proc/32MX795F512L/processor.o
                                                  build/mega/production/startup.o
C2FIFOINT16CLR                                    /Applications/microchip/mplabc32/v1.11a/bin/../lib/gcc/pic32mx/3.4.4/../../../../pic32mx/lib/./proc/32MX795F512L/processor.o
                                                  build/mega/production/startup.o
C2FIFOINT16INV                                    /Applications/microchip/mplabc32/v1.11a/bin/../lib/gcc/pic32mx/3.4.4/../../../../pic32mx/lib/./proc/32MX795F512L/processor.o
                                                  build/mega/production/startup.o
C2FIFOINT16SET                                    /Applications/microchip/mplabc32/v1.11a/bin/../lib/gcc/pic32mx/3.4.4/../../../../pic32mx/lib/./proc/32MX795F512L/processor.o
                                                  build/mega/production/startup.o
C2FIFOINT17                                       /Applications/microchip/mplabc32/v1.11a/bin/../lib/gcc/pic32mx/3.4.4/../../../../pic32mx/lib/./proc/32MX795F512L/processor.o
                                                  build/mega/production/startup.o
C2FIFOINT17CLR                                    /Applications/microchip/mplabc32/v1.11a/bin/../lib/gcc/pic32mx/3.4.4/../../../../pic32mx/lib/./proc/32MX795F512L/processor.o
                                                  build/mega/production/startup.o
C2FIFOINT17INV                                    /Applications/microchip/mplabc32/v1.11a/bin/../lib/gcc/pic32mx/3.4.4/../../../../pic32mx/lib/./proc/32MX795F512L/processor.o
                                                  build/mega/production/startup.o
C2FIFOINT17SET                                    /Applications/microchip/mplabc32/v1.11a/bin/../lib/gcc/pic32mx/3.4.4/../../../../pic32mx/lib/./proc/32MX795F512L/processor.o
                                                  build/mega/production/startup.o
C2FIFOINT18                                       /Applications/microchip/mplabc32/v1.11a/bin/../lib/gcc/pic32mx/3.4.4/../../../../pic32mx/lib/./proc/32MX795F512L/processor.o
                                                  build/mega/production/startup.o
C2FIFOINT18CLR                                    /Applications/microchip/mplabc32/v1.11a/bin/../lib/gcc/pic32mx/3.4.4/../../../../pic32mx/lib/./proc/32MX795F512L/processor.o
                                                  build/mega/production/startup.o
C2FIFOINT18INV                                    /Applications/microchip/mplabc32/v1.11a/bin/../lib/gcc/pic32mx/3.4.4/../../../../pic32mx/lib/./proc/32MX795F512L/processor.o
                                                  build/mega/production/startup.o
C2FIFOINT18SET                                    /Applications/microchip/mplabc32/v1.11a/bin/../lib/gcc/pic32mx/3.4.4/../../../../pic32mx/lib/./proc/32MX795F512L/processor.o
                                                  build/mega/production/startup.o
C2FIFOINT19                                       /Applications/microchip/mplabc32/v1.11a/bin/../lib/gcc/pic32mx/3.4.4/../../../../pic32mx/lib/./proc/32MX795F512L/processor.o
                                                  build/mega/production/startup.o
C2FIFOINT19CLR                                    /Applications/microchip/mplabc32/v1.11a/bin/../lib/gcc/pic32mx/3.4.4/../../../../pic32mx/lib/./proc/32MX795F512L/processor.o
                                                  build/mega/production/startup.o
C2FIFOINT19INV                                    /Applications/microchip/mplabc32/v1.11a/bin/../lib/gcc/pic32mx/3.4.4/../../../../pic32mx/lib/./proc/32MX795F512L/processor.o
                                                  build/mega/production/startup.o
C2FIFOINT19SET                                    /Applications/microchip/mplabc32/v1.11a/bin/../lib/gcc/pic32mx/3.4.4/../../../../pic32mx/lib/./proc/32MX795F512L/processor.o
                                                  build/mega/production/startup.o
C2FIFOINT1CLR                                     /Applications/microchip/mplabc32/v1.11a/bin/../lib/gcc/pic32mx/3.4.4/../../../../pic32mx/lib/./proc/32MX795F512L/processor.o
                                                  build/mega/production/startup.o
C2FIFOINT1INV                                     /Applications/microchip/mplabc32/v1.11a/bin/../lib/gcc/pic32mx/3.4.4/../../../../pic32mx/lib/./proc/32MX795F512L/processor.o
                                                  build/mega/production/startup.o
C2FIFOINT1SET                                     /Applications/microchip/mplabc32/v1.11a/bin/../lib/gcc/pic32mx/3.4.4/../../../../pic32mx/lib/./proc/32MX795F512L/processor.o
                                                  build/mega/production/startup.o
C2FIFOINT2                                        /Applications/microchip/mplabc32/v1.11a/bin/../lib/gcc/pic32mx/3.4.4/../../../../pic32mx/lib/./proc/32MX795F512L/processor.o
                                                  build/mega/production/startup.o
C2FIFOINT20                                       /Applications/microchip/mplabc32/v1.11a/bin/../lib/gcc/pic32mx/3.4.4/../../../../pic32mx/lib/./proc/32MX795F512L/processor.o
                                                  build/mega/production/startup.o
C2FIFOINT20CLR                                    /Applications/microchip/mplabc32/v1.11a/bin/../lib/gcc/pic32mx/3.4.4/../../../../pic32mx/lib/./proc/32MX795F512L/processor.o
                                                  build/mega/production/startup.o
C2FIFOINT20INV                                    /Applications/microchip/mplabc32/v1.11a/bin/../lib/gcc/pic32mx/3.4.4/../../../../pic32mx/lib/./proc/32MX795F512L/processor.o
                                                  build/mega/production/startup.o
C2FIFOINT20SET                                    /Applications/microchip/mplabc32/v1.11a/bin/../lib/gcc/pic32mx/3.4.4/../../../../pic32mx/lib/./proc/32MX795F512L/processor.o
                                                  build/mega/production/startup.o
C2FIFOINT21                                       /Applications/microchip/mplabc32/v1.11a/bin/../lib/gcc/pic32mx/3.4.4/../../../../pic32mx/lib/./proc/32MX795F512L/processor.o
                                                  build/mega/production/startup.o
C2FIFOINT21CLR                                    /Applications/microchip/mplabc32/v1.11a/bin/../lib/gcc/pic32mx/3.4.4/../../../../pic32mx/lib/./proc/32MX795F512L/processor.o
                                                  build/mega/production/startup.o
C2FIFOINT21INV                                    /Applications/microchip/mplabc32/v1.11a/bin/../lib/gcc/pic32mx/3.4.4/../../../../pic32mx/lib/./proc/32MX795F512L/processor.o
                                                  build/mega/production/startup.o
C2FIFOINT21SET                                    /Applications/microchip/mplabc32/v1.11a/bin/../lib/gcc/pic32mx/3.4.4/../../../../pic32mx/lib/./proc/32MX795F512L/processor.o
                                                  build/mega/production/startup.o
C2FIFOINT22                                       /Applications/microchip/mplabc32/v1.11a/bin/../lib/gcc/pic32mx/3.4.4/../../../../pic32mx/lib/./proc/32MX795F512L/processor.o
                                                  build/mega/production/startup.o
C2FIFOINT22CLR                                    /Applications/microchip/mplabc32/v1.11a/bin/../lib/gcc/pic32mx/3.4.4/../../../../pic32mx/lib/./proc/32MX795F512L/processor.o
                                                  build/mega/production/startup.o
C2FIFOINT22INV                                    /Applications/microchip/mplabc32/v1.11a/bin/../lib/gcc/pic32mx/3.4.4/../../../../pic32mx/lib/./proc/32MX795F512L/processor.o
                                                  build/mega/production/startup.o
C2FIFOINT22SET                                    /Applications/microchip/mplabc32/v1.11a/bin/../lib/gcc/pic32mx/3.4.4/../../../../pic32mx/lib/./proc/32MX795F512L/processor.o
                                                  build/mega/production/startup.o
C2FIFOINT23                                       /Applications/microchip/mplabc32/v1.11a/bin/../lib/gcc/pic32mx/3.4.4/../../../../pic32mx/lib/./proc/32MX795F512L/processor.o
                                                  build/mega/production/startup.o
C2FIFOINT23CLR                                    /Applications/microchip/mplabc32/v1.11a/bin/../lib/gcc/pic32mx/3.4.4/../../../../pic32mx/lib/./proc/32MX795F512L/processor.o
                                                  build/mega/production/startup.o
C2FIFOINT23INV                                    /Applications/microchip/mplabc32/v1.11a/bin/../lib/gcc/pic32mx/3.4.4/../../../../pic32mx/lib/./proc/32MX795F512L/processor.o
                                                  build/mega/production/startup.o
C2FIFOINT23SET                                    /Applications/microchip/mplabc32/v1.11a/bin/../lib/gcc/pic32mx/3.4.4/../../../../pic32mx/lib/./proc/32MX795F512L/processor.o
                                                  build/mega/production/startup.o
C2FIFOINT24                                       /Applications/microchip/mplabc32/v1.11a/bin/../lib/gcc/pic32mx/3.4.4/../../../../pic32mx/lib/./proc/32MX795F512L/processor.o
                                                  build/mega/production/startup.o
C2FIFOINT24CLR                                    /Applications/microchip/mplabc32/v1.11a/bin/../lib/gcc/pic32mx/3.4.4/../../../../pic32mx/lib/./proc/32MX795F512L/processor.o
                                                  build/mega/production/startup.o
C2FIFOINT24INV                                    /Applications/microchip/mplabc32/v1.11a/bin/../lib/gcc/pic32mx/3.4.4/../../../../pic32mx/lib/./proc/32MX795F512L/processor.o
                                                  build/mega/production/startup.o
C2FIFOINT24SET                                    /Applications/microchip/mplabc32/v1.11a/bin/../lib/gcc/pic32mx/3.4.4/../../../../pic32mx/lib/./proc/32MX795F512L/processor.o
                                                  build/mega/production/startup.o
C2FIFOINT25                                       /Applications/microchip/mplabc32/v1.11a/bin/../lib/gcc/pic32mx/3.4.4/../../../../pic32mx/lib/./proc/32MX795F512L/processor.o
                                                  build/mega/production/startup.o
C2FIFOINT25CLR                                    /Applications/microchip/mplabc32/v1.11a/bin/../lib/gcc/pic32mx/3.4.4/../../../../pic32mx/lib/./proc/32MX795F512L/processor.o
                                                  build/mega/production/startup.o
C2FIFOINT25INV                                    /Applications/microchip/mplabc32/v1.11a/bin/../lib/gcc/pic32mx/3.4.4/../../../../pic32mx/lib/./proc/32MX795F512L/processor.o
                                                  build/mega/production/startup.o
C2FIFOINT25SET                                    /Applications/microchip/mplabc32/v1.11a/bin/../lib/gcc/pic32mx/3.4.4/../../../../pic32mx/lib/./proc/32MX795F512L/processor.o
                                                  build/mega/production/startup.o
C2FIFOINT26                                       /Applications/microchip/mplabc32/v1.11a/bin/../lib/gcc/pic32mx/3.4.4/../../../../pic32mx/lib/./proc/32MX795F512L/processor.o
                                                  build/mega/production/startup.o
C2FIFOINT26CLR                                    /Applications/microchip/mplabc32/v1.11a/bin/../lib/gcc/pic32mx/3.4.4/../../../../pic32mx/lib/./proc/32MX795F512L/processor.o
                                                  build/mega/production/startup.o
C2FIFOINT26INV                                    /Applications/microchip/mplabc32/v1.11a/bin/../lib/gcc/pic32mx/3.4.4/../../../../pic32mx/lib/./proc/32MX795F512L/processor.o
                                                  build/mega/production/startup.o
C2FIFOINT26SET                                    /Applications/microchip/mplabc32/v1.11a/bin/../lib/gcc/pic32mx/3.4.4/../../../../pic32mx/lib/./proc/32MX795F512L/processor.o
                                                  build/mega/production/startup.o
C2FIFOINT27                                       /Applications/microchip/mplabc32/v1.11a/bin/../lib/gcc/pic32mx/3.4.4/../../../../pic32mx/lib/./proc/32MX795F512L/processor.o
                                                  build/mega/production/startup.o
C2FIFOINT27CLR                                    /Applications/microchip/mplabc32/v1.11a/bin/../lib/gcc/pic32mx/3.4.4/../../../../pic32mx/lib/./proc/32MX795F512L/processor.o
                                                  build/mega/production/startup.o
C2FIFOINT27INV                                    /Applications/microchip/mplabc32/v1.11a/bin/../lib/gcc/pic32mx/3.4.4/../../../../pic32mx/lib/./proc/32MX795F512L/processor.o
                                                  build/mega/production/startup.o
C2FIFOINT27SET                                    /Applications/microchip/mplabc32/v1.11a/bin/../lib/gcc/pic32mx/3.4.4/../../../../pic32mx/lib/./proc/32MX795F512L/processor.o
                                                  build/mega/production/startup.o
C2FIFOINT28                                       /Applications/microchip/mplabc32/v1.11a/bin/../lib/gcc/pic32mx/3.4.4/../../../../pic32mx/lib/./proc/32MX795F512L/processor.o
                                                  build/mega/production/startup.o
C2FIFOINT28CLR                                    /Applications/microchip/mplabc32/v1.11a/bin/../lib/gcc/pic32mx/3.4.4/../../../../pic32mx/lib/./proc/32MX795F512L/processor.o
                                                  build/mega/production/startup.o
C2FIFOINT28INV                                    /Applications/microchip/mplabc32/v1.11a/bin/../lib/gcc/pic32mx/3.4.4/../../../../pic32mx/lib/./proc/32MX795F512L/processor.o
                                                  build/mega/production/startup.o
C2FIFOINT28SET                                    /Applications/microchip/mplabc32/v1.11a/bin/../lib/gcc/pic32mx/3.4.4/../../../../pic32mx/lib/./proc/32MX795F512L/processor.o
                                                  build/mega/production/startup.o
C2FIFOINT29                                       /Applications/microchip/mplabc32/v1.11a/bin/../lib/gcc/pic32mx/3.4.4/../../../../pic32mx/lib/./proc/32MX795F512L/processor.o
                                                  build/mega/production/startup.o
C2FIFOINT29CLR                                    /Applications/microchip/mplabc32/v1.11a/bin/../lib/gcc/pic32mx/3.4.4/../../../../pic32mx/lib/./proc/32MX795F512L/processor.o
                                                  build/mega/production/startup.o
C2FIFOINT29INV                                    /Applications/microchip/mplabc32/v1.11a/bin/../lib/gcc/pic32mx/3.4.4/../../../../pic32mx/lib/./proc/32MX795F512L/processor.o
                                                  build/mega/production/startup.o
C2FIFOINT29SET                                    /Applications/microchip/mplabc32/v1.11a/bin/../lib/gcc/pic32mx/3.4.4/../../../../pic32mx/lib/./proc/32MX795F512L/processor.o
                                                  build/mega/production/startup.o
C2FIFOINT2CLR                                     /Applications/microchip/mplabc32/v1.11a/bin/../lib/gcc/pic32mx/3.4.4/../../../../pic32mx/lib/./proc/32MX795F512L/processor.o
                                                  build/mega/production/startup.o
C2FIFOINT2INV                                     /Applications/microchip/mplabc32/v1.11a/bin/../lib/gcc/pic32mx/3.4.4/../../../../pic32mx/lib/./proc/32MX795F512L/processor.o
                                                  build/mega/production/startup.o
C2FIFOINT2SET                                     /Applications/microchip/mplabc32/v1.11a/bin/../lib/gcc/pic32mx/3.4.4/../../../../pic32mx/lib/./proc/32MX795F512L/processor.o
                                                  build/mega/production/startup.o
C2FIFOINT3                                        /Applications/microchip/mplabc32/v1.11a/bin/../lib/gcc/pic32mx/3.4.4/../../../../pic32mx/lib/./proc/32MX795F512L/processor.o
                                                  build/mega/production/startup.o
C2FIFOINT30                                       /Applications/microchip/mplabc32/v1.11a/bin/../lib/gcc/pic32mx/3.4.4/../../../../pic32mx/lib/./proc/32MX795F512L/processor.o
                                                  build/mega/production/startup.o
C2FIFOINT30CLR                                    /Applications/microchip/mplabc32/v1.11a/bin/../lib/gcc/pic32mx/3.4.4/../../../../pic32mx/lib/./proc/32MX795F512L/processor.o
                                                  build/mega/production/startup.o
C2FIFOINT30INV                                    /Applications/microchip/mplabc32/v1.11a/bin/../lib/gcc/pic32mx/3.4.4/../../../../pic32mx/lib/./proc/32MX795F512L/processor.o
                                                  build/mega/production/startup.o
C2FIFOINT30SET                                    /Applications/microchip/mplabc32/v1.11a/bin/../lib/gcc/pic32mx/3.4.4/../../../../pic32mx/lib/./proc/32MX795F512L/processor.o
                                                  build/mega/production/startup.o
C2FIFOINT31                                       /Applications/microchip/mplabc32/v1.11a/bin/../lib/gcc/pic32mx/3.4.4/../../../../pic32mx/lib/./proc/32MX795F512L/processor.o
                                                  build/mega/production/startup.o
C2FIFOINT31CLR                                    /Applications/microchip/mplabc32/v1.11a/bin/../lib/gcc/pic32mx/3.4.4/../../../../pic32mx/lib/./proc/32MX795F512L/processor.o
                                                  build/mega/production/startup.o
C2FIFOINT31INV                                    /Applications/microchip/mplabc32/v1.11a/bin/../lib/gcc/pic32mx/3.4.4/../../../../pic32mx/lib/./proc/32MX795F512L/processor.o
                                                  build/mega/production/startup.o
C2FIFOINT31SET                                    /Applications/microchip/mplabc32/v1.11a/bin/../lib/gcc/pic32mx/3.4.4/../../../../pic32mx/lib/./proc/32MX795F512L/processor.o
                                                  build/mega/production/startup.o
C2FIFOINT3CLR                                     /Applications/microchip/mplabc32/v1.11a/bin/../lib/gcc/pic32mx/3.4.4/../../../../pic32mx/lib/./proc/32MX795F512L/processor.o
                                                  build/mega/production/startup.o
C2FIFOINT3INV                                     /Applications/microchip/mplabc32/v1.11a/bin/../lib/gcc/pic32mx/3.4.4/../../../../pic32mx/lib/./proc/32MX795F512L/processor.o
                                                  build/mega/production/startup.o
C2FIFOINT3SET                                     /Applications/microchip/mplabc32/v1.11a/bin/../lib/gcc/pic32mx/3.4.4/../../../../pic32mx/lib/./proc/32MX795F512L/processor.o
                                                  build/mega/production/startup.o
C2FIFOINT4                                        /Applications/microchip/mplabc32/v1.11a/bin/../lib/gcc/pic32mx/3.4.4/../../../../pic32mx/lib/./proc/32MX795F512L/processor.o
                                                  build/mega/production/startup.o
C2FIFOINT4CLR                                     /Applications/microchip/mplabc32/v1.11a/bin/../lib/gcc/pic32mx/3.4.4/../../../../pic32mx/lib/./proc/32MX795F512L/processor.o
                                                  build/mega/production/startup.o
C2FIFOINT4INV                                     /Applications/microchip/mplabc32/v1.11a/bin/../lib/gcc/pic32mx/3.4.4/../../../../pic32mx/lib/./proc/32MX795F512L/processor.o
                                                  build/mega/production/startup.o
C2FIFOINT4SET                                     /Applications/microchip/mplabc32/v1.11a/bin/../lib/gcc/pic32mx/3.4.4/../../../../pic32mx/lib/./proc/32MX795F512L/processor.o
                                                  build/mega/production/startup.o
C2FIFOINT5                                        /Applications/microchip/mplabc32/v1.11a/bin/../lib/gcc/pic32mx/3.4.4/../../../../pic32mx/lib/./proc/32MX795F512L/processor.o
                                                  build/mega/production/startup.o
C2FIFOINT5CLR                                     /Applications/microchip/mplabc32/v1.11a/bin/../lib/gcc/pic32mx/3.4.4/../../../../pic32mx/lib/./proc/32MX795F512L/processor.o
                                                  build/mega/production/startup.o
C2FIFOINT5INV                                     /Applications/microchip/mplabc32/v1.11a/bin/../lib/gcc/pic32mx/3.4.4/../../../../pic32mx/lib/./proc/32MX795F512L/processor.o
                                                  build/mega/production/startup.o
C2FIFOINT5SET                                     /Applications/microchip/mplabc32/v1.11a/bin/../lib/gcc/pic32mx/3.4.4/../../../../pic32mx/lib/./proc/32MX795F512L/processor.o
                                                  build/mega/production/startup.o
C2FIFOINT6                                        /Applications/microchip/mplabc32/v1.11a/bin/../lib/gcc/pic32mx/3.4.4/../../../../pic32mx/lib/./proc/32MX795F512L/processor.o
                                                  build/mega/production/startup.o
C2FIFOINT6CLR                                     /Applications/microchip/mplabc32/v1.11a/bin/../lib/gcc/pic32mx/3.4.4/../../../../pic32mx/lib/./proc/32MX795F512L/processor.o
                                                  build/mega/production/startup.o
C2FIFOINT6INV                                     /Applications/microchip/mplabc32/v1.11a/bin/../lib/gcc/pic32mx/3.4.4/../../../../pic32mx/lib/./proc/32MX795F512L/processor.o
                                                  build/mega/production/startup.o
C2FIFOINT6SET                                     /Applications/microchip/mplabc32/v1.11a/bin/../lib/gcc/pic32mx/3.4.4/../../../../pic32mx/lib/./proc/32MX795F512L/processor.o
                                                  build/mega/production/startup.o
C2FIFOINT7                                        /Applications/microchip/mplabc32/v1.11a/bin/../lib/gcc/pic32mx/3.4.4/../../../../pic32mx/lib/./proc/32MX795F512L/processor.o
                                                  build/mega/production/startup.o
C2FIFOINT7CLR                                     /Applications/microchip/mplabc32/v1.11a/bin/../lib/gcc/pic32mx/3.4.4/../../../../pic32mx/lib/./proc/32MX795F512L/processor.o
                                                  build/mega/production/startup.o
C2FIFOINT7INV                                     /Applications/microchip/mplabc32/v1.11a/bin/../lib/gcc/pic32mx/3.4.4/../../../../pic32mx/lib/./proc/32MX795F512L/processor.o
                                                  build/mega/production/startup.o
C2FIFOINT7SET                                     /Applications/microchip/mplabc32/v1.11a/bin/../lib/gcc/pic32mx/3.4.4/../../../../pic32mx/lib/./proc/32MX795F512L/processor.o
                                                  build/mega/production/startup.o
C2FIFOINT8                                        /Applications/microchip/mplabc32/v1.11a/bin/../lib/gcc/pic32mx/3.4.4/../../../../pic32mx/lib/./proc/32MX795F512L/processor.o
                                                  build/mega/production/startup.o
C2FIFOINT8CLR                                     /Applications/microchip/mplabc32/v1.11a/bin/../lib/gcc/pic32mx/3.4.4/../../../../pic32mx/lib/./proc/32MX795F512L/processor.o
                                                  build/mega/production/startup.o
C2FIFOINT8INV                                     /Applications/microchip/mplabc32/v1.11a/bin/../lib/gcc/pic32mx/3.4.4/../../../../pic32mx/lib/./proc/32MX795F512L/processor.o
                                                  build/mega/production/startup.o
C2FIFOINT8SET                                     /Applications/microchip/mplabc32/v1.11a/bin/../lib/gcc/pic32mx/3.4.4/../../../../pic32mx/lib/./proc/32MX795F512L/processor.o
                                                  build/mega/production/startup.o
C2FIFOINT9                                        /Applications/microchip/mplabc32/v1.11a/bin/../lib/gcc/pic32mx/3.4.4/../../../../pic32mx/lib/./proc/32MX795F512L/processor.o
                                                  build/mega/production/startup.o
C2FIFOINT9CLR                                     /Applications/microchip/mplabc32/v1.11a/bin/../lib/gcc/pic32mx/3.4.4/../../../../pic32mx/lib/./proc/32MX795F512L/processor.o
                                                  build/mega/production/startup.o
C2FIFOINT9INV                                     /Applications/microchip/mplabc32/v1.11a/bin/../lib/gcc/pic32mx/3.4.4/../../../../pic32mx/lib/./proc/32MX795F512L/processor.o
                                                  build/mega/production/startup.o
C2FIFOINT9SET                                     /Applications/microchip/mplabc32/v1.11a/bin/../lib/gcc/pic32mx/3.4.4/../../../../pic32mx/lib/./proc/32MX795F512L/processor.o
                                                  build/mega/production/startup.o
C2FIFOUA0                                         /Applications/microchip/mplabc32/v1.11a/bin/../lib/gcc/pic32mx/3.4.4/../../../../pic32mx/lib/./proc/32MX795F512L/processor.o
                                                  build/mega/production/startup.o
C2FIFOUA0CLR                                      /Applications/microchip/mplabc32/v1.11a/bin/../lib/gcc/pic32mx/3.4.4/../../../../pic32mx/lib/./proc/32MX795F512L/processor.o
                                                  build/mega/production/startup.o
C2FIFOUA0INV                                      /Applications/microchip/mplabc32/v1.11a/bin/../lib/gcc/pic32mx/3.4.4/../../../../pic32mx/lib/./proc/32MX795F512L/processor.o
                                                  build/mega/production/startup.o
C2FIFOUA0SET                                      /Applications/microchip/mplabc32/v1.11a/bin/../lib/gcc/pic32mx/3.4.4/../../../../pic32mx/lib/./proc/32MX795F512L/processor.o
                                                  build/mega/production/startup.o
C2FIFOUA1                                         /Applications/microchip/mplabc32/v1.11a/bin/../lib/gcc/pic32mx/3.4.4/../../../../pic32mx/lib/./proc/32MX795F512L/processor.o
                                                  build/mega/production/startup.o
C2FIFOUA10                                        /Applications/microchip/mplabc32/v1.11a/bin/../lib/gcc/pic32mx/3.4.4/../../../../pic32mx/lib/./proc/32MX795F512L/processor.o
                                                  build/mega/production/startup.o
C2FIFOUA10CLR                                     /Applications/microchip/mplabc32/v1.11a/bin/../lib/gcc/pic32mx/3.4.4/../../../../pic32mx/lib/./proc/32MX795F512L/processor.o
                                                  build/mega/production/startup.o
C2FIFOUA10INV                                     /Applications/microchip/mplabc32/v1.11a/bin/../lib/gcc/pic32mx/3.4.4/../../../../pic32mx/lib/./proc/32MX795F512L/processor.o
                                                  build/mega/production/startup.o
C2FIFOUA10SET                                     /Applications/microchip/mplabc32/v1.11a/bin/../lib/gcc/pic32mx/3.4.4/../../../../pic32mx/lib/./proc/32MX795F512L/processor.o
                                                  build/mega/production/startup.o
C2FIFOUA11                                        /Applications/microchip/mplabc32/v1.11a/bin/../lib/gcc/pic32mx/3.4.4/../../../../pic32mx/lib/./proc/32MX795F512L/processor.o
                                                  build/mega/production/startup.o
C2FIFOUA11CLR                                     /Applications/microchip/mplabc32/v1.11a/bin/../lib/gcc/pic32mx/3.4.4/../../../../pic32mx/lib/./proc/32MX795F512L/processor.o
                                                  build/mega/production/startup.o
C2FIFOUA11INV                                     /Applications/microchip/mplabc32/v1.11a/bin/../lib/gcc/pic32mx/3.4.4/../../../../pic32mx/lib/./proc/32MX795F512L/processor.o
                                                  build/mega/production/startup.o
C2FIFOUA11SET                                     /Applications/microchip/mplabc32/v1.11a/bin/../lib/gcc/pic32mx/3.4.4/../../../../pic32mx/lib/./proc/32MX795F512L/processor.o
                                                  build/mega/production/startup.o
C2FIFOUA12                                        /Applications/microchip/mplabc32/v1.11a/bin/../lib/gcc/pic32mx/3.4.4/../../../../pic32mx/lib/./proc/32MX795F512L/processor.o
                                                  build/mega/production/startup.o
C2FIFOUA12CLR                                     /Applications/microchip/mplabc32/v1.11a/bin/../lib/gcc/pic32mx/3.4.4/../../../../pic32mx/lib/./proc/32MX795F512L/processor.o
                                                  build/mega/production/startup.o
C2FIFOUA12INV                                     /Applications/microchip/mplabc32/v1.11a/bin/../lib/gcc/pic32mx/3.4.4/../../../../pic32mx/lib/./proc/32MX795F512L/processor.o
                                                  build/mega/production/startup.o
C2FIFOUA12SET                                     /Applications/microchip/mplabc32/v1.11a/bin/../lib/gcc/pic32mx/3.4.4/../../../../pic32mx/lib/./proc/32MX795F512L/processor.o
                                                  build/mega/production/startup.o
C2FIFOUA13                                        /Applications/microchip/mplabc32/v1.11a/bin/../lib/gcc/pic32mx/3.4.4/../../../../pic32mx/lib/./proc/32MX795F512L/processor.o
                                                  build/mega/production/startup.o
C2FIFOUA13CLR                                     /Applications/microchip/mplabc32/v1.11a/bin/../lib/gcc/pic32mx/3.4.4/../../../../pic32mx/lib/./proc/32MX795F512L/processor.o
                                                  build/mega/production/startup.o
C2FIFOUA13INV                                     /Applications/microchip/mplabc32/v1.11a/bin/../lib/gcc/pic32mx/3.4.4/../../../../pic32mx/lib/./proc/32MX795F512L/processor.o
                                                  build/mega/production/startup.o
C2FIFOUA13SET                                     /Applications/microchip/mplabc32/v1.11a/bin/../lib/gcc/pic32mx/3.4.4/../../../../pic32mx/lib/./proc/32MX795F512L/processor.o
                                                  build/mega/production/startup.o
C2FIFOUA14                                        /Applications/microchip/mplabc32/v1.11a/bin/../lib/gcc/pic32mx/3.4.4/../../../../pic32mx/lib/./proc/32MX795F512L/processor.o
                                                  build/mega/production/startup.o
C2FIFOUA14CLR                                     /Applications/microchip/mplabc32/v1.11a/bin/../lib/gcc/pic32mx/3.4.4/../../../../pic32mx/lib/./proc/32MX795F512L/processor.o
                                                  build/mega/production/startup.o
C2FIFOUA14INV                                     /Applications/microchip/mplabc32/v1.11a/bin/../lib/gcc/pic32mx/3.4.4/../../../../pic32mx/lib/./proc/32MX795F512L/processor.o
                                                  build/mega/production/startup.o
C2FIFOUA14SET                                     /Applications/microchip/mplabc32/v1.11a/bin/../lib/gcc/pic32mx/3.4.4/../../../../pic32mx/lib/./proc/32MX795F512L/processor.o
                                                  build/mega/production/startup.o
C2FIFOUA15                                        /Applications/microchip/mplabc32/v1.11a/bin/../lib/gcc/pic32mx/3.4.4/../../../../pic32mx/lib/./proc/32MX795F512L/processor.o
                                                  build/mega/production/startup.o
C2FIFOUA15CLR                                     /Applications/microchip/mplabc32/v1.11a/bin/../lib/gcc/pic32mx/3.4.4/../../../../pic32mx/lib/./proc/32MX795F512L/processor.o
                                                  build/mega/production/startup.o
C2FIFOUA15INV                                     /Applications/microchip/mplabc32/v1.11a/bin/../lib/gcc/pic32mx/3.4.4/../../../../pic32mx/lib/./proc/32MX795F512L/processor.o
                                                  build/mega/production/startup.o
C2FIFOUA15SET                                     /Applications/microchip/mplabc32/v1.11a/bin/../lib/gcc/pic32mx/3.4.4/../../../../pic32mx/lib/./proc/32MX795F512L/processor.o
                                                  build/mega/production/startup.o
C2FIFOUA16                                        /Applications/microchip/mplabc32/v1.11a/bin/../lib/gcc/pic32mx/3.4.4/../../../../pic32mx/lib/./proc/32MX795F512L/processor.o
                                                  build/mega/production/startup.o
C2FIFOUA16CLR                                     /Applications/microchip/mplabc32/v1.11a/bin/../lib/gcc/pic32mx/3.4.4/../../../../pic32mx/lib/./proc/32MX795F512L/processor.o
                                                  build/mega/production/startup.o
C2FIFOUA16INV                                     /Applications/microchip/mplabc32/v1.11a/bin/../lib/gcc/pic32mx/3.4.4/../../../../pic32mx/lib/./proc/32MX795F512L/processor.o
                                                  build/mega/production/startup.o
C2FIFOUA16SET                                     /Applications/microchip/mplabc32/v1.11a/bin/../lib/gcc/pic32mx/3.4.4/../../../../pic32mx/lib/./proc/32MX795F512L/processor.o
                                                  build/mega/production/startup.o
C2FIFOUA17                                        /Applications/microchip/mplabc32/v1.11a/bin/../lib/gcc/pic32mx/3.4.4/../../../../pic32mx/lib/./proc/32MX795F512L/processor.o
                                                  build/mega/production/startup.o
C2FIFOUA17CLR                                     /Applications/microchip/mplabc32/v1.11a/bin/../lib/gcc/pic32mx/3.4.4/../../../../pic32mx/lib/./proc/32MX795F512L/processor.o
                                                  build/mega/production/startup.o
C2FIFOUA17INV                                     /Applications/microchip/mplabc32/v1.11a/bin/../lib/gcc/pic32mx/3.4.4/../../../../pic32mx/lib/./proc/32MX795F512L/processor.o
                                                  build/mega/production/startup.o
C2FIFOUA17SET                                     /Applications/microchip/mplabc32/v1.11a/bin/../lib/gcc/pic32mx/3.4.4/../../../../pic32mx/lib/./proc/32MX795F512L/processor.o
                                                  build/mega/production/startup.o
C2FIFOUA18                                        /Applications/microchip/mplabc32/v1.11a/bin/../lib/gcc/pic32mx/3.4.4/../../../../pic32mx/lib/./proc/32MX795F512L/processor.o
                                                  build/mega/production/startup.o
C2FIFOUA18CLR                                     /Applications/microchip/mplabc32/v1.11a/bin/../lib/gcc/pic32mx/3.4.4/../../../../pic32mx/lib/./proc/32MX795F512L/processor.o
                                                  build/mega/production/startup.o
C2FIFOUA18INV                                     /Applications/microchip/mplabc32/v1.11a/bin/../lib/gcc/pic32mx/3.4.4/../../../../pic32mx/lib/./proc/32MX795F512L/processor.o
                                                  build/mega/production/startup.o
C2FIFOUA18SET                                     /Applications/microchip/mplabc32/v1.11a/bin/../lib/gcc/pic32mx/3.4.4/../../../../pic32mx/lib/./proc/32MX795F512L/processor.o
                                                  build/mega/production/startup.o
C2FIFOUA19                                        /Applications/microchip/mplabc32/v1.11a/bin/../lib/gcc/pic32mx/3.4.4/../../../../pic32mx/lib/./proc/32MX795F512L/processor.o
                                                  build/mega/production/startup.o
C2FIFOUA19CLR                                     /Applications/microchip/mplabc32/v1.11a/bin/../lib/gcc/pic32mx/3.4.4/../../../../pic32mx/lib/./proc/32MX795F512L/processor.o
                                                  build/mega/production/startup.o
C2FIFOUA19INV                                     /Applications/microchip/mplabc32/v1.11a/bin/../lib/gcc/pic32mx/3.4.4/../../../../pic32mx/lib/./proc/32MX795F512L/processor.o
                                                  build/mega/production/startup.o
C2FIFOUA19SET                                     /Applications/microchip/mplabc32/v1.11a/bin/../lib/gcc/pic32mx/3.4.4/../../../../pic32mx/lib/./proc/32MX795F512L/processor.o
                                                  build/mega/production/startup.o
C2FIFOUA1CLR                                      /Applications/microchip/mplabc32/v1.11a/bin/../lib/gcc/pic32mx/3.4.4/../../../../pic32mx/lib/./proc/32MX795F512L/processor.o
                                                  build/mega/production/startup.o
C2FIFOUA1INV                                      /Applications/microchip/mplabc32/v1.11a/bin/../lib/gcc/pic32mx/3.4.4/../../../../pic32mx/lib/./proc/32MX795F512L/processor.o
                                                  build/mega/production/startup.o
C2FIFOUA1SET                                      /Applications/microchip/mplabc32/v1.11a/bin/../lib/gcc/pic32mx/3.4.4/../../../../pic32mx/lib/./proc/32MX795F512L/processor.o
                                                  build/mega/production/startup.o
C2FIFOUA2                                         /Applications/microchip/mplabc32/v1.11a/bin/../lib/gcc/pic32mx/3.4.4/../../../../pic32mx/lib/./proc/32MX795F512L/processor.o
                                                  build/mega/production/startup.o
C2FIFOUA20                                        /Applications/microchip/mplabc32/v1.11a/bin/../lib/gcc/pic32mx/3.4.4/../../../../pic32mx/lib/./proc/32MX795F512L/processor.o
                                                  build/mega/production/startup.o
C2FIFOUA20CLR                                     /Applications/microchip/mplabc32/v1.11a/bin/../lib/gcc/pic32mx/3.4.4/../../../../pic32mx/lib/./proc/32MX795F512L/processor.o
                                                  build/mega/production/startup.o
C2FIFOUA20INV                                     /Applications/microchip/mplabc32/v1.11a/bin/../lib/gcc/pic32mx/3.4.4/../../../../pic32mx/lib/./proc/32MX795F512L/processor.o
                                                  build/mega/production/startup.o
C2FIFOUA20SET                                     /Applications/microchip/mplabc32/v1.11a/bin/../lib/gcc/pic32mx/3.4.4/../../../../pic32mx/lib/./proc/32MX795F512L/processor.o
                                                  build/mega/production/startup.o
C2FIFOUA21                                        /Applications/microchip/mplabc32/v1.11a/bin/../lib/gcc/pic32mx/3.4.4/../../../../pic32mx/lib/./proc/32MX795F512L/processor.o
                                                  build/mega/production/startup.o
C2FIFOUA21CLR                                     /Applications/microchip/mplabc32/v1.11a/bin/../lib/gcc/pic32mx/3.4.4/../../../../pic32mx/lib/./proc/32MX795F512L/processor.o
                                                  build/mega/production/startup.o
C2FIFOUA21INV                                     /Applications/microchip/mplabc32/v1.11a/bin/../lib/gcc/pic32mx/3.4.4/../../../../pic32mx/lib/./proc/32MX795F512L/processor.o
                                                  build/mega/production/startup.o
C2FIFOUA21SET                                     /Applications/microchip/mplabc32/v1.11a/bin/../lib/gcc/pic32mx/3.4.4/../../../../pic32mx/lib/./proc/32MX795F512L/processor.o
                                                  build/mega/production/startup.o
C2FIFOUA22                                        /Applications/microchip/mplabc32/v1.11a/bin/../lib/gcc/pic32mx/3.4.4/../../../../pic32mx/lib/./proc/32MX795F512L/processor.o
                                                  build/mega/production/startup.o
C2FIFOUA22CLR                                     /Applications/microchip/mplabc32/v1.11a/bin/../lib/gcc/pic32mx/3.4.4/../../../../pic32mx/lib/./proc/32MX795F512L/processor.o
                                                  build/mega/production/startup.o
C2FIFOUA22INV                                     /Applications/microchip/mplabc32/v1.11a/bin/../lib/gcc/pic32mx/3.4.4/../../../../pic32mx/lib/./proc/32MX795F512L/processor.o
                                                  build/mega/production/startup.o
C2FIFOUA22SET                                     /Applications/microchip/mplabc32/v1.11a/bin/../lib/gcc/pic32mx/3.4.4/../../../../pic32mx/lib/./proc/32MX795F512L/processor.o
                                                  build/mega/production/startup.o
C2FIFOUA23                                        /Applications/microchip/mplabc32/v1.11a/bin/../lib/gcc/pic32mx/3.4.4/../../../../pic32mx/lib/./proc/32MX795F512L/processor.o
                                                  build/mega/production/startup.o
C2FIFOUA23CLR                                     /Applications/microchip/mplabc32/v1.11a/bin/../lib/gcc/pic32mx/3.4.4/../../../../pic32mx/lib/./proc/32MX795F512L/processor.o
                                                  build/mega/production/startup.o
C2FIFOUA23INV                                     /Applications/microchip/mplabc32/v1.11a/bin/../lib/gcc/pic32mx/3.4.4/../../../../pic32mx/lib/./proc/32MX795F512L/processor.o
                                                  build/mega/production/startup.o
C2FIFOUA23SET                                     /Applications/microchip/mplabc32/v1.11a/bin/../lib/gcc/pic32mx/3.4.4/../../../../pic32mx/lib/./proc/32MX795F512L/processor.o
                                                  build/mega/production/startup.o
C2FIFOUA24                                        /Applications/microchip/mplabc32/v1.11a/bin/../lib/gcc/pic32mx/3.4.4/../../../../pic32mx/lib/./proc/32MX795F512L/processor.o
                                                  build/mega/production/startup.o
C2FIFOUA24CLR                                     /Applications/microchip/mplabc32/v1.11a/bin/../lib/gcc/pic32mx/3.4.4/../../../../pic32mx/lib/./proc/32MX795F512L/processor.o
                                                  build/mega/production/startup.o
C2FIFOUA24INV                                     /Applications/microchip/mplabc32/v1.11a/bin/../lib/gcc/pic32mx/3.4.4/../../../../pic32mx/lib/./proc/32MX795F512L/processor.o
                                                  build/mega/production/startup.o
C2FIFOUA24SET                                     /Applications/microchip/mplabc32/v1.11a/bin/../lib/gcc/pic32mx/3.4.4/../../../../pic32mx/lib/./proc/32MX795F512L/processor.o
                                                  build/mega/production/startup.o
C2FIFOUA25                                        /Applications/microchip/mplabc32/v1.11a/bin/../lib/gcc/pic32mx/3.4.4/../../../../pic32mx/lib/./proc/32MX795F512L/processor.o
                                                  build/mega/production/startup.o
C2FIFOUA25CLR                                     /Applications/microchip/mplabc32/v1.11a/bin/../lib/gcc/pic32mx/3.4.4/../../../../pic32mx/lib/./proc/32MX795F512L/processor.o
                                                  build/mega/production/startup.o
C2FIFOUA25INV                                     /Applications/microchip/mplabc32/v1.11a/bin/../lib/gcc/pic32mx/3.4.4/../../../../pic32mx/lib/./proc/32MX795F512L/processor.o
                                                  build/mega/production/startup.o
C2FIFOUA25SET                                     /Applications/microchip/mplabc32/v1.11a/bin/../lib/gcc/pic32mx/3.4.4/../../../../pic32mx/lib/./proc/32MX795F512L/processor.o
                                                  build/mega/production/startup.o
C2FIFOUA26                                        /Applications/microchip/mplabc32/v1.11a/bin/../lib/gcc/pic32mx/3.4.4/../../../../pic32mx/lib/./proc/32MX795F512L/processor.o
                                                  build/mega/production/startup.o
C2FIFOUA26CLR                                     /Applications/microchip/mplabc32/v1.11a/bin/../lib/gcc/pic32mx/3.4.4/../../../../pic32mx/lib/./proc/32MX795F512L/processor.o
                                                  build/mega/production/startup.o
C2FIFOUA26INV                                     /Applications/microchip/mplabc32/v1.11a/bin/../lib/gcc/pic32mx/3.4.4/../../../../pic32mx/lib/./proc/32MX795F512L/processor.o
                                                  build/mega/production/startup.o
C2FIFOUA26SET                                     /Applications/microchip/mplabc32/v1.11a/bin/../lib/gcc/pic32mx/3.4.4/../../../../pic32mx/lib/./proc/32MX795F512L/processor.o
                                                  build/mega/production/startup.o
C2FIFOUA27                                        /Applications/microchip/mplabc32/v1.11a/bin/../lib/gcc/pic32mx/3.4.4/../../../../pic32mx/lib/./proc/32MX795F512L/processor.o
                                                  build/mega/production/startup.o
C2FIFOUA27CLR                                     /Applications/microchip/mplabc32/v1.11a/bin/../lib/gcc/pic32mx/3.4.4/../../../../pic32mx/lib/./proc/32MX795F512L/processor.o
                                                  build/mega/production/startup.o
C2FIFOUA27INV                                     /Applications/microchip/mplabc32/v1.11a/bin/../lib/gcc/pic32mx/3.4.4/../../../../pic32mx/lib/./proc/32MX795F512L/processor.o
                                                  build/mega/production/startup.o
C2FIFOUA27SET                                     /Applications/microchip/mplabc32/v1.11a/bin/../lib/gcc/pic32mx/3.4.4/../../../../pic32mx/lib/./proc/32MX795F512L/processor.o
                                                  build/mega/production/startup.o
C2FIFOUA28                                        /Applications/microchip/mplabc32/v1.11a/bin/../lib/gcc/pic32mx/3.4.4/../../../../pic32mx/lib/./proc/32MX795F512L/processor.o
                                                  build/mega/production/startup.o
C2FIFOUA28CLR                                     /Applications/microchip/mplabc32/v1.11a/bin/../lib/gcc/pic32mx/3.4.4/../../../../pic32mx/lib/./proc/32MX795F512L/processor.o
                                                  build/mega/production/startup.o
C2FIFOUA28INV                                     /Applications/microchip/mplabc32/v1.11a/bin/../lib/gcc/pic32mx/3.4.4/../../../../pic32mx/lib/./proc/32MX795F512L/processor.o
                                                  build/mega/production/startup.o
C2FIFOUA28SET                                     /Applications/microchip/mplabc32/v1.11a/bin/../lib/gcc/pic32mx/3.4.4/../../../../pic32mx/lib/./proc/32MX795F512L/processor.o
                                                  build/mega/production/startup.o
C2FIFOUA29                                        /Applications/microchip/mplabc32/v1.11a/bin/../lib/gcc/pic32mx/3.4.4/../../../../pic32mx/lib/./proc/32MX795F512L/processor.o
                                                  build/mega/production/startup.o
C2FIFOUA29CLR                                     /Applications/microchip/mplabc32/v1.11a/bin/../lib/gcc/pic32mx/3.4.4/../../../../pic32mx/lib/./proc/32MX795F512L/processor.o
                                                  build/mega/production/startup.o
C2FIFOUA29INV                                     /Applications/microchip/mplabc32/v1.11a/bin/../lib/gcc/pic32mx/3.4.4/../../../../pic32mx/lib/./proc/32MX795F512L/processor.o
                                                  build/mega/production/startup.o
C2FIFOUA29SET                                     /Applications/microchip/mplabc32/v1.11a/bin/../lib/gcc/pic32mx/3.4.4/../../../../pic32mx/lib/./proc/32MX795F512L/processor.o
                                                  build/mega/production/startup.o
C2FIFOUA2CLR                                      /Applications/microchip/mplabc32/v1.11a/bin/../lib/gcc/pic32mx/3.4.4/../../../../pic32mx/lib/./proc/32MX795F512L/processor.o
                                                  build/mega/production/startup.o
C2FIFOUA2INV                                      /Applications/microchip/mplabc32/v1.11a/bin/../lib/gcc/pic32mx/3.4.4/../../../../pic32mx/lib/./proc/32MX795F512L/processor.o
                                                  build/mega/production/startup.o
C2FIFOUA2SET                                      /Applications/microchip/mplabc32/v1.11a/bin/../lib/gcc/pic32mx/3.4.4/../../../../pic32mx/lib/./proc/32MX795F512L/processor.o
                                                  build/mega/production/startup.o
C2FIFOUA3                                         /Applications/microchip/mplabc32/v1.11a/bin/../lib/gcc/pic32mx/3.4.4/../../../../pic32mx/lib/./proc/32MX795F512L/processor.o
                                                  build/mega/production/startup.o
C2FIFOUA30                                        /Applications/microchip/mplabc32/v1.11a/bin/../lib/gcc/pic32mx/3.4.4/../../../../pic32mx/lib/./proc/32MX795F512L/processor.o
                                                  build/mega/production/startup.o
C2FIFOUA30CLR                                     /Applications/microchip/mplabc32/v1.11a/bin/../lib/gcc/pic32mx/3.4.4/../../../../pic32mx/lib/./proc/32MX795F512L/processor.o
                                                  build/mega/production/startup.o
C2FIFOUA30INV                                     /Applications/microchip/mplabc32/v1.11a/bin/../lib/gcc/pic32mx/3.4.4/../../../../pic32mx/lib/./proc/32MX795F512L/processor.o
                                                  build/mega/production/startup.o
C2FIFOUA30SET                                     /Applications/microchip/mplabc32/v1.11a/bin/../lib/gcc/pic32mx/3.4.4/../../../../pic32mx/lib/./proc/32MX795F512L/processor.o
                                                  build/mega/production/startup.o
C2FIFOUA31                                        /Applications/microchip/mplabc32/v1.11a/bin/../lib/gcc/pic32mx/3.4.4/../../../../pic32mx/lib/./proc/32MX795F512L/processor.o
                                                  build/mega/production/startup.o
C2FIFOUA31CLR                                     /Applications/microchip/mplabc32/v1.11a/bin/../lib/gcc/pic32mx/3.4.4/../../../../pic32mx/lib/./proc/32MX795F512L/processor.o
                                                  build/mega/production/startup.o
C2FIFOUA31INV                                     /Applications/microchip/mplabc32/v1.11a/bin/../lib/gcc/pic32mx/3.4.4/../../../../pic32mx/lib/./proc/32MX795F512L/processor.o
                                                  build/mega/production/startup.o
C2FIFOUA31SET                                     /Applications/microchip/mplabc32/v1.11a/bin/../lib/gcc/pic32mx/3.4.4/../../../../pic32mx/lib/./proc/32MX795F512L/processor.o
                                                  build/mega/production/startup.o
C2FIFOUA3CLR                                      /Applications/microchip/mplabc32/v1.11a/bin/../lib/gcc/pic32mx/3.4.4/../../../../pic32mx/lib/./proc/32MX795F512L/processor.o
                                                  build/mega/production/startup.o
C2FIFOUA3INV                                      /Applications/microchip/mplabc32/v1.11a/bin/../lib/gcc/pic32mx/3.4.4/../../../../pic32mx/lib/./proc/32MX795F512L/processor.o
                                                  build/mega/production/startup.o
C2FIFOUA3SET                                      /Applications/microchip/mplabc32/v1.11a/bin/../lib/gcc/pic32mx/3.4.4/../../../../pic32mx/lib/./proc/32MX795F512L/processor.o
                                                  build/mega/production/startup.o
C2FIFOUA4                                         /Applications/microchip/mplabc32/v1.11a/bin/../lib/gcc/pic32mx/3.4.4/../../../../pic32mx/lib/./proc/32MX795F512L/processor.o
                                                  build/mega/production/startup.o
C2FIFOUA4CLR                                      /Applications/microchip/mplabc32/v1.11a/bin/../lib/gcc/pic32mx/3.4.4/../../../../pic32mx/lib/./proc/32MX795F512L/processor.o
                                                  build/mega/production/startup.o
C2FIFOUA4INV                                      /Applications/microchip/mplabc32/v1.11a/bin/../lib/gcc/pic32mx/3.4.4/../../../../pic32mx/lib/./proc/32MX795F512L/processor.o
                                                  build/mega/production/startup.o
C2FIFOUA4SET                                      /Applications/microchip/mplabc32/v1.11a/bin/../lib/gcc/pic32mx/3.4.4/../../../../pic32mx/lib/./proc/32MX795F512L/processor.o
                                                  build/mega/production/startup.o
C2FIFOUA5                                         /Applications/microchip/mplabc32/v1.11a/bin/../lib/gcc/pic32mx/3.4.4/../../../../pic32mx/lib/./proc/32MX795F512L/processor.o
                                                  build/mega/production/startup.o
C2FIFOUA5CLR                                      /Applications/microchip/mplabc32/v1.11a/bin/../lib/gcc/pic32mx/3.4.4/../../../../pic32mx/lib/./proc/32MX795F512L/processor.o
                                                  build/mega/production/startup.o
C2FIFOUA5INV                                      /Applications/microchip/mplabc32/v1.11a/bin/../lib/gcc/pic32mx/3.4.4/../../../../pic32mx/lib/./proc/32MX795F512L/processor.o
                                                  build/mega/production/startup.o
C2FIFOUA5SET                                      /Applications/microchip/mplabc32/v1.11a/bin/../lib/gcc/pic32mx/3.4.4/../../../../pic32mx/lib/./proc/32MX795F512L/processor.o
                                                  build/mega/production/startup.o
C2FIFOUA6                                         /Applications/microchip/mplabc32/v1.11a/bin/../lib/gcc/pic32mx/3.4.4/../../../../pic32mx/lib/./proc/32MX795F512L/processor.o
                                                  build/mega/production/startup.o
C2FIFOUA6CLR                                      /Applications/microchip/mplabc32/v1.11a/bin/../lib/gcc/pic32mx/3.4.4/../../../../pic32mx/lib/./proc/32MX795F512L/processor.o
                                                  build/mega/production/startup.o
C2FIFOUA6INV                                      /Applications/microchip/mplabc32/v1.11a/bin/../lib/gcc/pic32mx/3.4.4/../../../../pic32mx/lib/./proc/32MX795F512L/processor.o
                                                  build/mega/production/startup.o
C2FIFOUA6SET                                      /Applications/microchip/mplabc32/v1.11a/bin/../lib/gcc/pic32mx/3.4.4/../../../../pic32mx/lib/./proc/32MX795F512L/processor.o
                                                  build/mega/production/startup.o
C2FIFOUA7                                         /Applications/microchip/mplabc32/v1.11a/bin/../lib/gcc/pic32mx/3.4.4/../../../../pic32mx/lib/./proc/32MX795F512L/processor.o
                                                  build/mega/production/startup.o
C2FIFOUA7CLR                                      /Applications/microchip/mplabc32/v1.11a/bin/../lib/gcc/pic32mx/3.4.4/../../../../pic32mx/lib/./proc/32MX795F512L/processor.o
                                                  build/mega/production/startup.o
C2FIFOUA7INV                                      /Applications/microchip/mplabc32/v1.11a/bin/../lib/gcc/pic32mx/3.4.4/../../../../pic32mx/lib/./proc/32MX795F512L/processor.o
                                                  build/mega/production/startup.o
C2FIFOUA7SET                                      /Applications/microchip/mplabc32/v1.11a/bin/../lib/gcc/pic32mx/3.4.4/../../../../pic32mx/lib/./proc/32MX795F512L/processor.o
                                                  build/mega/production/startup.o
C2FIFOUA8                                         /Applications/microchip/mplabc32/v1.11a/bin/../lib/gcc/pic32mx/3.4.4/../../../../pic32mx/lib/./proc/32MX795F512L/processor.o
                                                  build/mega/production/startup.o
C2FIFOUA8CLR                                      /Applications/microchip/mplabc32/v1.11a/bin/../lib/gcc/pic32mx/3.4.4/../../../../pic32mx/lib/./proc/32MX795F512L/processor.o
                                                  build/mega/production/startup.o
C2FIFOUA8INV                                      /Applications/microchip/mplabc32/v1.11a/bin/../lib/gcc/pic32mx/3.4.4/../../../../pic32mx/lib/./proc/32MX795F512L/processor.o
                                                  build/mega/production/startup.o
C2FIFOUA8SET                                      /Applications/microchip/mplabc32/v1.11a/bin/../lib/gcc/pic32mx/3.4.4/../../../../pic32mx/lib/./proc/32MX795F512L/processor.o
                                                  build/mega/production/startup.o
C2FIFOUA9                                         /Applications/microchip/mplabc32/v1.11a/bin/../lib/gcc/pic32mx/3.4.4/../../../../pic32mx/lib/./proc/32MX795F512L/processor.o
                                                  build/mega/production/startup.o
C2FIFOUA9CLR                                      /Applications/microchip/mplabc32/v1.11a/bin/../lib/gcc/pic32mx/3.4.4/../../../../pic32mx/lib/./proc/32MX795F512L/processor.o
                                                  build/mega/production/startup.o
C2FIFOUA9INV                                      /Applications/microchip/mplabc32/v1.11a/bin/../lib/gcc/pic32mx/3.4.4/../../../../pic32mx/lib/./proc/32MX795F512L/processor.o
                                                  build/mega/production/startup.o
C2FIFOUA9SET                                      /Applications/microchip/mplabc32/v1.11a/bin/../lib/gcc/pic32mx/3.4.4/../../../../pic32mx/lib/./proc/32MX795F512L/processor.o
                                                  build/mega/production/startup.o
C2FLTCON0                                         /Applications/microchip/mplabc32/v1.11a/bin/../lib/gcc/pic32mx/3.4.4/../../../../pic32mx/lib/./proc/32MX795F512L/processor.o
                                                  build/mega/production/startup.o
C2FLTCON0CLR                                      /Applications/microchip/mplabc32/v1.11a/bin/../lib/gcc/pic32mx/3.4.4/../../../../pic32mx/lib/./proc/32MX795F512L/processor.o
                                                  build/mega/production/startup.o
C2FLTCON0INV                                      /Applications/microchip/mplabc32/v1.11a/bin/../lib/gcc/pic32mx/3.4.4/../../../../pic32mx/lib/./proc/32MX795F512L/processor.o
                                                  build/mega/production/startup.o
C2FLTCON0SET                                      /Applications/microchip/mplabc32/v1.11a/bin/../lib/gcc/pic32mx/3.4.4/../../../../pic32mx/lib/./proc/32MX795F512L/processor.o
                                                  build/mega/production/startup.o
C2FLTCON1                                         /Applications/microchip/mplabc32/v1.11a/bin/../lib/gcc/pic32mx/3.4.4/../../../../pic32mx/lib/./proc/32MX795F512L/processor.o
                                                  build/mega/production/startup.o
C2FLTCON1CLR                                      /Applications/microchip/mplabc32/v1.11a/bin/../lib/gcc/pic32mx/3.4.4/../../../../pic32mx/lib/./proc/32MX795F512L/processor.o
                                                  build/mega/production/startup.o
C2FLTCON1INV                                      /Applications/microchip/mplabc32/v1.11a/bin/../lib/gcc/pic32mx/3.4.4/../../../../pic32mx/lib/./proc/32MX795F512L/processor.o
                                                  build/mega/production/startup.o
C2FLTCON1SET                                      /Applications/microchip/mplabc32/v1.11a/bin/../lib/gcc/pic32mx/3.4.4/../../../../pic32mx/lib/./proc/32MX795F512L/processor.o
                                                  build/mega/production/startup.o
C2FLTCON2                                         /Applications/microchip/mplabc32/v1.11a/bin/../lib/gcc/pic32mx/3.4.4/../../../../pic32mx/lib/./proc/32MX795F512L/processor.o
                                                  build/mega/production/startup.o
C2FLTCON2CLR                                      /Applications/microchip/mplabc32/v1.11a/bin/../lib/gcc/pic32mx/3.4.4/../../../../pic32mx/lib/./proc/32MX795F512L/processor.o
                                                  build/mega/production/startup.o
C2FLTCON2INV                                      /Applications/microchip/mplabc32/v1.11a/bin/../lib/gcc/pic32mx/3.4.4/../../../../pic32mx/lib/./proc/32MX795F512L/processor.o
                                                  build/mega/production/startup.o
C2FLTCON2SET                                      /Applications/microchip/mplabc32/v1.11a/bin/../lib/gcc/pic32mx/3.4.4/../../../../pic32mx/lib/./proc/32MX795F512L/processor.o
                                                  build/mega/production/startup.o
C2FLTCON3                                         /Applications/microchip/mplabc32/v1.11a/bin/../lib/gcc/pic32mx/3.4.4/../../../../pic32mx/lib/./proc/32MX795F512L/processor.o
                                                  build/mega/production/startup.o
C2FLTCON3CLR                                      /Applications/microchip/mplabc32/v1.11a/bin/../lib/gcc/pic32mx/3.4.4/../../../../pic32mx/lib/./proc/32MX795F512L/processor.o
                                                  build/mega/production/startup.o
C2FLTCON3INV                                      /Applications/microchip/mplabc32/v1.11a/bin/../lib/gcc/pic32mx/3.4.4/../../../../pic32mx/lib/./proc/32MX795F512L/processor.o
                                                  build/mega/production/startup.o
C2FLTCON3SET                                      /Applications/microchip/mplabc32/v1.11a/bin/../lib/gcc/pic32mx/3.4.4/../../../../pic32mx/lib/./proc/32MX795F512L/processor.o
                                                  build/mega/production/startup.o
C2FLTCON4                                         /Applications/microchip/mplabc32/v1.11a/bin/../lib/gcc/pic32mx/3.4.4/../../../../pic32mx/lib/./proc/32MX795F512L/processor.o
                                                  build/mega/production/startup.o
C2FLTCON4CLR                                      /Applications/microchip/mplabc32/v1.11a/bin/../lib/gcc/pic32mx/3.4.4/../../../../pic32mx/lib/./proc/32MX795F512L/processor.o
                                                  build/mega/production/startup.o
C2FLTCON4INV                                      /Applications/microchip/mplabc32/v1.11a/bin/../lib/gcc/pic32mx/3.4.4/../../../../pic32mx/lib/./proc/32MX795F512L/processor.o
                                                  build/mega/production/startup.o
C2FLTCON4SET                                      /Applications/microchip/mplabc32/v1.11a/bin/../lib/gcc/pic32mx/3.4.4/../../../../pic32mx/lib/./proc/32MX795F512L/processor.o
                                                  build/mega/production/startup.o
C2FLTCON5                                         /Applications/microchip/mplabc32/v1.11a/bin/../lib/gcc/pic32mx/3.4.4/../../../../pic32mx/lib/./proc/32MX795F512L/processor.o
                                                  build/mega/production/startup.o
C2FLTCON5CLR                                      /Applications/microchip/mplabc32/v1.11a/bin/../lib/gcc/pic32mx/3.4.4/../../../../pic32mx/lib/./proc/32MX795F512L/processor.o
                                                  build/mega/production/startup.o
C2FLTCON5INV                                      /Applications/microchip/mplabc32/v1.11a/bin/../lib/gcc/pic32mx/3.4.4/../../../../pic32mx/lib/./proc/32MX795F512L/processor.o
                                                  build/mega/production/startup.o
C2FLTCON5SET                                      /Applications/microchip/mplabc32/v1.11a/bin/../lib/gcc/pic32mx/3.4.4/../../../../pic32mx/lib/./proc/32MX795F512L/processor.o
                                                  build/mega/production/startup.o
C2FLTCON6                                         /Applications/microchip/mplabc32/v1.11a/bin/../lib/gcc/pic32mx/3.4.4/../../../../pic32mx/lib/./proc/32MX795F512L/processor.o
                                                  build/mega/production/startup.o
C2FLTCON6CLR                                      /Applications/microchip/mplabc32/v1.11a/bin/../lib/gcc/pic32mx/3.4.4/../../../../pic32mx/lib/./proc/32MX795F512L/processor.o
                                                  build/mega/production/startup.o
C2FLTCON6INV                                      /Applications/microchip/mplabc32/v1.11a/bin/../lib/gcc/pic32mx/3.4.4/../../../../pic32mx/lib/./proc/32MX795F512L/processor.o
                                                  build/mega/production/startup.o
C2FLTCON6SET                                      /Applications/microchip/mplabc32/v1.11a/bin/../lib/gcc/pic32mx/3.4.4/../../../../pic32mx/lib/./proc/32MX795F512L/processor.o
                                                  build/mega/production/startup.o
C2FLTCON7                                         /Applications/microchip/mplabc32/v1.11a/bin/../lib/gcc/pic32mx/3.4.4/../../../../pic32mx/lib/./proc/32MX795F512L/processor.o
                                                  build/mega/production/startup.o
C2FLTCON7CLR                                      /Applications/microchip/mplabc32/v1.11a/bin/../lib/gcc/pic32mx/3.4.4/../../../../pic32mx/lib/./proc/32MX795F512L/processor.o
                                                  build/mega/production/startup.o
C2FLTCON7INV                                      /Applications/microchip/mplabc32/v1.11a/bin/../lib/gcc/pic32mx/3.4.4/../../../../pic32mx/lib/./proc/32MX795F512L/processor.o
                                                  build/mega/production/startup.o
C2FLTCON7SET                                      /Applications/microchip/mplabc32/v1.11a/bin/../lib/gcc/pic32mx/3.4.4/../../../../pic32mx/lib/./proc/32MX795F512L/processor.o
                                                  build/mega/production/startup.o
C2FSTAT                                           /Applications/microchip/mplabc32/v1.11a/bin/../lib/gcc/pic32mx/3.4.4/../../../../pic32mx/lib/./proc/32MX795F512L/processor.o
                                                  build/mega/production/startup.o
C2FSTATCLR                                        /Applications/microchip/mplabc32/v1.11a/bin/../lib/gcc/pic32mx/3.4.4/../../../../pic32mx/lib/./proc/32MX795F512L/processor.o
                                                  build/mega/production/startup.o
C2FSTATINV                                        /Applications/microchip/mplabc32/v1.11a/bin/../lib/gcc/pic32mx/3.4.4/../../../../pic32mx/lib/./proc/32MX795F512L/processor.o
                                                  build/mega/production/startup.o
C2FSTATSET                                        /Applications/microchip/mplabc32/v1.11a/bin/../lib/gcc/pic32mx/3.4.4/../../../../pic32mx/lib/./proc/32MX795F512L/processor.o
                                                  build/mega/production/startup.o
C2INT                                             /Applications/microchip/mplabc32/v1.11a/bin/../lib/gcc/pic32mx/3.4.4/../../../../pic32mx/lib/./proc/32MX795F512L/processor.o
                                                  build/mega/production/startup.o
C2INTCLR                                          /Applications/microchip/mplabc32/v1.11a/bin/../lib/gcc/pic32mx/3.4.4/../../../../pic32mx/lib/./proc/32MX795F512L/processor.o
                                                  build/mega/production/startup.o
C2INTINV                                          /Applications/microchip/mplabc32/v1.11a/bin/../lib/gcc/pic32mx/3.4.4/../../../../pic32mx/lib/./proc/32MX795F512L/processor.o
                                                  build/mega/production/startup.o
C2INTSET                                          /Applications/microchip/mplabc32/v1.11a/bin/../lib/gcc/pic32mx/3.4.4/../../../../pic32mx/lib/./proc/32MX795F512L/processor.o
                                                  build/mega/production/startup.o
C2RXF0                                            /Applications/microchip/mplabc32/v1.11a/bin/../lib/gcc/pic32mx/3.4.4/../../../../pic32mx/lib/./proc/32MX795F512L/processor.o
                                                  build/mega/production/startup.o
C2RXF0CLR                                         /Applications/microchip/mplabc32/v1.11a/bin/../lib/gcc/pic32mx/3.4.4/../../../../pic32mx/lib/./proc/32MX795F512L/processor.o
                                                  build/mega/production/startup.o
C2RXF0INV                                         /Applications/microchip/mplabc32/v1.11a/bin/../lib/gcc/pic32mx/3.4.4/../../../../pic32mx/lib/./proc/32MX795F512L/processor.o
                                                  build/mega/production/startup.o
C2RXF0SET                                         /Applications/microchip/mplabc32/v1.11a/bin/../lib/gcc/pic32mx/3.4.4/../../../../pic32mx/lib/./proc/32MX795F512L/processor.o
                                                  build/mega/production/startup.o
C2RXF1                                            /Applications/microchip/mplabc32/v1.11a/bin/../lib/gcc/pic32mx/3.4.4/../../../../pic32mx/lib/./proc/32MX795F512L/processor.o
                                                  build/mega/production/startup.o
C2RXF10                                           /Applications/microchip/mplabc32/v1.11a/bin/../lib/gcc/pic32mx/3.4.4/../../../../pic32mx/lib/./proc/32MX795F512L/processor.o
                                                  build/mega/production/startup.o
C2RXF10CLR                                        /Applications/microchip/mplabc32/v1.11a/bin/../lib/gcc/pic32mx/3.4.4/../../../../pic32mx/lib/./proc/32MX795F512L/processor.o
                                                  build/mega/production/startup.o
C2RXF10INV                                        /Applications/microchip/mplabc32/v1.11a/bin/../lib/gcc/pic32mx/3.4.4/../../../../pic32mx/lib/./proc/32MX795F512L/processor.o
                                                  build/mega/production/startup.o
C2RXF10SET                                        /Applications/microchip/mplabc32/v1.11a/bin/../lib/gcc/pic32mx/3.4.4/../../../../pic32mx/lib/./proc/32MX795F512L/processor.o
                                                  build/mega/production/startup.o
C2RXF11                                           /Applications/microchip/mplabc32/v1.11a/bin/../lib/gcc/pic32mx/3.4.4/../../../../pic32mx/lib/./proc/32MX795F512L/processor.o
                                                  build/mega/production/startup.o
C2RXF11CLR                                        /Applications/microchip/mplabc32/v1.11a/bin/../lib/gcc/pic32mx/3.4.4/../../../../pic32mx/lib/./proc/32MX795F512L/processor.o
                                                  build/mega/production/startup.o
C2RXF11INV                                        /Applications/microchip/mplabc32/v1.11a/bin/../lib/gcc/pic32mx/3.4.4/../../../../pic32mx/lib/./proc/32MX795F512L/processor.o
                                                  build/mega/production/startup.o
C2RXF11SET                                        /Applications/microchip/mplabc32/v1.11a/bin/../lib/gcc/pic32mx/3.4.4/../../../../pic32mx/lib/./proc/32MX795F512L/processor.o
                                                  build/mega/production/startup.o
C2RXF12                                           /Applications/microchip/mplabc32/v1.11a/bin/../lib/gcc/pic32mx/3.4.4/../../../../pic32mx/lib/./proc/32MX795F512L/processor.o
                                                  build/mega/production/startup.o
C2RXF12CLR                                        /Applications/microchip/mplabc32/v1.11a/bin/../lib/gcc/pic32mx/3.4.4/../../../../pic32mx/lib/./proc/32MX795F512L/processor.o
                                                  build/mega/production/startup.o
C2RXF12INV                                        /Applications/microchip/mplabc32/v1.11a/bin/../lib/gcc/pic32mx/3.4.4/../../../../pic32mx/lib/./proc/32MX795F512L/processor.o
                                                  build/mega/production/startup.o
C2RXF12SET                                        /Applications/microchip/mplabc32/v1.11a/bin/../lib/gcc/pic32mx/3.4.4/../../../../pic32mx/lib/./proc/32MX795F512L/processor.o
                                                  build/mega/production/startup.o
C2RXF13                                           /Applications/microchip/mplabc32/v1.11a/bin/../lib/gcc/pic32mx/3.4.4/../../../../pic32mx/lib/./proc/32MX795F512L/processor.o
                                                  build/mega/production/startup.o
C2RXF13CLR                                        /Applications/microchip/mplabc32/v1.11a/bin/../lib/gcc/pic32mx/3.4.4/../../../../pic32mx/lib/./proc/32MX795F512L/processor.o
                                                  build/mega/production/startup.o
C2RXF13INV                                        /Applications/microchip/mplabc32/v1.11a/bin/../lib/gcc/pic32mx/3.4.4/../../../../pic32mx/lib/./proc/32MX795F512L/processor.o
                                                  build/mega/production/startup.o
C2RXF13SET                                        /Applications/microchip/mplabc32/v1.11a/bin/../lib/gcc/pic32mx/3.4.4/../../../../pic32mx/lib/./proc/32MX795F512L/processor.o
                                                  build/mega/production/startup.o
C2RXF14                                           /Applications/microchip/mplabc32/v1.11a/bin/../lib/gcc/pic32mx/3.4.4/../../../../pic32mx/lib/./proc/32MX795F512L/processor.o
                                                  build/mega/production/startup.o
C2RXF14CLR                                        /Applications/microchip/mplabc32/v1.11a/bin/../lib/gcc/pic32mx/3.4.4/../../../../pic32mx/lib/./proc/32MX795F512L/processor.o
                                                  build/mega/production/startup.o
C2RXF14INV                                        /Applications/microchip/mplabc32/v1.11a/bin/../lib/gcc/pic32mx/3.4.4/../../../../pic32mx/lib/./proc/32MX795F512L/processor.o
                                                  build/mega/production/startup.o
C2RXF14SET                                        /Applications/microchip/mplabc32/v1.11a/bin/../lib/gcc/pic32mx/3.4.4/../../../../pic32mx/lib/./proc/32MX795F512L/processor.o
                                                  build/mega/production/startup.o
C2RXF15                                           /Applications/microchip/mplabc32/v1.11a/bin/../lib/gcc/pic32mx/3.4.4/../../../../pic32mx/lib/./proc/32MX795F512L/processor.o
                                                  build/mega/production/startup.o
C2RXF15CLR                                        /Applications/microchip/mplabc32/v1.11a/bin/../lib/gcc/pic32mx/3.4.4/../../../../pic32mx/lib/./proc/32MX795F512L/processor.o
                                                  build/mega/production/startup.o
C2RXF15INV                                        /Applications/microchip/mplabc32/v1.11a/bin/../lib/gcc/pic32mx/3.4.4/../../../../pic32mx/lib/./proc/32MX795F512L/processor.o
                                                  build/mega/production/startup.o
C2RXF15SET                                        /Applications/microchip/mplabc32/v1.11a/bin/../lib/gcc/pic32mx/3.4.4/../../../../pic32mx/lib/./proc/32MX795F512L/processor.o
                                                  build/mega/production/startup.o
C2RXF16                                           /Applications/microchip/mplabc32/v1.11a/bin/../lib/gcc/pic32mx/3.4.4/../../../../pic32mx/lib/./proc/32MX795F512L/processor.o
                                                  build/mega/production/startup.o
C2RXF16CLR                                        /Applications/microchip/mplabc32/v1.11a/bin/../lib/gcc/pic32mx/3.4.4/../../../../pic32mx/lib/./proc/32MX795F512L/processor.o
                                                  build/mega/production/startup.o
C2RXF16INV                                        /Applications/microchip/mplabc32/v1.11a/bin/../lib/gcc/pic32mx/3.4.4/../../../../pic32mx/lib/./proc/32MX795F512L/processor.o
                                                  build/mega/production/startup.o
C2RXF16SET                                        /Applications/microchip/mplabc32/v1.11a/bin/../lib/gcc/pic32mx/3.4.4/../../../../pic32mx/lib/./proc/32MX795F512L/processor.o
                                                  build/mega/production/startup.o
C2RXF17                                           /Applications/microchip/mplabc32/v1.11a/bin/../lib/gcc/pic32mx/3.4.4/../../../../pic32mx/lib/./proc/32MX795F512L/processor.o
                                                  build/mega/production/startup.o
C2RXF17CLR                                        /Applications/microchip/mplabc32/v1.11a/bin/../lib/gcc/pic32mx/3.4.4/../../../../pic32mx/lib/./proc/32MX795F512L/processor.o
                                                  build/mega/production/startup.o
C2RXF17INV                                        /Applications/microchip/mplabc32/v1.11a/bin/../lib/gcc/pic32mx/3.4.4/../../../../pic32mx/lib/./proc/32MX795F512L/processor.o
                                                  build/mega/production/startup.o
C2RXF17SET                                        /Applications/microchip/mplabc32/v1.11a/bin/../lib/gcc/pic32mx/3.4.4/../../../../pic32mx/lib/./proc/32MX795F512L/processor.o
                                                  build/mega/production/startup.o
C2RXF18                                           /Applications/microchip/mplabc32/v1.11a/bin/../lib/gcc/pic32mx/3.4.4/../../../../pic32mx/lib/./proc/32MX795F512L/processor.o
                                                  build/mega/production/startup.o
C2RXF18CLR                                        /Applications/microchip/mplabc32/v1.11a/bin/../lib/gcc/pic32mx/3.4.4/../../../../pic32mx/lib/./proc/32MX795F512L/processor.o
                                                  build/mega/production/startup.o
C2RXF18INV                                        /Applications/microchip/mplabc32/v1.11a/bin/../lib/gcc/pic32mx/3.4.4/../../../../pic32mx/lib/./proc/32MX795F512L/processor.o
                                                  build/mega/production/startup.o
C2RXF18SET                                        /Applications/microchip/mplabc32/v1.11a/bin/../lib/gcc/pic32mx/3.4.4/../../../../pic32mx/lib/./proc/32MX795F512L/processor.o
                                                  build/mega/production/startup.o
C2RXF19                                           /Applications/microchip/mplabc32/v1.11a/bin/../lib/gcc/pic32mx/3.4.4/../../../../pic32mx/lib/./proc/32MX795F512L/processor.o
                                                  build/mega/production/startup.o
C2RXF19CLR                                        /Applications/microchip/mplabc32/v1.11a/bin/../lib/gcc/pic32mx/3.4.4/../../../../pic32mx/lib/./proc/32MX795F512L/processor.o
                                                  build/mega/production/startup.o
C2RXF19INV                                        /Applications/microchip/mplabc32/v1.11a/bin/../lib/gcc/pic32mx/3.4.4/../../../../pic32mx/lib/./proc/32MX795F512L/processor.o
                                                  build/mega/production/startup.o
C2RXF19SET                                        /Applications/microchip/mplabc32/v1.11a/bin/../lib/gcc/pic32mx/3.4.4/../../../../pic32mx/lib/./proc/32MX795F512L/processor.o
                                                  build/mega/production/startup.o
C2RXF1CLR                                         /Applications/microchip/mplabc32/v1.11a/bin/../lib/gcc/pic32mx/3.4.4/../../../../pic32mx/lib/./proc/32MX795F512L/processor.o
                                                  build/mega/production/startup.o
C2RXF1INV                                         /Applications/microchip/mplabc32/v1.11a/bin/../lib/gcc/pic32mx/3.4.4/../../../../pic32mx/lib/./proc/32MX795F512L/processor.o
                                                  build/mega/production/startup.o
C2RXF1SET                                         /Applications/microchip/mplabc32/v1.11a/bin/../lib/gcc/pic32mx/3.4.4/../../../../pic32mx/lib/./proc/32MX795F512L/processor.o
                                                  build/mega/production/startup.o
C2RXF2                                            /Applications/microchip/mplabc32/v1.11a/bin/../lib/gcc/pic32mx/3.4.4/../../../../pic32mx/lib/./proc/32MX795F512L/processor.o
                                                  build/mega/production/startup.o
C2RXF20                                           /Applications/microchip/mplabc32/v1.11a/bin/../lib/gcc/pic32mx/3.4.4/../../../../pic32mx/lib/./proc/32MX795F512L/processor.o
                                                  build/mega/production/startup.o
C2RXF20CLR                                        /Applications/microchip/mplabc32/v1.11a/bin/../lib/gcc/pic32mx/3.4.4/../../../../pic32mx/lib/./proc/32MX795F512L/processor.o
                                                  build/mega/production/startup.o
C2RXF20INV                                        /Applications/microchip/mplabc32/v1.11a/bin/../lib/gcc/pic32mx/3.4.4/../../../../pic32mx/lib/./proc/32MX795F512L/processor.o
                                                  build/mega/production/startup.o
C2RXF20SET                                        /Applications/microchip/mplabc32/v1.11a/bin/../lib/gcc/pic32mx/3.4.4/../../../../pic32mx/lib/./proc/32MX795F512L/processor.o
                                                  build/mega/production/startup.o
C2RXF21                                           /Applications/microchip/mplabc32/v1.11a/bin/../lib/gcc/pic32mx/3.4.4/../../../../pic32mx/lib/./proc/32MX795F512L/processor.o
                                                  build/mega/production/startup.o
C2RXF21CLR                                        /Applications/microchip/mplabc32/v1.11a/bin/../lib/gcc/pic32mx/3.4.4/../../../../pic32mx/lib/./proc/32MX795F512L/processor.o
                                                  build/mega/production/startup.o
C2RXF21INV                                        /Applications/microchip/mplabc32/v1.11a/bin/../lib/gcc/pic32mx/3.4.4/../../../../pic32mx/lib/./proc/32MX795F512L/processor.o
                                                  build/mega/production/startup.o
C2RXF21SET                                        /Applications/microchip/mplabc32/v1.11a/bin/../lib/gcc/pic32mx/3.4.4/../../../../pic32mx/lib/./proc/32MX795F512L/processor.o
                                                  build/mega/production/startup.o
C2RXF22                                           /Applications/microchip/mplabc32/v1.11a/bin/../lib/gcc/pic32mx/3.4.4/../../../../pic32mx/lib/./proc/32MX795F512L/processor.o
                                                  build/mega/production/startup.o
C2RXF22CLR                                        /Applications/microchip/mplabc32/v1.11a/bin/../lib/gcc/pic32mx/3.4.4/../../../../pic32mx/lib/./proc/32MX795F512L/processor.o
                                                  build/mega/production/startup.o
C2RXF22INV                                        /Applications/microchip/mplabc32/v1.11a/bin/../lib/gcc/pic32mx/3.4.4/../../../../pic32mx/lib/./proc/32MX795F512L/processor.o
                                                  build/mega/production/startup.o
C2RXF22SET                                        /Applications/microchip/mplabc32/v1.11a/bin/../lib/gcc/pic32mx/3.4.4/../../../../pic32mx/lib/./proc/32MX795F512L/processor.o
                                                  build/mega/production/startup.o
C2RXF23                                           /Applications/microchip/mplabc32/v1.11a/bin/../lib/gcc/pic32mx/3.4.4/../../../../pic32mx/lib/./proc/32MX795F512L/processor.o
                                                  build/mega/production/startup.o
C2RXF23CLR                                        /Applications/microchip/mplabc32/v1.11a/bin/../lib/gcc/pic32mx/3.4.4/../../../../pic32mx/lib/./proc/32MX795F512L/processor.o
                                                  build/mega/production/startup.o
C2RXF23INV                                        /Applications/microchip/mplabc32/v1.11a/bin/../lib/gcc/pic32mx/3.4.4/../../../../pic32mx/lib/./proc/32MX795F512L/processor.o
                                                  build/mega/production/startup.o
C2RXF23SET                                        /Applications/microchip/mplabc32/v1.11a/bin/../lib/gcc/pic32mx/3.4.4/../../../../pic32mx/lib/./proc/32MX795F512L/processor.o
                                                  build/mega/production/startup.o
C2RXF24                                           /Applications/microchip/mplabc32/v1.11a/bin/../lib/gcc/pic32mx/3.4.4/../../../../pic32mx/lib/./proc/32MX795F512L/processor.o
                                                  build/mega/production/startup.o
C2RXF24CLR                                        /Applications/microchip/mplabc32/v1.11a/bin/../lib/gcc/pic32mx/3.4.4/../../../../pic32mx/lib/./proc/32MX795F512L/processor.o
                                                  build/mega/production/startup.o
C2RXF24INV                                        /Applications/microchip/mplabc32/v1.11a/bin/../lib/gcc/pic32mx/3.4.4/../../../../pic32mx/lib/./proc/32MX795F512L/processor.o
                                                  build/mega/production/startup.o
C2RXF24SET                                        /Applications/microchip/mplabc32/v1.11a/bin/../lib/gcc/pic32mx/3.4.4/../../../../pic32mx/lib/./proc/32MX795F512L/processor.o
                                                  build/mega/production/startup.o
C2RXF25                                           /Applications/microchip/mplabc32/v1.11a/bin/../lib/gcc/pic32mx/3.4.4/../../../../pic32mx/lib/./proc/32MX795F512L/processor.o
                                                  build/mega/production/startup.o
C2RXF25CLR                                        /Applications/microchip/mplabc32/v1.11a/bin/../lib/gcc/pic32mx/3.4.4/../../../../pic32mx/lib/./proc/32MX795F512L/processor.o
                                                  build/mega/production/startup.o
C2RXF25INV                                        /Applications/microchip/mplabc32/v1.11a/bin/../lib/gcc/pic32mx/3.4.4/../../../../pic32mx/lib/./proc/32MX795F512L/processor.o
                                                  build/mega/production/startup.o
C2RXF25SET                                        /Applications/microchip/mplabc32/v1.11a/bin/../lib/gcc/pic32mx/3.4.4/../../../../pic32mx/lib/./proc/32MX795F512L/processor.o
                                                  build/mega/production/startup.o
C2RXF26                                           /Applications/microchip/mplabc32/v1.11a/bin/../lib/gcc/pic32mx/3.4.4/../../../../pic32mx/lib/./proc/32MX795F512L/processor.o
                                                  build/mega/production/startup.o
C2RXF26CLR                                        /Applications/microchip/mplabc32/v1.11a/bin/../lib/gcc/pic32mx/3.4.4/../../../../pic32mx/lib/./proc/32MX795F512L/processor.o
                                                  build/mega/production/startup.o
C2RXF26INV                                        /Applications/microchip/mplabc32/v1.11a/bin/../lib/gcc/pic32mx/3.4.4/../../../../pic32mx/lib/./proc/32MX795F512L/processor.o
                                                  build/mega/production/startup.o
C2RXF26SET                                        /Applications/microchip/mplabc32/v1.11a/bin/../lib/gcc/pic32mx/3.4.4/../../../../pic32mx/lib/./proc/32MX795F512L/processor.o
                                                  build/mega/production/startup.o
C2RXF27                                           /Applications/microchip/mplabc32/v1.11a/bin/../lib/gcc/pic32mx/3.4.4/../../../../pic32mx/lib/./proc/32MX795F512L/processor.o
                                                  build/mega/production/startup.o
C2RXF27CLR                                        /Applications/microchip/mplabc32/v1.11a/bin/../lib/gcc/pic32mx/3.4.4/../../../../pic32mx/lib/./proc/32MX795F512L/processor.o
                                                  build/mega/production/startup.o
C2RXF27INV                                        /Applications/microchip/mplabc32/v1.11a/bin/../lib/gcc/pic32mx/3.4.4/../../../../pic32mx/lib/./proc/32MX795F512L/processor.o
                                                  build/mega/production/startup.o
C2RXF27SET                                        /Applications/microchip/mplabc32/v1.11a/bin/../lib/gcc/pic32mx/3.4.4/../../../../pic32mx/lib/./proc/32MX795F512L/processor.o
                                                  build/mega/production/startup.o
C2RXF28                                           /Applications/microchip/mplabc32/v1.11a/bin/../lib/gcc/pic32mx/3.4.4/../../../../pic32mx/lib/./proc/32MX795F512L/processor.o
                                                  build/mega/production/startup.o
C2RXF28CLR                                        /Applications/microchip/mplabc32/v1.11a/bin/../lib/gcc/pic32mx/3.4.4/../../../../pic32mx/lib/./proc/32MX795F512L/processor.o
                                                  build/mega/production/startup.o
C2RXF28INV                                        /Applications/microchip/mplabc32/v1.11a/bin/../lib/gcc/pic32mx/3.4.4/../../../../pic32mx/lib/./proc/32MX795F512L/processor.o
                                                  build/mega/production/startup.o
C2RXF28SET                                        /Applications/microchip/mplabc32/v1.11a/bin/../lib/gcc/pic32mx/3.4.4/../../../../pic32mx/lib/./proc/32MX795F512L/processor.o
                                                  build/mega/production/startup.o
C2RXF29                                           /Applications/microchip/mplabc32/v1.11a/bin/../lib/gcc/pic32mx/3.4.4/../../../../pic32mx/lib/./proc/32MX795F512L/processor.o
                                                  build/mega/production/startup.o
C2RXF29CLR                                        /Applications/microchip/mplabc32/v1.11a/bin/../lib/gcc/pic32mx/3.4.4/../../../../pic32mx/lib/./proc/32MX795F512L/processor.o
                                                  build/mega/production/startup.o
C2RXF29INV                                        /Applications/microchip/mplabc32/v1.11a/bin/../lib/gcc/pic32mx/3.4.4/../../../../pic32mx/lib/./proc/32MX795F512L/processor.o
                                                  build/mega/production/startup.o
C2RXF29SET                                        /Applications/microchip/mplabc32/v1.11a/bin/../lib/gcc/pic32mx/3.4.4/../../../../pic32mx/lib/./proc/32MX795F512L/processor.o
                                                  build/mega/production/startup.o
C2RXF2CLR                                         /Applications/microchip/mplabc32/v1.11a/bin/../lib/gcc/pic32mx/3.4.4/../../../../pic32mx/lib/./proc/32MX795F512L/processor.o
                                                  build/mega/production/startup.o
C2RXF2INV                                         /Applications/microchip/mplabc32/v1.11a/bin/../lib/gcc/pic32mx/3.4.4/../../../../pic32mx/lib/./proc/32MX795F512L/processor.o
                                                  build/mega/production/startup.o
C2RXF2SET                                         /Applications/microchip/mplabc32/v1.11a/bin/../lib/gcc/pic32mx/3.4.4/../../../../pic32mx/lib/./proc/32MX795F512L/processor.o
                                                  build/mega/production/startup.o
C2RXF3                                            /Applications/microchip/mplabc32/v1.11a/bin/../lib/gcc/pic32mx/3.4.4/../../../../pic32mx/lib/./proc/32MX795F512L/processor.o
                                                  build/mega/production/startup.o
C2RXF30                                           /Applications/microchip/mplabc32/v1.11a/bin/../lib/gcc/pic32mx/3.4.4/../../../../pic32mx/lib/./proc/32MX795F512L/processor.o
                                                  build/mega/production/startup.o
C2RXF30CLR                                        /Applications/microchip/mplabc32/v1.11a/bin/../lib/gcc/pic32mx/3.4.4/../../../../pic32mx/lib/./proc/32MX795F512L/processor.o
                                                  build/mega/production/startup.o
C2RXF30INV                                        /Applications/microchip/mplabc32/v1.11a/bin/../lib/gcc/pic32mx/3.4.4/../../../../pic32mx/lib/./proc/32MX795F512L/processor.o
                                                  build/mega/production/startup.o
C2RXF30SET                                        /Applications/microchip/mplabc32/v1.11a/bin/../lib/gcc/pic32mx/3.4.4/../../../../pic32mx/lib/./proc/32MX795F512L/processor.o
                                                  build/mega/production/startup.o
C2RXF31                                           /Applications/microchip/mplabc32/v1.11a/bin/../lib/gcc/pic32mx/3.4.4/../../../../pic32mx/lib/./proc/32MX795F512L/processor.o
                                                  build/mega/production/startup.o
C2RXF31CLR                                        /Applications/microchip/mplabc32/v1.11a/bin/../lib/gcc/pic32mx/3.4.4/../../../../pic32mx/lib/./proc/32MX795F512L/processor.o
                                                  build/mega/production/startup.o
C2RXF31INV                                        /Applications/microchip/mplabc32/v1.11a/bin/../lib/gcc/pic32mx/3.4.4/../../../../pic32mx/lib/./proc/32MX795F512L/processor.o
                                                  build/mega/production/startup.o
C2RXF31SET                                        /Applications/microchip/mplabc32/v1.11a/bin/../lib/gcc/pic32mx/3.4.4/../../../../pic32mx/lib/./proc/32MX795F512L/processor.o
                                                  build/mega/production/startup.o
C2RXF3CLR                                         /Applications/microchip/mplabc32/v1.11a/bin/../lib/gcc/pic32mx/3.4.4/../../../../pic32mx/lib/./proc/32MX795F512L/processor.o
                                                  build/mega/production/startup.o
C2RXF3INV                                         /Applications/microchip/mplabc32/v1.11a/bin/../lib/gcc/pic32mx/3.4.4/../../../../pic32mx/lib/./proc/32MX795F512L/processor.o
                                                  build/mega/production/startup.o
C2RXF3SET                                         /Applications/microchip/mplabc32/v1.11a/bin/../lib/gcc/pic32mx/3.4.4/../../../../pic32mx/lib/./proc/32MX795F512L/processor.o
                                                  build/mega/production/startup.o
C2RXF4                                            /Applications/microchip/mplabc32/v1.11a/bin/../lib/gcc/pic32mx/3.4.4/../../../../pic32mx/lib/./proc/32MX795F512L/processor.o
                                                  build/mega/production/startup.o
C2RXF4CLR                                         /Applications/microchip/mplabc32/v1.11a/bin/../lib/gcc/pic32mx/3.4.4/../../../../pic32mx/lib/./proc/32MX795F512L/processor.o
                                                  build/mega/production/startup.o
C2RXF4INV                                         /Applications/microchip/mplabc32/v1.11a/bin/../lib/gcc/pic32mx/3.4.4/../../../../pic32mx/lib/./proc/32MX795F512L/processor.o
                                                  build/mega/production/startup.o
C2RXF4SET                                         /Applications/microchip/mplabc32/v1.11a/bin/../lib/gcc/pic32mx/3.4.4/../../../../pic32mx/lib/./proc/32MX795F512L/processor.o
                                                  build/mega/production/startup.o
C2RXF5                                            /Applications/microchip/mplabc32/v1.11a/bin/../lib/gcc/pic32mx/3.4.4/../../../../pic32mx/lib/./proc/32MX795F512L/processor.o
                                                  build/mega/production/startup.o
C2RXF5CLR                                         /Applications/microchip/mplabc32/v1.11a/bin/../lib/gcc/pic32mx/3.4.4/../../../../pic32mx/lib/./proc/32MX795F512L/processor.o
                                                  build/mega/production/startup.o
C2RXF5INV                                         /Applications/microchip/mplabc32/v1.11a/bin/../lib/gcc/pic32mx/3.4.4/../../../../pic32mx/lib/./proc/32MX795F512L/processor.o
                                                  build/mega/production/startup.o
C2RXF5SET                                         /Applications/microchip/mplabc32/v1.11a/bin/../lib/gcc/pic32mx/3.4.4/../../../../pic32mx/lib/./proc/32MX795F512L/processor.o
                                                  build/mega/production/startup.o
C2RXF6                                            /Applications/microchip/mplabc32/v1.11a/bin/../lib/gcc/pic32mx/3.4.4/../../../../pic32mx/lib/./proc/32MX795F512L/processor.o
                                                  build/mega/production/startup.o
C2RXF6CLR                                         /Applications/microchip/mplabc32/v1.11a/bin/../lib/gcc/pic32mx/3.4.4/../../../../pic32mx/lib/./proc/32MX795F512L/processor.o
                                                  build/mega/production/startup.o
C2RXF6INV                                         /Applications/microchip/mplabc32/v1.11a/bin/../lib/gcc/pic32mx/3.4.4/../../../../pic32mx/lib/./proc/32MX795F512L/processor.o
                                                  build/mega/production/startup.o
C2RXF6SET                                         /Applications/microchip/mplabc32/v1.11a/bin/../lib/gcc/pic32mx/3.4.4/../../../../pic32mx/lib/./proc/32MX795F512L/processor.o
                                                  build/mega/production/startup.o
C2RXF7                                            /Applications/microchip/mplabc32/v1.11a/bin/../lib/gcc/pic32mx/3.4.4/../../../../pic32mx/lib/./proc/32MX795F512L/processor.o
                                                  build/mega/production/startup.o
C2RXF7CLR                                         /Applications/microchip/mplabc32/v1.11a/bin/../lib/gcc/pic32mx/3.4.4/../../../../pic32mx/lib/./proc/32MX795F512L/processor.o
                                                  build/mega/production/startup.o
C2RXF7INV                                         /Applications/microchip/mplabc32/v1.11a/bin/../lib/gcc/pic32mx/3.4.4/../../../../pic32mx/lib/./proc/32MX795F512L/processor.o
                                                  build/mega/production/startup.o
C2RXF7SET                                         /Applications/microchip/mplabc32/v1.11a/bin/../lib/gcc/pic32mx/3.4.4/../../../../pic32mx/lib/./proc/32MX795F512L/processor.o
                                                  build/mega/production/startup.o
C2RXF8                                            /Applications/microchip/mplabc32/v1.11a/bin/../lib/gcc/pic32mx/3.4.4/../../../../pic32mx/lib/./proc/32MX795F512L/processor.o
                                                  build/mega/production/startup.o
C2RXF8CLR                                         /Applications/microchip/mplabc32/v1.11a/bin/../lib/gcc/pic32mx/3.4.4/../../../../pic32mx/lib/./proc/32MX795F512L/processor.o
                                                  build/mega/production/startup.o
C2RXF8INV                                         /Applications/microchip/mplabc32/v1.11a/bin/../lib/gcc/pic32mx/3.4.4/../../../../pic32mx/lib/./proc/32MX795F512L/processor.o
                                                  build/mega/production/startup.o
C2RXF8SET                                         /Applications/microchip/mplabc32/v1.11a/bin/../lib/gcc/pic32mx/3.4.4/../../../../pic32mx/lib/./proc/32MX795F512L/processor.o
                                                  build/mega/production/startup.o
C2RXF9                                            /Applications/microchip/mplabc32/v1.11a/bin/../lib/gcc/pic32mx/3.4.4/../../../../pic32mx/lib/./proc/32MX795F512L/processor.o
                                                  build/mega/production/startup.o
C2RXF9CLR                                         /Applications/microchip/mplabc32/v1.11a/bin/../lib/gcc/pic32mx/3.4.4/../../../../pic32mx/lib/./proc/32MX795F512L/processor.o
                                                  build/mega/production/startup.o
C2RXF9INV                                         /Applications/microchip/mplabc32/v1.11a/bin/../lib/gcc/pic32mx/3.4.4/../../../../pic32mx/lib/./proc/32MX795F512L/processor.o
                                                  build/mega/production/startup.o
C2RXF9SET                                         /Applications/microchip/mplabc32/v1.11a/bin/../lib/gcc/pic32mx/3.4.4/../../../../pic32mx/lib/./proc/32MX795F512L/processor.o
                                                  build/mega/production/startup.o
C2RXM0                                            /Applications/microchip/mplabc32/v1.11a/bin/../lib/gcc/pic32mx/3.4.4/../../../../pic32mx/lib/./proc/32MX795F512L/processor.o
                                                  build/mega/production/startup.o
C2RXM0CLR                                         /Applications/microchip/mplabc32/v1.11a/bin/../lib/gcc/pic32mx/3.4.4/../../../../pic32mx/lib/./proc/32MX795F512L/processor.o
                                                  build/mega/production/startup.o
C2RXM0INV                                         /Applications/microchip/mplabc32/v1.11a/bin/../lib/gcc/pic32mx/3.4.4/../../../../pic32mx/lib/./proc/32MX795F512L/processor.o
                                                  build/mega/production/startup.o
C2RXM0SET                                         /Applications/microchip/mplabc32/v1.11a/bin/../lib/gcc/pic32mx/3.4.4/../../../../pic32mx/lib/./proc/32MX795F512L/processor.o
                                                  build/mega/production/startup.o
C2RXM1                                            /Applications/microchip/mplabc32/v1.11a/bin/../lib/gcc/pic32mx/3.4.4/../../../../pic32mx/lib/./proc/32MX795F512L/processor.o
                                                  build/mega/production/startup.o
C2RXM1CLR                                         /Applications/microchip/mplabc32/v1.11a/bin/../lib/gcc/pic32mx/3.4.4/../../../../pic32mx/lib/./proc/32MX795F512L/processor.o
                                                  build/mega/production/startup.o
C2RXM1INV                                         /Applications/microchip/mplabc32/v1.11a/bin/../lib/gcc/pic32mx/3.4.4/../../../../pic32mx/lib/./proc/32MX795F512L/processor.o
                                                  build/mega/production/startup.o
C2RXM1SET                                         /Applications/microchip/mplabc32/v1.11a/bin/../lib/gcc/pic32mx/3.4.4/../../../../pic32mx/lib/./proc/32MX795F512L/processor.o
                                                  build/mega/production/startup.o
C2RXM2                                            /Applications/microchip/mplabc32/v1.11a/bin/../lib/gcc/pic32mx/3.4.4/../../../../pic32mx/lib/./proc/32MX795F512L/processor.o
                                                  build/mega/production/startup.o
C2RXM2CLR                                         /Applications/microchip/mplabc32/v1.11a/bin/../lib/gcc/pic32mx/3.4.4/../../../../pic32mx/lib/./proc/32MX795F512L/processor.o
                                                  build/mega/production/startup.o
C2RXM2INV                                         /Applications/microchip/mplabc32/v1.11a/bin/../lib/gcc/pic32mx/3.4.4/../../../../pic32mx/lib/./proc/32MX795F512L/processor.o
                                                  build/mega/production/startup.o
C2RXM2SET                                         /Applications/microchip/mplabc32/v1.11a/bin/../lib/gcc/pic32mx/3.4.4/../../../../pic32mx/lib/./proc/32MX795F512L/processor.o
                                                  build/mega/production/startup.o
C2RXM3                                            /Applications/microchip/mplabc32/v1.11a/bin/../lib/gcc/pic32mx/3.4.4/../../../../pic32mx/lib/./proc/32MX795F512L/processor.o
                                                  build/mega/production/startup.o
C2RXM3CLR                                         /Applications/microchip/mplabc32/v1.11a/bin/../lib/gcc/pic32mx/3.4.4/../../../../pic32mx/lib/./proc/32MX795F512L/processor.o
                                                  build/mega/production/startup.o
C2RXM3INV                                         /Applications/microchip/mplabc32/v1.11a/bin/../lib/gcc/pic32mx/3.4.4/../../../../pic32mx/lib/./proc/32MX795F512L/processor.o
                                                  build/mega/production/startup.o
C2RXM3SET                                         /Applications/microchip/mplabc32/v1.11a/bin/../lib/gcc/pic32mx/3.4.4/../../../../pic32mx/lib/./proc/32MX795F512L/processor.o
                                                  build/mega/production/startup.o
C2RXOVF                                           /Applications/microchip/mplabc32/v1.11a/bin/../lib/gcc/pic32mx/3.4.4/../../../../pic32mx/lib/./proc/32MX795F512L/processor.o
                                                  build/mega/production/startup.o
C2RXOVFCLR                                        /Applications/microchip/mplabc32/v1.11a/bin/../lib/gcc/pic32mx/3.4.4/../../../../pic32mx/lib/./proc/32MX795F512L/processor.o
                                                  build/mega/production/startup.o
C2RXOVFINV                                        /Applications/microchip/mplabc32/v1.11a/bin/../lib/gcc/pic32mx/3.4.4/../../../../pic32mx/lib/./proc/32MX795F512L/processor.o
                                                  build/mega/production/startup.o
C2RXOVFSET                                        /Applications/microchip/mplabc32/v1.11a/bin/../lib/gcc/pic32mx/3.4.4/../../../../pic32mx/lib/./proc/32MX795F512L/processor.o
                                                  build/mega/production/startup.o
C2TMR                                             /Applications/microchip/mplabc32/v1.11a/bin/../lib/gcc/pic32mx/3.4.4/../../../../pic32mx/lib/./proc/32MX795F512L/processor.o
                                                  build/mega/production/startup.o
C2TMRCLR                                          /Applications/microchip/mplabc32/v1.11a/bin/../lib/gcc/pic32mx/3.4.4/../../../../pic32mx/lib/./proc/32MX795F512L/processor.o
                                                  build/mega/production/startup.o
C2TMRINV                                          /Applications/microchip/mplabc32/v1.11a/bin/../lib/gcc/pic32mx/3.4.4/../../../../pic32mx/lib/./proc/32MX795F512L/processor.o
                                                  build/mega/production/startup.o
C2TMRSET                                          /Applications/microchip/mplabc32/v1.11a/bin/../lib/gcc/pic32mx/3.4.4/../../../../pic32mx/lib/./proc/32MX795F512L/processor.o
                                                  build/mega/production/startup.o
C2TREC                                            /Applications/microchip/mplabc32/v1.11a/bin/../lib/gcc/pic32mx/3.4.4/../../../../pic32mx/lib/./proc/32MX795F512L/processor.o
                                                  build/mega/production/startup.o
C2TRECCLR                                         /Applications/microchip/mplabc32/v1.11a/bin/../lib/gcc/pic32mx/3.4.4/../../../../pic32mx/lib/./proc/32MX795F512L/processor.o
                                                  build/mega/production/startup.o
C2TRECINV                                         /Applications/microchip/mplabc32/v1.11a/bin/../lib/gcc/pic32mx/3.4.4/../../../../pic32mx/lib/./proc/32MX795F512L/processor.o
                                                  build/mega/production/startup.o
C2TRECSET                                         /Applications/microchip/mplabc32/v1.11a/bin/../lib/gcc/pic32mx/3.4.4/../../../../pic32mx/lib/./proc/32MX795F512L/processor.o
                                                  build/mega/production/startup.o
C2VEC                                             /Applications/microchip/mplabc32/v1.11a/bin/../lib/gcc/pic32mx/3.4.4/../../../../pic32mx/lib/./proc/32MX795F512L/processor.o
                                                  build/mega/production/startup.o
C2VECCLR                                          /Applications/microchip/mplabc32/v1.11a/bin/../lib/gcc/pic32mx/3.4.4/../../../../pic32mx/lib/./proc/32MX795F512L/processor.o
                                                  build/mega/production/startup.o
C2VECINV                                          /Applications/microchip/mplabc32/v1.11a/bin/../lib/gcc/pic32mx/3.4.4/../../../../pic32mx/lib/./proc/32MX795F512L/processor.o
                                                  build/mega/production/startup.o
C2VECSET                                          /Applications/microchip/mplabc32/v1.11a/bin/../lib/gcc/pic32mx/3.4.4/../../../../pic32mx/lib/./proc/32MX795F512L/processor.o
                                                  build/mega/production/startup.o
CHEACC                                            /Applications/microchip/mplabc32/v1.11a/bin/../lib/gcc/pic32mx/3.4.4/../../../../pic32mx/lib/./proc/32MX795F512L/processor.o
                                                  /Applications/microchip/mplabc32/v1.11a/bin/../lib/gcc/pic32mx/3.4.4/../../../../pic32mx/lib/libc.a(memcpy.o)
                                                  build/mega/production/startup.o
CHEACCCLR                                         /Applications/microchip/mplabc32/v1.11a/bin/../lib/gcc/pic32mx/3.4.4/../../../../pic32mx/lib/./proc/32MX795F512L/processor.o
                                                  /Applications/microchip/mplabc32/v1.11a/bin/../lib/gcc/pic32mx/3.4.4/../../../../pic32mx/lib/libc.a(memcpy.o)
                                                  build/mega/production/startup.o
CHEACCINV                                         /Applications/microchip/mplabc32/v1.11a/bin/../lib/gcc/pic32mx/3.4.4/../../../../pic32mx/lib/./proc/32MX795F512L/processor.o
                                                  /Applications/microchip/mplabc32/v1.11a/bin/../lib/gcc/pic32mx/3.4.4/../../../../pic32mx/lib/libc.a(memcpy.o)
                                                  build/mega/production/startup.o
CHEACCSET                                         /Applications/microchip/mplabc32/v1.11a/bin/../lib/gcc/pic32mx/3.4.4/../../../../pic32mx/lib/./proc/32MX795F512L/processor.o
                                                  /Applications/microchip/mplabc32/v1.11a/bin/../lib/gcc/pic32mx/3.4.4/../../../../pic32mx/lib/libc.a(memcpy.o)
                                                  build/mega/production/startup.o
CHECON                                            /Applications/microchip/mplabc32/v1.11a/bin/../lib/gcc/pic32mx/3.4.4/../../../../pic32mx/lib/./proc/32MX795F512L/processor.o
                                                  /Applications/microchip/mplabc32/v1.11a/bin/../lib/gcc/pic32mx/3.4.4/../../../../pic32mx/lib/libc.a(memcpy.o)
                                                  build/mega/production/pic32bootloader.o
                                                  build/mega/production/startup.o
CHECONCLR                                         /Applications/microchip/mplabc32/v1.11a/bin/../lib/gcc/pic32mx/3.4.4/../../../../pic32mx/lib/./proc/32MX795F512L/processor.o
                                                  /Applications/microchip/mplabc32/v1.11a/bin/../lib/gcc/pic32mx/3.4.4/../../../../pic32mx/lib/libc.a(memcpy.o)
                                                  build/mega/production/startup.o
CHECONINV                                         /Applications/microchip/mplabc32/v1.11a/bin/../lib/gcc/pic32mx/3.4.4/../../../../pic32mx/lib/./proc/32MX795F512L/processor.o
                                                  /Applications/microchip/mplabc32/v1.11a/bin/../lib/gcc/pic32mx/3.4.4/../../../../pic32mx/lib/libc.a(memcpy.o)
                                                  build/mega/production/startup.o
CHECONSET                                         /Applications/microchip/mplabc32/v1.11a/bin/../lib/gcc/pic32mx/3.4.4/../../../../pic32mx/lib/./proc/32MX795F512L/processor.o
                                                  /Applications/microchip/mplabc32/v1.11a/bin/../lib/gcc/pic32mx/3.4.4/../../../../pic32mx/lib/libc.a(memcpy.o)
                                                  build/mega/production/startup.o
CHEHIT                                            /Applications/microchip/mplabc32/v1.11a/bin/../lib/gcc/pic32mx/3.4.4/../../../../pic32mx/lib/./proc/32MX795F512L/processor.o
                                                  /Applications/microchip/mplabc32/v1.11a/bin/../lib/gcc/pic32mx/3.4.4/../../../../pic32mx/lib/libc.a(memcpy.o)
                                                  build/mega/production/startup.o
CHELRU                                            /Applications/microchip/mplabc32/v1.11a/bin/../lib/gcc/pic32mx/3.4.4/../../../../pic32mx/lib/./proc/32MX795F512L/processor.o
                                                  /Applications/microchip/mplabc32/v1.11a/bin/../lib/gcc/pic32mx/3.4.4/../../../../pic32mx/lib/libc.a(memcpy.o)
                                                  build/mega/production/startup.o
CHEMIS                                            /Applications/microchip/mplabc32/v1.11a/bin/../lib/gcc/pic32mx/3.4.4/../../../../pic32mx/lib/./proc/32MX795F512L/processor.o
                                                  /Applications/microchip/mplabc32/v1.11a/bin/../lib/gcc/pic32mx/3.4.4/../../../../pic32mx/lib/libc.a(memcpy.o)
                                                  build/mega/production/startup.o
CHEMSK                                            /Applications/microchip/mplabc32/v1.11a/bin/../lib/gcc/pic32mx/3.4.4/../../../../pic32mx/lib/./proc/32MX795F512L/processor.o
                                                  /Applications/microchip/mplabc32/v1.11a/bin/../lib/gcc/pic32mx/3.4.4/../../../../pic32mx/lib/libc.a(memcpy.o)
                                                  build/mega/production/startup.o
CHEMSKCLR                                         /Applications/microchip/mplabc32/v1.11a/bin/../lib/gcc/pic32mx/3.4.4/../../../../pic32mx/lib/./proc/32MX795F512L/processor.o
                                                  /Applications/microchip/mplabc32/v1.11a/bin/../lib/gcc/pic32mx/3.4.4/../../../../pic32mx/lib/libc.a(memcpy.o)
                                                  build/mega/production/startup.o
CHEMSKINV                                         /Applications/microchip/mplabc32/v1.11a/bin/../lib/gcc/pic32mx/3.4.4/../../../../pic32mx/lib/./proc/32MX795F512L/processor.o
                                                  /Applications/microchip/mplabc32/v1.11a/bin/../lib/gcc/pic32mx/3.4.4/../../../../pic32mx/lib/libc.a(memcpy.o)
                                                  build/mega/production/startup.o
CHEMSKSET                                         /Applications/microchip/mplabc32/v1.11a/bin/../lib/gcc/pic32mx/3.4.4/../../../../pic32mx/lib/./proc/32MX795F512L/processor.o
                                                  /Applications/microchip/mplabc32/v1.11a/bin/../lib/gcc/pic32mx/3.4.4/../../../../pic32mx/lib/libc.a(memcpy.o)
                                                  build/mega/production/startup.o
CHEPFABT                                          /Applications/microchip/mplabc32/v1.11a/bin/../lib/gcc/pic32mx/3.4.4/../../../../pic32mx/lib/./proc/32MX795F512L/processor.o
                                                  /Applications/microchip/mplabc32/v1.11a/bin/../lib/gcc/pic32mx/3.4.4/../../../../pic32mx/lib/libc.a(memcpy.o)
                                                  build/mega/production/startup.o
CHETAG                                            /Applications/microchip/mplabc32/v1.11a/bin/../lib/gcc/pic32mx/3.4.4/../../../../pic32mx/lib/./proc/32MX795F512L/processor.o
                                                  /Applications/microchip/mplabc32/v1.11a/bin/../lib/gcc/pic32mx/3.4.4/../../../../pic32mx/lib/libc.a(memcpy.o)
                                                  build/mega/production/startup.o
CHETAGCLR                                         /Applications/microchip/mplabc32/v1.11a/bin/../lib/gcc/pic32mx/3.4.4/../../../../pic32mx/lib/./proc/32MX795F512L/processor.o
                                                  /Applications/microchip/mplabc32/v1.11a/bin/../lib/gcc/pic32mx/3.4.4/../../../../pic32mx/lib/libc.a(memcpy.o)
                                                  build/mega/production/startup.o
CHETAGINV                                         /Applications/microchip/mplabc32/v1.11a/bin/../lib/gcc/pic32mx/3.4.4/../../../../pic32mx/lib/./proc/32MX795F512L/processor.o
                                                  /Applications/microchip/mplabc32/v1.11a/bin/../lib/gcc/pic32mx/3.4.4/../../../../pic32mx/lib/libc.a(memcpy.o)
                                                  build/mega/production/startup.o
CHETAGSET                                         /Applications/microchip/mplabc32/v1.11a/bin/../lib/gcc/pic32mx/3.4.4/../../../../pic32mx/lib/./proc/32MX795F512L/processor.o
                                                  /Applications/microchip/mplabc32/v1.11a/bin/../lib/gcc/pic32mx/3.4.4/../../../../pic32mx/lib/libc.a(memcpy.o)
                                                  build/mega/production/startup.o
CHEW0                                             /Applications/microchip/mplabc32/v1.11a/bin/../lib/gcc/pic32mx/3.4.4/../../../../pic32mx/lib/./proc/32MX795F512L/processor.o
                                                  /Applications/microchip/mplabc32/v1.11a/bin/../lib/gcc/pic32mx/3.4.4/../../../../pic32mx/lib/libc.a(memcpy.o)
                                                  build/mega/production/startup.o
CHEW1                                             /Applications/microchip/mplabc32/v1.11a/bin/../lib/gcc/pic32mx/3.4.4/../../../../pic32mx/lib/./proc/32MX795F512L/processor.o
                                                  /Applications/microchip/mplabc32/v1.11a/bin/../lib/gcc/pic32mx/3.4.4/../../../../pic32mx/lib/libc.a(memcpy.o)
                                                  build/mega/production/startup.o
CHEW2                                             /Applications/microchip/mplabc32/v1.11a/bin/../lib/gcc/pic32mx/3.4.4/../../../../pic32mx/lib/./proc/32MX795F512L/processor.o
                                                  /Applications/microchip/mplabc32/v1.11a/bin/../lib/gcc/pic32mx/3.4.4/../../../../pic32mx/lib/libc.a(memcpy.o)
                                                  build/mega/production/startup.o
CHEW3                                             /Applications/microchip/mplabc32/v1.11a/bin/../lib/gcc/pic32mx/3.4.4/../../../../pic32mx/lib/./proc/32MX795F512L/processor.o
                                                  /Applications/microchip/mplabc32/v1.11a/bin/../lib/gcc/pic32mx/3.4.4/../../../../pic32mx/lib/libc.a(memcpy.o)
                                                  build/mega/production/startup.o
CM1CON                                            /Applications/microchip/mplabc32/v1.11a/bin/../lib/gcc/pic32mx/3.4.4/../../../../pic32mx/lib/./proc/32MX795F512L/processor.o
                                                  /Applications/microchip/mplabc32/v1.11a/bin/../lib/gcc/pic32mx/3.4.4/../../../../pic32mx/lib/libc.a(memcpy.o)
                                                  build/mega/production/startup.o
CM1CONCLR                                         /Applications/microchip/mplabc32/v1.11a/bin/../lib/gcc/pic32mx/3.4.4/../../../../pic32mx/lib/./proc/32MX795F512L/processor.o
                                                  /Applications/microchip/mplabc32/v1.11a/bin/../lib/gcc/pic32mx/3.4.4/../../../../pic32mx/lib/libc.a(memcpy.o)
                                                  build/mega/production/startup.o
CM1CONINV                                         /Applications/microchip/mplabc32/v1.11a/bin/../lib/gcc/pic32mx/3.4.4/../../../../pic32mx/lib/./proc/32MX795F512L/processor.o
                                                  /Applications/microchip/mplabc32/v1.11a/bin/../lib/gcc/pic32mx/3.4.4/../../../../pic32mx/lib/libc.a(memcpy.o)
                                                  build/mega/production/startup.o
CM1CONSET                                         /Applications/microchip/mplabc32/v1.11a/bin/../lib/gcc/pic32mx/3.4.4/../../../../pic32mx/lib/./proc/32MX795F512L/processor.o
                                                  /Applications/microchip/mplabc32/v1.11a/bin/../lib/gcc/pic32mx/3.4.4/../../../../pic32mx/lib/libc.a(memcpy.o)
                                                  build/mega/production/startup.o
CM2CON                                            /Applications/microchip/mplabc32/v1.11a/bin/../lib/gcc/pic32mx/3.4.4/../../../../pic32mx/lib/./proc/32MX795F512L/processor.o
                                                  /Applications/microchip/mplabc32/v1.11a/bin/../lib/gcc/pic32mx/3.4.4/../../../../pic32mx/lib/libc.a(memcpy.o)
                                                  build/mega/production/startup.o
CM2CONCLR                                         /Applications/microchip/mplabc32/v1.11a/bin/../lib/gcc/pic32mx/3.4.4/../../../../pic32mx/lib/./proc/32MX795F512L/processor.o
                                                  /Applications/microchip/mplabc32/v1.11a/bin/../lib/gcc/pic32mx/3.4.4/../../../../pic32mx/lib/libc.a(memcpy.o)
                                                  build/mega/production/startup.o
CM2CONINV                                         /Applications/microchip/mplabc32/v1.11a/bin/../lib/gcc/pic32mx/3.4.4/../../../../pic32mx/lib/./proc/32MX795F512L/processor.o
                                                  /Applications/microchip/mplabc32/v1.11a/bin/../lib/gcc/pic32mx/3.4.4/../../../../pic32mx/lib/libc.a(memcpy.o)
                                                  build/mega/production/startup.o
CM2CONSET                                         /Applications/microchip/mplabc32/v1.11a/bin/../lib/gcc/pic32mx/3.4.4/../../../../pic32mx/lib/./proc/32MX795F512L/processor.o
                                                  /Applications/microchip/mplabc32/v1.11a/bin/../lib/gcc/pic32mx/3.4.4/../../../../pic32mx/lib/libc.a(memcpy.o)
                                                  build/mega/production/startup.o
CMSTAT                                            /Applications/microchip/mplabc32/v1.11a/bin/../lib/gcc/pic32mx/3.4.4/../../../../pic32mx/lib/./proc/32MX795F512L/processor.o
                                                  /Applications/microchip/mplabc32/v1.11a/bin/../lib/gcc/pic32mx/3.4.4/../../../../pic32mx/lib/libc.a(memcpy.o)
                                                  build/mega/production/startup.o
CMSTATCLR                                         /Applications/microchip/mplabc32/v1.11a/bin/../lib/gcc/pic32mx/3.4.4/../../../../pic32mx/lib/./proc/32MX795F512L/processor.o
                                                  /Applications/microchip/mplabc32/v1.11a/bin/../lib/gcc/pic32mx/3.4.4/../../../../pic32mx/lib/libc.a(memcpy.o)
                                                  build/mega/production/startup.o
CMSTATINV                                         /Applications/microchip/mplabc32/v1.11a/bin/../lib/gcc/pic32mx/3.4.4/../../../../pic32mx/lib/./proc/32MX795F512L/processor.o
                                                  /Applications/microchip/mplabc32/v1.11a/bin/../lib/gcc/pic32mx/3.4.4/../../../../pic32mx/lib/libc.a(memcpy.o)
                                                  build/mega/production/startup.o
CMSTATSET                                         /Applications/microchip/mplabc32/v1.11a/bin/../lib/gcc/pic32mx/3.4.4/../../../../pic32mx/lib/./proc/32MX795F512L/processor.o
                                                  /Applications/microchip/mplabc32/v1.11a/bin/../lib/gcc/pic32mx/3.4.4/../../../../pic32mx/lib/libc.a(memcpy.o)
                                                  build/mega/production/startup.o
CNCON                                             /Applications/microchip/mplabc32/v1.11a/bin/../lib/gcc/pic32mx/3.4.4/../../../../pic32mx/lib/./proc/32MX795F512L/processor.o
                                                  /Applications/microchip/mplabc32/v1.11a/bin/../lib/gcc/pic32mx/3.4.4/../../../../pic32mx/lib/libc.a(memcpy.o)
                                                  build/mega/production/startup.o
CNCONCLR                                          /Applications/microchip/mplabc32/v1.11a/bin/../lib/gcc/pic32mx/3.4.4/../../../../pic32mx/lib/./proc/32MX795F512L/processor.o
                                                  /Applications/microchip/mplabc32/v1.11a/bin/../lib/gcc/pic32mx/3.4.4/../../../../pic32mx/lib/libc.a(memcpy.o)
                                                  build/mega/production/startup.o
CNCONINV                                          /Applications/microchip/mplabc32/v1.11a/bin/../lib/gcc/pic32mx/3.4.4/../../../../pic32mx/lib/./proc/32MX795F512L/processor.o
                                                  /Applications/microchip/mplabc32/v1.11a/bin/../lib/gcc/pic32mx/3.4.4/../../../../pic32mx/lib/libc.a(memcpy.o)
                                                  build/mega/production/startup.o
CNCONSET                                          /Applications/microchip/mplabc32/v1.11a/bin/../lib/gcc/pic32mx/3.4.4/../../../../pic32mx/lib/./proc/32MX795F512L/processor.o
                                                  /Applications/microchip/mplabc32/v1.11a/bin/../lib/gcc/pic32mx/3.4.4/../../../../pic32mx/lib/libc.a(memcpy.o)
                                                  build/mega/production/startup.o
CNEN                                              /Applications/microchip/mplabc32/v1.11a/bin/../lib/gcc/pic32mx/3.4.4/../../../../pic32mx/lib/./proc/32MX795F512L/processor.o
                                                  /Applications/microchip/mplabc32/v1.11a/bin/../lib/gcc/pic32mx/3.4.4/../../../../pic32mx/lib/libc.a(memcpy.o)
                                                  build/mega/production/startup.o
CNENCLR                                           /Applications/microchip/mplabc32/v1.11a/bin/../lib/gcc/pic32mx/3.4.4/../../../../pic32mx/lib/./proc/32MX795F512L/processor.o
                                                  /Applications/microchip/mplabc32/v1.11a/bin/../lib/gcc/pic32mx/3.4.4/../../../../pic32mx/lib/libc.a(memcpy.o)
                                                  build/mega/production/startup.o
CNENINV                                           /Applications/microchip/mplabc32/v1.11a/bin/../lib/gcc/pic32mx/3.4.4/../../../../pic32mx/lib/./proc/32MX795F512L/processor.o
                                                  /Applications/microchip/mplabc32/v1.11a/bin/../lib/gcc/pic32mx/3.4.4/../../../../pic32mx/lib/libc.a(memcpy.o)
                                                  build/mega/production/startup.o
CNENSET                                           /Applications/microchip/mplabc32/v1.11a/bin/../lib/gcc/pic32mx/3.4.4/../../../../pic32mx/lib/./proc/32MX795F512L/processor.o
                                                  /Applications/microchip/mplabc32/v1.11a/bin/../lib/gcc/pic32mx/3.4.4/../../../../pic32mx/lib/libc.a(memcpy.o)
                                                  build/mega/production/startup.o
CNPUE                                             /Applications/microchip/mplabc32/v1.11a/bin/../lib/gcc/pic32mx/3.4.4/../../../../pic32mx/lib/./proc/32MX795F512L/processor.o
                                                  /Applications/microchip/mplabc32/v1.11a/bin/../lib/gcc/pic32mx/3.4.4/../../../../pic32mx/lib/libc.a(memcpy.o)
                                                  build/mega/production/startup.o
CNPUECLR                                          /Applications/microchip/mplabc32/v1.11a/bin/../lib/gcc/pic32mx/3.4.4/../../../../pic32mx/lib/./proc/32MX795F512L/processor.o
                                                  /Applications/microchip/mplabc32/v1.11a/bin/../lib/gcc/pic32mx/3.4.4/../../../../pic32mx/lib/libc.a(memcpy.o)
                                                  build/mega/production/startup.o
CNPUEINV                                          /Applications/microchip/mplabc32/v1.11a/bin/../lib/gcc/pic32mx/3.4.4/../../../../pic32mx/lib/./proc/32MX795F512L/processor.o
                                                  /Applications/microchip/mplabc32/v1.11a/bin/../lib/gcc/pic32mx/3.4.4/../../../../pic32mx/lib/libc.a(memcpy.o)
                                                  build/mega/production/startup.o
CNPUESET                                          /Applications/microchip/mplabc32/v1.11a/bin/../lib/gcc/pic32mx/3.4.4/../../../../pic32mx/lib/./proc/32MX795F512L/processor.o
                                                  /Applications/microchip/mplabc32/v1.11a/bin/../lib/gcc/pic32mx/3.4.4/../../../../pic32mx/lib/libc.a(memcpy.o)
                                                  build/mega/production/startup.o
CVRCON                                            /Applications/microchip/mplabc32/v1.11a/bin/../lib/gcc/pic32mx/3.4.4/../../../../pic32mx/lib/./proc/32MX795F512L/processor.o
                                                  /Applications/microchip/mplabc32/v1.11a/bin/../lib/gcc/pic32mx/3.4.4/../../../../pic32mx/lib/libc.a(memcpy.o)
                                                  build/mega/production/startup.o
CVRCONCLR                                         /Applications/microchip/mplabc32/v1.11a/bin/../lib/gcc/pic32mx/3.4.4/../../../../pic32mx/lib/./proc/32MX795F512L/processor.o
                                                  /Applications/microchip/mplabc32/v1.11a/bin/../lib/gcc/pic32mx/3.4.4/../../../../pic32mx/lib/libc.a(memcpy.o)
                                                  build/mega/production/startup.o
CVRCONINV                                         /Applications/microchip/mplabc32/v1.11a/bin/../lib/gcc/pic32mx/3.4.4/../../../../pic32mx/lib/./proc/32MX795F512L/processor.o
                                                  /Applications/microchip/mplabc32/v1.11a/bin/../lib/gcc/pic32mx/3.4.4/../../../../pic32mx/lib/libc.a(memcpy.o)
                                                  build/mega/production/startup.o
CVRCONSET                                         /Applications/microchip/mplabc32/v1.11a/bin/../lib/gcc/pic32mx/3.4.4/../../../../pic32mx/lib/./proc/32MX795F512L/processor.o
                                                  /Applications/microchip/mplabc32/v1.11a/bin/../lib/gcc/pic32mx/3.4.4/../../../../pic32mx/lib/libc.a(memcpy.o)
                                                  build/mega/production/startup.o
CheKseg0CacheOff                                  /Applications/microchip/mplabc32/v1.11a/bin/../lib/gcc/pic32mx/3.4.4/../../../../pic32mx/lib/libmchp_peripheral_32MX795F512L.a(pcache.o)
CheKseg0CacheOn                                   /Applications/microchip/mplabc32/v1.11a/bin/../lib/gcc/pic32mx/3.4.4/../../../../pic32mx/lib/libmchp_peripheral_32MX795F512L.a(pcache.o)
                                                  build/mega/production/pic32bootloader.o
DCH0CON                                           /Applications/microchip/mplabc32/v1.11a/bin/../lib/gcc/pic32mx/3.4.4/../../../../pic32mx/lib/./proc/32MX795F512L/processor.o
                                                  /Applications/microchip/mplabc32/v1.11a/bin/../lib/gcc/pic32mx/3.4.4/../../../../pic32mx/lib/libc.a(memcpy.o)
                                                  build/mega/production/startup.o
DCH0CONCLR                                        /Applications/microchip/mplabc32/v1.11a/bin/../lib/gcc/pic32mx/3.4.4/../../../../pic32mx/lib/./proc/32MX795F512L/processor.o
                                                  /Applications/microchip/mplabc32/v1.11a/bin/../lib/gcc/pic32mx/3.4.4/../../../../pic32mx/lib/libc.a(memcpy.o)
                                                  build/mega/production/startup.o
DCH0CONINV                                        /Applications/microchip/mplabc32/v1.11a/bin/../lib/gcc/pic32mx/3.4.4/../../../../pic32mx/lib/./proc/32MX795F512L/processor.o
                                                  /Applications/microchip/mplabc32/v1.11a/bin/../lib/gcc/pic32mx/3.4.4/../../../../pic32mx/lib/libc.a(memcpy.o)
                                                  build/mega/production/startup.o
DCH0CONSET                                        /Applications/microchip/mplabc32/v1.11a/bin/../lib/gcc/pic32mx/3.4.4/../../../../pic32mx/lib/./proc/32MX795F512L/processor.o
                                                  /Applications/microchip/mplabc32/v1.11a/bin/../lib/gcc/pic32mx/3.4.4/../../../../pic32mx/lib/libc.a(memcpy.o)
                                                  build/mega/production/startup.o
DCH0CPTR                                          /Applications/microchip/mplabc32/v1.11a/bin/../lib/gcc/pic32mx/3.4.4/../../../../pic32mx/lib/./proc/32MX795F512L/processor.o
                                                  /Applications/microchip/mplabc32/v1.11a/bin/../lib/gcc/pic32mx/3.4.4/../../../../pic32mx/lib/libc.a(memcpy.o)
                                                  build/mega/production/startup.o
DCH0CPTRCLR                                       /Applications/microchip/mplabc32/v1.11a/bin/../lib/gcc/pic32mx/3.4.4/../../../../pic32mx/lib/./proc/32MX795F512L/processor.o
                                                  /Applications/microchip/mplabc32/v1.11a/bin/../lib/gcc/pic32mx/3.4.4/../../../../pic32mx/lib/libc.a(memcpy.o)
                                                  build/mega/production/startup.o
DCH0CPTRINV                                       /Applications/microchip/mplabc32/v1.11a/bin/../lib/gcc/pic32mx/3.4.4/../../../../pic32mx/lib/./proc/32MX795F512L/processor.o
                                                  /Applications/microchip/mplabc32/v1.11a/bin/../lib/gcc/pic32mx/3.4.4/../../../../pic32mx/lib/libc.a(memcpy.o)
                                                  build/mega/production/startup.o
DCH0CPTRSET                                       /Applications/microchip/mplabc32/v1.11a/bin/../lib/gcc/pic32mx/3.4.4/../../../../pic32mx/lib/./proc/32MX795F512L/processor.o
                                                  /Applications/microchip/mplabc32/v1.11a/bin/../lib/gcc/pic32mx/3.4.4/../../../../pic32mx/lib/libc.a(memcpy.o)
                                                  build/mega/production/startup.o
DCH0CSIZ                                          /Applications/microchip/mplabc32/v1.11a/bin/../lib/gcc/pic32mx/3.4.4/../../../../pic32mx/lib/./proc/32MX795F512L/processor.o
                                                  /Applications/microchip/mplabc32/v1.11a/bin/../lib/gcc/pic32mx/3.4.4/../../../../pic32mx/lib/libc.a(memcpy.o)
                                                  build/mega/production/startup.o
DCH0CSIZCLR                                       /Applications/microchip/mplabc32/v1.11a/bin/../lib/gcc/pic32mx/3.4.4/../../../../pic32mx/lib/./proc/32MX795F512L/processor.o
                                                  /Applications/microchip/mplabc32/v1.11a/bin/../lib/gcc/pic32mx/3.4.4/../../../../pic32mx/lib/libc.a(memcpy.o)
                                                  build/mega/production/startup.o
DCH0CSIZINV                                       /Applications/microchip/mplabc32/v1.11a/bin/../lib/gcc/pic32mx/3.4.4/../../../../pic32mx/lib/./proc/32MX795F512L/processor.o
                                                  /Applications/microchip/mplabc32/v1.11a/bin/../lib/gcc/pic32mx/3.4.4/../../../../pic32mx/lib/libc.a(memcpy.o)
                                                  build/mega/production/startup.o
DCH0CSIZSET                                       /Applications/microchip/mplabc32/v1.11a/bin/../lib/gcc/pic32mx/3.4.4/../../../../pic32mx/lib/./proc/32MX795F512L/processor.o
                                                  /Applications/microchip/mplabc32/v1.11a/bin/../lib/gcc/pic32mx/3.4.4/../../../../pic32mx/lib/libc.a(memcpy.o)
                                                  build/mega/production/startup.o
DCH0DAT                                           /Applications/microchip/mplabc32/v1.11a/bin/../lib/gcc/pic32mx/3.4.4/../../../../pic32mx/lib/./proc/32MX795F512L/processor.o
                                                  /Applications/microchip/mplabc32/v1.11a/bin/../lib/gcc/pic32mx/3.4.4/../../../../pic32mx/lib/libc.a(memcpy.o)
                                                  build/mega/production/startup.o
DCH0DATCLR                                        /Applications/microchip/mplabc32/v1.11a/bin/../lib/gcc/pic32mx/3.4.4/../../../../pic32mx/lib/./proc/32MX795F512L/processor.o
                                                  /Applications/microchip/mplabc32/v1.11a/bin/../lib/gcc/pic32mx/3.4.4/../../../../pic32mx/lib/libc.a(memcpy.o)
                                                  build/mega/production/startup.o
DCH0DATINV                                        /Applications/microchip/mplabc32/v1.11a/bin/../lib/gcc/pic32mx/3.4.4/../../../../pic32mx/lib/./proc/32MX795F512L/processor.o
                                                  /Applications/microchip/mplabc32/v1.11a/bin/../lib/gcc/pic32mx/3.4.4/../../../../pic32mx/lib/libc.a(memcpy.o)
                                                  build/mega/production/startup.o
DCH0DATSET                                        /Applications/microchip/mplabc32/v1.11a/bin/../lib/gcc/pic32mx/3.4.4/../../../../pic32mx/lib/./proc/32MX795F512L/processor.o
                                                  /Applications/microchip/mplabc32/v1.11a/bin/../lib/gcc/pic32mx/3.4.4/../../../../pic32mx/lib/libc.a(memcpy.o)
                                                  build/mega/production/startup.o
DCH0DPTR                                          /Applications/microchip/mplabc32/v1.11a/bin/../lib/gcc/pic32mx/3.4.4/../../../../pic32mx/lib/./proc/32MX795F512L/processor.o
                                                  /Applications/microchip/mplabc32/v1.11a/bin/../lib/gcc/pic32mx/3.4.4/../../../../pic32mx/lib/libc.a(memcpy.o)
                                                  build/mega/production/startup.o
DCH0DPTRCLR                                       /Applications/microchip/mplabc32/v1.11a/bin/../lib/gcc/pic32mx/3.4.4/../../../../pic32mx/lib/./proc/32MX795F512L/processor.o
                                                  /Applications/microchip/mplabc32/v1.11a/bin/../lib/gcc/pic32mx/3.4.4/../../../../pic32mx/lib/libc.a(memcpy.o)
                                                  build/mega/production/startup.o
DCH0DPTRINV                                       /Applications/microchip/mplabc32/v1.11a/bin/../lib/gcc/pic32mx/3.4.4/../../../../pic32mx/lib/./proc/32MX795F512L/processor.o
                                                  /Applications/microchip/mplabc32/v1.11a/bin/../lib/gcc/pic32mx/3.4.4/../../../../pic32mx/lib/libc.a(memcpy.o)
                                                  build/mega/production/startup.o
DCH0DPTRSET                                       /Applications/microchip/mplabc32/v1.11a/bin/../lib/gcc/pic32mx/3.4.4/../../../../pic32mx/lib/./proc/32MX795F512L/processor.o
                                                  /Applications/microchip/mplabc32/v1.11a/bin/../lib/gcc/pic32mx/3.4.4/../../../../pic32mx/lib/libc.a(memcpy.o)
                                                  build/mega/production/startup.o
DCH0DSA                                           /Applications/microchip/mplabc32/v1.11a/bin/../lib/gcc/pic32mx/3.4.4/../../../../pic32mx/lib/./proc/32MX795F512L/processor.o
                                                  /Applications/microchip/mplabc32/v1.11a/bin/../lib/gcc/pic32mx/3.4.4/../../../../pic32mx/lib/libc.a(memcpy.o)
                                                  build/mega/production/startup.o
DCH0DSACLR                                        /Applications/microchip/mplabc32/v1.11a/bin/../lib/gcc/pic32mx/3.4.4/../../../../pic32mx/lib/./proc/32MX795F512L/processor.o
                                                  /Applications/microchip/mplabc32/v1.11a/bin/../lib/gcc/pic32mx/3.4.4/../../../../pic32mx/lib/libc.a(memcpy.o)
                                                  build/mega/production/startup.o
DCH0DSAINV                                        /Applications/microchip/mplabc32/v1.11a/bin/../lib/gcc/pic32mx/3.4.4/../../../../pic32mx/lib/./proc/32MX795F512L/processor.o
                                                  /Applications/microchip/mplabc32/v1.11a/bin/../lib/gcc/pic32mx/3.4.4/../../../../pic32mx/lib/libc.a(memcpy.o)
                                                  build/mega/production/startup.o
DCH0DSASET                                        /Applications/microchip/mplabc32/v1.11a/bin/../lib/gcc/pic32mx/3.4.4/../../../../pic32mx/lib/./proc/32MX795F512L/processor.o
                                                  /Applications/microchip/mplabc32/v1.11a/bin/../lib/gcc/pic32mx/3.4.4/../../../../pic32mx/lib/libc.a(memcpy.o)
                                                  build/mega/production/startup.o
DCH0DSIZ                                          /Applications/microchip/mplabc32/v1.11a/bin/../lib/gcc/pic32mx/3.4.4/../../../../pic32mx/lib/./proc/32MX795F512L/processor.o
                                                  /Applications/microchip/mplabc32/v1.11a/bin/../lib/gcc/pic32mx/3.4.4/../../../../pic32mx/lib/libc.a(memcpy.o)
                                                  build/mega/production/startup.o
DCH0DSIZCLR                                       /Applications/microchip/mplabc32/v1.11a/bin/../lib/gcc/pic32mx/3.4.4/../../../../pic32mx/lib/./proc/32MX795F512L/processor.o
                                                  /Applications/microchip/mplabc32/v1.11a/bin/../lib/gcc/pic32mx/3.4.4/../../../../pic32mx/lib/libc.a(memcpy.o)
                                                  build/mega/production/startup.o
DCH0DSIZINV                                       /Applications/microchip/mplabc32/v1.11a/bin/../lib/gcc/pic32mx/3.4.4/../../../../pic32mx/lib/./proc/32MX795F512L/processor.o
                                                  /Applications/microchip/mplabc32/v1.11a/bin/../lib/gcc/pic32mx/3.4.4/../../../../pic32mx/lib/libc.a(memcpy.o)
                                                  build/mega/production/startup.o
DCH0DSIZSET                                       /Applications/microchip/mplabc32/v1.11a/bin/../lib/gcc/pic32mx/3.4.4/../../../../pic32mx/lib/./proc/32MX795F512L/processor.o
                                                  /Applications/microchip/mplabc32/v1.11a/bin/../lib/gcc/pic32mx/3.4.4/../../../../pic32mx/lib/libc.a(memcpy.o)
                                                  build/mega/production/startup.o
DCH0ECON                                          /Applications/microchip/mplabc32/v1.11a/bin/../lib/gcc/pic32mx/3.4.4/../../../../pic32mx/lib/./proc/32MX795F512L/processor.o
                                                  /Applications/microchip/mplabc32/v1.11a/bin/../lib/gcc/pic32mx/3.4.4/../../../../pic32mx/lib/libc.a(memcpy.o)
                                                  build/mega/production/startup.o
DCH0ECONCLR                                       /Applications/microchip/mplabc32/v1.11a/bin/../lib/gcc/pic32mx/3.4.4/../../../../pic32mx/lib/./proc/32MX795F512L/processor.o
                                                  /Applications/microchip/mplabc32/v1.11a/bin/../lib/gcc/pic32mx/3.4.4/../../../../pic32mx/lib/libc.a(memcpy.o)
                                                  build/mega/production/startup.o
DCH0ECONINV                                       /Applications/microchip/mplabc32/v1.11a/bin/../lib/gcc/pic32mx/3.4.4/../../../../pic32mx/lib/./proc/32MX795F512L/processor.o
                                                  /Applications/microchip/mplabc32/v1.11a/bin/../lib/gcc/pic32mx/3.4.4/../../../../pic32mx/lib/libc.a(memcpy.o)
                                                  build/mega/production/startup.o
DCH0ECONSET                                       /Applications/microchip/mplabc32/v1.11a/bin/../lib/gcc/pic32mx/3.4.4/../../../../pic32mx/lib/./proc/32MX795F512L/processor.o
                                                  /Applications/microchip/mplabc32/v1.11a/bin/../lib/gcc/pic32mx/3.4.4/../../../../pic32mx/lib/libc.a(memcpy.o)
                                                  build/mega/production/startup.o
DCH0INT                                           /Applications/microchip/mplabc32/v1.11a/bin/../lib/gcc/pic32mx/3.4.4/../../../../pic32mx/lib/./proc/32MX795F512L/processor.o
                                                  /Applications/microchip/mplabc32/v1.11a/bin/../lib/gcc/pic32mx/3.4.4/../../../../pic32mx/lib/libc.a(memcpy.o)
                                                  build/mega/production/startup.o
DCH0INTCLR                                        /Applications/microchip/mplabc32/v1.11a/bin/../lib/gcc/pic32mx/3.4.4/../../../../pic32mx/lib/./proc/32MX795F512L/processor.o
                                                  /Applications/microchip/mplabc32/v1.11a/bin/../lib/gcc/pic32mx/3.4.4/../../../../pic32mx/lib/libc.a(memcpy.o)
                                                  build/mega/production/startup.o
DCH0INTINV                                        /Applications/microchip/mplabc32/v1.11a/bin/../lib/gcc/pic32mx/3.4.4/../../../../pic32mx/lib/./proc/32MX795F512L/processor.o
                                                  /Applications/microchip/mplabc32/v1.11a/bin/../lib/gcc/pic32mx/3.4.4/../../../../pic32mx/lib/libc.a(memcpy.o)
                                                  build/mega/production/startup.o
DCH0INTSET                                        /Applications/microchip/mplabc32/v1.11a/bin/../lib/gcc/pic32mx/3.4.4/../../../../pic32mx/lib/./proc/32MX795F512L/processor.o
                                                  /Applications/microchip/mplabc32/v1.11a/bin/../lib/gcc/pic32mx/3.4.4/../../../../pic32mx/lib/libc.a(memcpy.o)
                                                  build/mega/production/startup.o
DCH0SPTR                                          /Applications/microchip/mplabc32/v1.11a/bin/../lib/gcc/pic32mx/3.4.4/../../../../pic32mx/lib/./proc/32MX795F512L/processor.o
                                                  /Applications/microchip/mplabc32/v1.11a/bin/../lib/gcc/pic32mx/3.4.4/../../../../pic32mx/lib/libc.a(memcpy.o)
                                                  build/mega/production/startup.o
DCH0SPTRCLR                                       /Applications/microchip/mplabc32/v1.11a/bin/../lib/gcc/pic32mx/3.4.4/../../../../pic32mx/lib/./proc/32MX795F512L/processor.o
                                                  /Applications/microchip/mplabc32/v1.11a/bin/../lib/gcc/pic32mx/3.4.4/../../../../pic32mx/lib/libc.a(memcpy.o)
                                                  build/mega/production/startup.o
DCH0SPTRINV                                       /Applications/microchip/mplabc32/v1.11a/bin/../lib/gcc/pic32mx/3.4.4/../../../../pic32mx/lib/./proc/32MX795F512L/processor.o
                                                  /Applications/microchip/mplabc32/v1.11a/bin/../lib/gcc/pic32mx/3.4.4/../../../../pic32mx/lib/libc.a(memcpy.o)
                                                  build/mega/production/startup.o
DCH0SPTRSET                                       /Applications/microchip/mplabc32/v1.11a/bin/../lib/gcc/pic32mx/3.4.4/../../../../pic32mx/lib/./proc/32MX795F512L/processor.o
                                                  /Applications/microchip/mplabc32/v1.11a/bin/../lib/gcc/pic32mx/3.4.4/../../../../pic32mx/lib/libc.a(memcpy.o)
                                                  build/mega/production/startup.o
DCH0SSA                                           /Applications/microchip/mplabc32/v1.11a/bin/../lib/gcc/pic32mx/3.4.4/../../../../pic32mx/lib/./proc/32MX795F512L/processor.o
                                                  /Applications/microchip/mplabc32/v1.11a/bin/../lib/gcc/pic32mx/3.4.4/../../../../pic32mx/lib/libc.a(memcpy.o)
                                                  build/mega/production/startup.o
DCH0SSACLR                                        /Applications/microchip/mplabc32/v1.11a/bin/../lib/gcc/pic32mx/3.4.4/../../../../pic32mx/lib/./proc/32MX795F512L/processor.o
                                                  /Applications/microchip/mplabc32/v1.11a/bin/../lib/gcc/pic32mx/3.4.4/../../../../pic32mx/lib/libc.a(memcpy.o)
                                                  build/mega/production/startup.o
DCH0SSAINV                                        /Applications/microchip/mplabc32/v1.11a/bin/../lib/gcc/pic32mx/3.4.4/../../../../pic32mx/lib/./proc/32MX795F512L/processor.o
                                                  /Applications/microchip/mplabc32/v1.11a/bin/../lib/gcc/pic32mx/3.4.4/../../../../pic32mx/lib/libc.a(memcpy.o)
                                                  build/mega/production/startup.o
DCH0SSASET                                        /Applications/microchip/mplabc32/v1.11a/bin/../lib/gcc/pic32mx/3.4.4/../../../../pic32mx/lib/./proc/32MX795F512L/processor.o
                                                  /Applications/microchip/mplabc32/v1.11a/bin/../lib/gcc/pic32mx/3.4.4/../../../../pic32mx/lib/libc.a(memcpy.o)
                                                  build/mega/production/startup.o
DCH0SSIZ                                          /Applications/microchip/mplabc32/v1.11a/bin/../lib/gcc/pic32mx/3.4.4/../../../../pic32mx/lib/./proc/32MX795F512L/processor.o
                                                  /Applications/microchip/mplabc32/v1.11a/bin/../lib/gcc/pic32mx/3.4.4/../../../../pic32mx/lib/libc.a(memcpy.o)
                                                  build/mega/production/startup.o
DCH0SSIZCLR                                       /Applications/microchip/mplabc32/v1.11a/bin/../lib/gcc/pic32mx/3.4.4/../../../../pic32mx/lib/./proc/32MX795F512L/processor.o
                                                  /Applications/microchip/mplabc32/v1.11a/bin/../lib/gcc/pic32mx/3.4.4/../../../../pic32mx/lib/libc.a(memcpy.o)
                                                  build/mega/production/startup.o
DCH0SSIZINV                                       /Applications/microchip/mplabc32/v1.11a/bin/../lib/gcc/pic32mx/3.4.4/../../../../pic32mx/lib/./proc/32MX795F512L/processor.o
                                                  /Applications/microchip/mplabc32/v1.11a/bin/../lib/gcc/pic32mx/3.4.4/../../../../pic32mx/lib/libc.a(memcpy.o)
                                                  build/mega/production/startup.o
DCH0SSIZSET                                       /Applications/microchip/mplabc32/v1.11a/bin/../lib/gcc/pic32mx/3.4.4/../../../../pic32mx/lib/./proc/32MX795F512L/processor.o
                                                  /Applications/microchip/mplabc32/v1.11a/bin/../lib/gcc/pic32mx/3.4.4/../../../../pic32mx/lib/libc.a(memcpy.o)
                                                  build/mega/production/startup.o
DCH1CON                                           /Applications/microchip/mplabc32/v1.11a/bin/../lib/gcc/pic32mx/3.4.4/../../../../pic32mx/lib/./proc/32MX795F512L/processor.o
                                                  /Applications/microchip/mplabc32/v1.11a/bin/../lib/gcc/pic32mx/3.4.4/../../../../pic32mx/lib/libc.a(memcpy.o)
                                                  build/mega/production/startup.o
DCH1CONCLR                                        /Applications/microchip/mplabc32/v1.11a/bin/../lib/gcc/pic32mx/3.4.4/../../../../pic32mx/lib/./proc/32MX795F512L/processor.o
                                                  /Applications/microchip/mplabc32/v1.11a/bin/../lib/gcc/pic32mx/3.4.4/../../../../pic32mx/lib/libc.a(memcpy.o)
                                                  build/mega/production/startup.o
DCH1CONINV                                        /Applications/microchip/mplabc32/v1.11a/bin/../lib/gcc/pic32mx/3.4.4/../../../../pic32mx/lib/./proc/32MX795F512L/processor.o
                                                  /Applications/microchip/mplabc32/v1.11a/bin/../lib/gcc/pic32mx/3.4.4/../../../../pic32mx/lib/libc.a(memcpy.o)
                                                  build/mega/production/startup.o
DCH1CONSET                                        /Applications/microchip/mplabc32/v1.11a/bin/../lib/gcc/pic32mx/3.4.4/../../../../pic32mx/lib/./proc/32MX795F512L/processor.o
                                                  /Applications/microchip/mplabc32/v1.11a/bin/../lib/gcc/pic32mx/3.4.4/../../../../pic32mx/lib/libc.a(memcpy.o)
                                                  build/mega/production/startup.o
DCH1CPTR                                          /Applications/microchip/mplabc32/v1.11a/bin/../lib/gcc/pic32mx/3.4.4/../../../../pic32mx/lib/./proc/32MX795F512L/processor.o
                                                  /Applications/microchip/mplabc32/v1.11a/bin/../lib/gcc/pic32mx/3.4.4/../../../../pic32mx/lib/libc.a(memcpy.o)
                                                  build/mega/production/startup.o
DCH1CPTRCLR                                       /Applications/microchip/mplabc32/v1.11a/bin/../lib/gcc/pic32mx/3.4.4/../../../../pic32mx/lib/./proc/32MX795F512L/processor.o
                                                  /Applications/microchip/mplabc32/v1.11a/bin/../lib/gcc/pic32mx/3.4.4/../../../../pic32mx/lib/libc.a(memcpy.o)
                                                  build/mega/production/startup.o
DCH1CPTRINV                                       /Applications/microchip/mplabc32/v1.11a/bin/../lib/gcc/pic32mx/3.4.4/../../../../pic32mx/lib/./proc/32MX795F512L/processor.o
                                                  /Applications/microchip/mplabc32/v1.11a/bin/../lib/gcc/pic32mx/3.4.4/../../../../pic32mx/lib/libc.a(memcpy.o)
                                                  build/mega/production/startup.o
DCH1CPTRSET                                       /Applications/microchip/mplabc32/v1.11a/bin/../lib/gcc/pic32mx/3.4.4/../../../../pic32mx/lib/./proc/32MX795F512L/processor.o
                                                  /Applications/microchip/mplabc32/v1.11a/bin/../lib/gcc/pic32mx/3.4.4/../../../../pic32mx/lib/libc.a(memcpy.o)
                                                  build/mega/production/startup.o
DCH1CSIZ                                          /Applications/microchip/mplabc32/v1.11a/bin/../lib/gcc/pic32mx/3.4.4/../../../../pic32mx/lib/./proc/32MX795F512L/processor.o
                                                  /Applications/microchip/mplabc32/v1.11a/bin/../lib/gcc/pic32mx/3.4.4/../../../../pic32mx/lib/libc.a(memcpy.o)
                                                  build/mega/production/startup.o
DCH1CSIZCLR                                       /Applications/microchip/mplabc32/v1.11a/bin/../lib/gcc/pic32mx/3.4.4/../../../../pic32mx/lib/./proc/32MX795F512L/processor.o
                                                  /Applications/microchip/mplabc32/v1.11a/bin/../lib/gcc/pic32mx/3.4.4/../../../../pic32mx/lib/libc.a(memcpy.o)
                                                  build/mega/production/startup.o
DCH1CSIZINV                                       /Applications/microchip/mplabc32/v1.11a/bin/../lib/gcc/pic32mx/3.4.4/../../../../pic32mx/lib/./proc/32MX795F512L/processor.o
                                                  /Applications/microchip/mplabc32/v1.11a/bin/../lib/gcc/pic32mx/3.4.4/../../../../pic32mx/lib/libc.a(memcpy.o)
                                                  build/mega/production/startup.o
DCH1CSIZSET                                       /Applications/microchip/mplabc32/v1.11a/bin/../lib/gcc/pic32mx/3.4.4/../../../../pic32mx/lib/./proc/32MX795F512L/processor.o
                                                  /Applications/microchip/mplabc32/v1.11a/bin/../lib/gcc/pic32mx/3.4.4/../../../../pic32mx/lib/libc.a(memcpy.o)
                                                  build/mega/production/startup.o
DCH1DAT                                           /Applications/microchip/mplabc32/v1.11a/bin/../lib/gcc/pic32mx/3.4.4/../../../../pic32mx/lib/./proc/32MX795F512L/processor.o
                                                  /Applications/microchip/mplabc32/v1.11a/bin/../lib/gcc/pic32mx/3.4.4/../../../../pic32mx/lib/libc.a(memcpy.o)
                                                  build/mega/production/startup.o
DCH1DATCLR                                        /Applications/microchip/mplabc32/v1.11a/bin/../lib/gcc/pic32mx/3.4.4/../../../../pic32mx/lib/./proc/32MX795F512L/processor.o
                                                  /Applications/microchip/mplabc32/v1.11a/bin/../lib/gcc/pic32mx/3.4.4/../../../../pic32mx/lib/libc.a(memcpy.o)
                                                  build/mega/production/startup.o
DCH1DATINV                                        /Applications/microchip/mplabc32/v1.11a/bin/../lib/gcc/pic32mx/3.4.4/../../../../pic32mx/lib/./proc/32MX795F512L/processor.o
                                                  /Applications/microchip/mplabc32/v1.11a/bin/../lib/gcc/pic32mx/3.4.4/../../../../pic32mx/lib/libc.a(memcpy.o)
                                                  build/mega/production/startup.o
DCH1DATSET                                        /Applications/microchip/mplabc32/v1.11a/bin/../lib/gcc/pic32mx/3.4.4/../../../../pic32mx/lib/./proc/32MX795F512L/processor.o
                                                  /Applications/microchip/mplabc32/v1.11a/bin/../lib/gcc/pic32mx/3.4.4/../../../../pic32mx/lib/libc.a(memcpy.o)
                                                  build/mega/production/startup.o
DCH1DPTR                                          /Applications/microchip/mplabc32/v1.11a/bin/../lib/gcc/pic32mx/3.4.4/../../../../pic32mx/lib/./proc/32MX795F512L/processor.o
                                                  /Applications/microchip/mplabc32/v1.11a/bin/../lib/gcc/pic32mx/3.4.4/../../../../pic32mx/lib/libc.a(memcpy.o)
                                                  build/mega/production/startup.o
DCH1DPTRCLR                                       /Applications/microchip/mplabc32/v1.11a/bin/../lib/gcc/pic32mx/3.4.4/../../../../pic32mx/lib/./proc/32MX795F512L/processor.o
                                                  /Applications/microchip/mplabc32/v1.11a/bin/../lib/gcc/pic32mx/3.4.4/../../../../pic32mx/lib/libc.a(memcpy.o)
                                                  build/mega/production/startup.o
DCH1DPTRINV                                       /Applications/microchip/mplabc32/v1.11a/bin/../lib/gcc/pic32mx/3.4.4/../../../../pic32mx/lib/./proc/32MX795F512L/processor.o
                                                  /Applications/microchip/mplabc32/v1.11a/bin/../lib/gcc/pic32mx/3.4.4/../../../../pic32mx/lib/libc.a(memcpy.o)
                                                  build/mega/production/startup.o
DCH1DPTRSET                                       /Applications/microchip/mplabc32/v1.11a/bin/../lib/gcc/pic32mx/3.4.4/../../../../pic32mx/lib/./proc/32MX795F512L/processor.o
                                                  /Applications/microchip/mplabc32/v1.11a/bin/../lib/gcc/pic32mx/3.4.4/../../../../pic32mx/lib/libc.a(memcpy.o)
                                                  build/mega/production/startup.o
DCH1DSA                                           /Applications/microchip/mplabc32/v1.11a/bin/../lib/gcc/pic32mx/3.4.4/../../../../pic32mx/lib/./proc/32MX795F512L/processor.o
                                                  /Applications/microchip/mplabc32/v1.11a/bin/../lib/gcc/pic32mx/3.4.4/../../../../pic32mx/lib/libc.a(memcpy.o)
                                                  build/mega/production/startup.o
DCH1DSACLR                                        /Applications/microchip/mplabc32/v1.11a/bin/../lib/gcc/pic32mx/3.4.4/../../../../pic32mx/lib/./proc/32MX795F512L/processor.o
                                                  /Applications/microchip/mplabc32/v1.11a/bin/../lib/gcc/pic32mx/3.4.4/../../../../pic32mx/lib/libc.a(memcpy.o)
                                                  build/mega/production/startup.o
DCH1DSAINV                                        /Applications/microchip/mplabc32/v1.11a/bin/../lib/gcc/pic32mx/3.4.4/../../../../pic32mx/lib/./proc/32MX795F512L/processor.o
                                                  /Applications/microchip/mplabc32/v1.11a/bin/../lib/gcc/pic32mx/3.4.4/../../../../pic32mx/lib/libc.a(memcpy.o)
                                                  build/mega/production/startup.o
DCH1DSASET                                        /Applications/microchip/mplabc32/v1.11a/bin/../lib/gcc/pic32mx/3.4.4/../../../../pic32mx/lib/./proc/32MX795F512L/processor.o
                                                  /Applications/microchip/mplabc32/v1.11a/bin/../lib/gcc/pic32mx/3.4.4/../../../../pic32mx/lib/libc.a(memcpy.o)
                                                  build/mega/production/startup.o
DCH1DSIZ                                          /Applications/microchip/mplabc32/v1.11a/bin/../lib/gcc/pic32mx/3.4.4/../../../../pic32mx/lib/./proc/32MX795F512L/processor.o
                                                  /Applications/microchip/mplabc32/v1.11a/bin/../lib/gcc/pic32mx/3.4.4/../../../../pic32mx/lib/libc.a(memcpy.o)
                                                  build/mega/production/startup.o
DCH1DSIZCLR                                       /Applications/microchip/mplabc32/v1.11a/bin/../lib/gcc/pic32mx/3.4.4/../../../../pic32mx/lib/./proc/32MX795F512L/processor.o
                                                  /Applications/microchip/mplabc32/v1.11a/bin/../lib/gcc/pic32mx/3.4.4/../../../../pic32mx/lib/libc.a(memcpy.o)
                                                  build/mega/production/startup.o
DCH1DSIZINV                                       /Applications/microchip/mplabc32/v1.11a/bin/../lib/gcc/pic32mx/3.4.4/../../../../pic32mx/lib/./proc/32MX795F512L/processor.o
                                                  /Applications/microchip/mplabc32/v1.11a/bin/../lib/gcc/pic32mx/3.4.4/../../../../pic32mx/lib/libc.a(memcpy.o)
                                                  build/mega/production/startup.o
DCH1DSIZSET                                       /Applications/microchip/mplabc32/v1.11a/bin/../lib/gcc/pic32mx/3.4.4/../../../../pic32mx/lib/./proc/32MX795F512L/processor.o
                                                  /Applications/microchip/mplabc32/v1.11a/bin/../lib/gcc/pic32mx/3.4.4/../../../../pic32mx/lib/libc.a(memcpy.o)
                                                  build/mega/production/startup.o
DCH1ECON                                          /Applications/microchip/mplabc32/v1.11a/bin/../lib/gcc/pic32mx/3.4.4/../../../../pic32mx/lib/./proc/32MX795F512L/processor.o
                                                  /Applications/microchip/mplabc32/v1.11a/bin/../lib/gcc/pic32mx/3.4.4/../../../../pic32mx/lib/libc.a(memcpy.o)
                                                  build/mega/production/startup.o
DCH1ECONCLR                                       /Applications/microchip/mplabc32/v1.11a/bin/../lib/gcc/pic32mx/3.4.4/../../../../pic32mx/lib/./proc/32MX795F512L/processor.o
                                                  /Applications/microchip/mplabc32/v1.11a/bin/../lib/gcc/pic32mx/3.4.4/../../../../pic32mx/lib/libc.a(memcpy.o)
                                                  build/mega/production/startup.o
DCH1ECONINV                                       /Applications/microchip/mplabc32/v1.11a/bin/../lib/gcc/pic32mx/3.4.4/../../../../pic32mx/lib/./proc/32MX795F512L/processor.o
                                                  /Applications/microchip/mplabc32/v1.11a/bin/../lib/gcc/pic32mx/3.4.4/../../../../pic32mx/lib/libc.a(memcpy.o)
                                                  build/mega/production/startup.o
DCH1ECONSET                                       /Applications/microchip/mplabc32/v1.11a/bin/../lib/gcc/pic32mx/3.4.4/../../../../pic32mx/lib/./proc/32MX795F512L/processor.o
                                                  /Applications/microchip/mplabc32/v1.11a/bin/../lib/gcc/pic32mx/3.4.4/../../../../pic32mx/lib/libc.a(memcpy.o)
                                                  build/mega/production/startup.o
DCH1INT                                           /Applications/microchip/mplabc32/v1.11a/bin/../lib/gcc/pic32mx/3.4.4/../../../../pic32mx/lib/./proc/32MX795F512L/processor.o
                                                  /Applications/microchip/mplabc32/v1.11a/bin/../lib/gcc/pic32mx/3.4.4/../../../../pic32mx/lib/libc.a(memcpy.o)
                                                  build/mega/production/startup.o
DCH1INTCLR                                        /Applications/microchip/mplabc32/v1.11a/bin/../lib/gcc/pic32mx/3.4.4/../../../../pic32mx/lib/./proc/32MX795F512L/processor.o
                                                  /Applications/microchip/mplabc32/v1.11a/bin/../lib/gcc/pic32mx/3.4.4/../../../../pic32mx/lib/libc.a(memcpy.o)
                                                  build/mega/production/startup.o
DCH1INTINV                                        /Applications/microchip/mplabc32/v1.11a/bin/../lib/gcc/pic32mx/3.4.4/../../../../pic32mx/lib/./proc/32MX795F512L/processor.o
                                                  /Applications/microchip/mplabc32/v1.11a/bin/../lib/gcc/pic32mx/3.4.4/../../../../pic32mx/lib/libc.a(memcpy.o)
                                                  build/mega/production/startup.o
DCH1INTSET                                        /Applications/microchip/mplabc32/v1.11a/bin/../lib/gcc/pic32mx/3.4.4/../../../../pic32mx/lib/./proc/32MX795F512L/processor.o
                                                  /Applications/microchip/mplabc32/v1.11a/bin/../lib/gcc/pic32mx/3.4.4/../../../../pic32mx/lib/libc.a(memcpy.o)
                                                  build/mega/production/startup.o
DCH1SPTR                                          /Applications/microchip/mplabc32/v1.11a/bin/../lib/gcc/pic32mx/3.4.4/../../../../pic32mx/lib/./proc/32MX795F512L/processor.o
                                                  /Applications/microchip/mplabc32/v1.11a/bin/../lib/gcc/pic32mx/3.4.4/../../../../pic32mx/lib/libc.a(memcpy.o)
                                                  build/mega/production/startup.o
DCH1SPTRCLR                                       /Applications/microchip/mplabc32/v1.11a/bin/../lib/gcc/pic32mx/3.4.4/../../../../pic32mx/lib/./proc/32MX795F512L/processor.o
                                                  /Applications/microchip/mplabc32/v1.11a/bin/../lib/gcc/pic32mx/3.4.4/../../../../pic32mx/lib/libc.a(memcpy.o)
                                                  build/mega/production/startup.o
DCH1SPTRINV                                       /Applications/microchip/mplabc32/v1.11a/bin/../lib/gcc/pic32mx/3.4.4/../../../../pic32mx/lib/./proc/32MX795F512L/processor.o
                                                  /Applications/microchip/mplabc32/v1.11a/bin/../lib/gcc/pic32mx/3.4.4/../../../../pic32mx/lib/libc.a(memcpy.o)
                                                  build/mega/production/startup.o
DCH1SPTRSET                                       /Applications/microchip/mplabc32/v1.11a/bin/../lib/gcc/pic32mx/3.4.4/../../../../pic32mx/lib/./proc/32MX795F512L/processor.o
                                                  /Applications/microchip/mplabc32/v1.11a/bin/../lib/gcc/pic32mx/3.4.4/../../../../pic32mx/lib/libc.a(memcpy.o)
                                                  build/mega/production/startup.o
DCH1SSA                                           /Applications/microchip/mplabc32/v1.11a/bin/../lib/gcc/pic32mx/3.4.4/../../../../pic32mx/lib/./proc/32MX795F512L/processor.o
                                                  /Applications/microchip/mplabc32/v1.11a/bin/../lib/gcc/pic32mx/3.4.4/../../../../pic32mx/lib/libc.a(memcpy.o)
                                                  build/mega/production/startup.o
DCH1SSACLR                                        /Applications/microchip/mplabc32/v1.11a/bin/../lib/gcc/pic32mx/3.4.4/../../../../pic32mx/lib/./proc/32MX795F512L/processor.o
                                                  /Applications/microchip/mplabc32/v1.11a/bin/../lib/gcc/pic32mx/3.4.4/../../../../pic32mx/lib/libc.a(memcpy.o)
                                                  build/mega/production/startup.o
DCH1SSAINV                                        /Applications/microchip/mplabc32/v1.11a/bin/../lib/gcc/pic32mx/3.4.4/../../../../pic32mx/lib/./proc/32MX795F512L/processor.o
                                                  /Applications/microchip/mplabc32/v1.11a/bin/../lib/gcc/pic32mx/3.4.4/../../../../pic32mx/lib/libc.a(memcpy.o)
                                                  build/mega/production/startup.o
DCH1SSASET                                        /Applications/microchip/mplabc32/v1.11a/bin/../lib/gcc/pic32mx/3.4.4/../../../../pic32mx/lib/./proc/32MX795F512L/processor.o
                                                  /Applications/microchip/mplabc32/v1.11a/bin/../lib/gcc/pic32mx/3.4.4/../../../../pic32mx/lib/libc.a(memcpy.o)
                                                  build/mega/production/startup.o
DCH1SSIZ                                          /Applications/microchip/mplabc32/v1.11a/bin/../lib/gcc/pic32mx/3.4.4/../../../../pic32mx/lib/./proc/32MX795F512L/processor.o
                                                  /Applications/microchip/mplabc32/v1.11a/bin/../lib/gcc/pic32mx/3.4.4/../../../../pic32mx/lib/libc.a(memcpy.o)
                                                  build/mega/production/startup.o
DCH1SSIZCLR                                       /Applications/microchip/mplabc32/v1.11a/bin/../lib/gcc/pic32mx/3.4.4/../../../../pic32mx/lib/./proc/32MX795F512L/processor.o
                                                  /Applications/microchip/mplabc32/v1.11a/bin/../lib/gcc/pic32mx/3.4.4/../../../../pic32mx/lib/libc.a(memcpy.o)
                                                  build/mega/production/startup.o
DCH1SSIZINV                                       /Applications/microchip/mplabc32/v1.11a/bin/../lib/gcc/pic32mx/3.4.4/../../../../pic32mx/lib/./proc/32MX795F512L/processor.o
                                                  /Applications/microchip/mplabc32/v1.11a/bin/../lib/gcc/pic32mx/3.4.4/../../../../pic32mx/lib/libc.a(memcpy.o)
                                                  build/mega/production/startup.o
DCH1SSIZSET                                       /Applications/microchip/mplabc32/v1.11a/bin/../lib/gcc/pic32mx/3.4.4/../../../../pic32mx/lib/./proc/32MX795F512L/processor.o
                                                  /Applications/microchip/mplabc32/v1.11a/bin/../lib/gcc/pic32mx/3.4.4/../../../../pic32mx/lib/libc.a(memcpy.o)
                                                  build/mega/production/startup.o
DCH2CON                                           /Applications/microchip/mplabc32/v1.11a/bin/../lib/gcc/pic32mx/3.4.4/../../../../pic32mx/lib/./proc/32MX795F512L/processor.o
                                                  /Applications/microchip/mplabc32/v1.11a/bin/../lib/gcc/pic32mx/3.4.4/../../../../pic32mx/lib/libc.a(memcpy.o)
                                                  build/mega/production/startup.o
DCH2CONCLR                                        /Applications/microchip/mplabc32/v1.11a/bin/../lib/gcc/pic32mx/3.4.4/../../../../pic32mx/lib/./proc/32MX795F512L/processor.o
                                                  /Applications/microchip/mplabc32/v1.11a/bin/../lib/gcc/pic32mx/3.4.4/../../../../pic32mx/lib/libc.a(memcpy.o)
                                                  build/mega/production/startup.o
DCH2CONINV                                        /Applications/microchip/mplabc32/v1.11a/bin/../lib/gcc/pic32mx/3.4.4/../../../../pic32mx/lib/./proc/32MX795F512L/processor.o
                                                  /Applications/microchip/mplabc32/v1.11a/bin/../lib/gcc/pic32mx/3.4.4/../../../../pic32mx/lib/libc.a(memcpy.o)
                                                  build/mega/production/startup.o
DCH2CONSET                                        /Applications/microchip/mplabc32/v1.11a/bin/../lib/gcc/pic32mx/3.4.4/../../../../pic32mx/lib/./proc/32MX795F512L/processor.o
                                                  /Applications/microchip/mplabc32/v1.11a/bin/../lib/gcc/pic32mx/3.4.4/../../../../pic32mx/lib/libc.a(memcpy.o)
                                                  build/mega/production/startup.o
DCH2CPTR                                          /Applications/microchip/mplabc32/v1.11a/bin/../lib/gcc/pic32mx/3.4.4/../../../../pic32mx/lib/./proc/32MX795F512L/processor.o
                                                  /Applications/microchip/mplabc32/v1.11a/bin/../lib/gcc/pic32mx/3.4.4/../../../../pic32mx/lib/libc.a(memcpy.o)
                                                  build/mega/production/startup.o
DCH2CPTRCLR                                       /Applications/microchip/mplabc32/v1.11a/bin/../lib/gcc/pic32mx/3.4.4/../../../../pic32mx/lib/./proc/32MX795F512L/processor.o
                                                  /Applications/microchip/mplabc32/v1.11a/bin/../lib/gcc/pic32mx/3.4.4/../../../../pic32mx/lib/libc.a(memcpy.o)
                                                  build/mega/production/startup.o
DCH2CPTRINV                                       /Applications/microchip/mplabc32/v1.11a/bin/../lib/gcc/pic32mx/3.4.4/../../../../pic32mx/lib/./proc/32MX795F512L/processor.o
                                                  /Applications/microchip/mplabc32/v1.11a/bin/../lib/gcc/pic32mx/3.4.4/../../../../pic32mx/lib/libc.a(memcpy.o)
                                                  build/mega/production/startup.o
DCH2CPTRSET                                       /Applications/microchip/mplabc32/v1.11a/bin/../lib/gcc/pic32mx/3.4.4/../../../../pic32mx/lib/./proc/32MX795F512L/processor.o
                                                  /Applications/microchip/mplabc32/v1.11a/bin/../lib/gcc/pic32mx/3.4.4/../../../../pic32mx/lib/libc.a(memcpy.o)
                                                  build/mega/production/startup.o
DCH2CSIZ                                          /Applications/microchip/mplabc32/v1.11a/bin/../lib/gcc/pic32mx/3.4.4/../../../../pic32mx/lib/./proc/32MX795F512L/processor.o
                                                  /Applications/microchip/mplabc32/v1.11a/bin/../lib/gcc/pic32mx/3.4.4/../../../../pic32mx/lib/libc.a(memcpy.o)
                                                  build/mega/production/startup.o
DCH2CSIZCLR                                       /Applications/microchip/mplabc32/v1.11a/bin/../lib/gcc/pic32mx/3.4.4/../../../../pic32mx/lib/./proc/32MX795F512L/processor.o
                                                  /Applications/microchip/mplabc32/v1.11a/bin/../lib/gcc/pic32mx/3.4.4/../../../../pic32mx/lib/libc.a(memcpy.o)
                                                  build/mega/production/startup.o
DCH2CSIZINV                                       /Applications/microchip/mplabc32/v1.11a/bin/../lib/gcc/pic32mx/3.4.4/../../../../pic32mx/lib/./proc/32MX795F512L/processor.o
                                                  /Applications/microchip/mplabc32/v1.11a/bin/../lib/gcc/pic32mx/3.4.4/../../../../pic32mx/lib/libc.a(memcpy.o)
                                                  build/mega/production/startup.o
DCH2CSIZSET                                       /Applications/microchip/mplabc32/v1.11a/bin/../lib/gcc/pic32mx/3.4.4/../../../../pic32mx/lib/./proc/32MX795F512L/processor.o
                                                  /Applications/microchip/mplabc32/v1.11a/bin/../lib/gcc/pic32mx/3.4.4/../../../../pic32mx/lib/libc.a(memcpy.o)
                                                  build/mega/production/startup.o
DCH2DAT                                           /Applications/microchip/mplabc32/v1.11a/bin/../lib/gcc/pic32mx/3.4.4/../../../../pic32mx/lib/./proc/32MX795F512L/processor.o
                                                  /Applications/microchip/mplabc32/v1.11a/bin/../lib/gcc/pic32mx/3.4.4/../../../../pic32mx/lib/libc.a(memcpy.o)
                                                  build/mega/production/startup.o
DCH2DATCLR                                        /Applications/microchip/mplabc32/v1.11a/bin/../lib/gcc/pic32mx/3.4.4/../../../../pic32mx/lib/./proc/32MX795F512L/processor.o
                                                  /Applications/microchip/mplabc32/v1.11a/bin/../lib/gcc/pic32mx/3.4.4/../../../../pic32mx/lib/libc.a(memcpy.o)
                                                  build/mega/production/startup.o
DCH2DATINV                                        /Applications/microchip/mplabc32/v1.11a/bin/../lib/gcc/pic32mx/3.4.4/../../../../pic32mx/lib/./proc/32MX795F512L/processor.o
                                                  /Applications/microchip/mplabc32/v1.11a/bin/../lib/gcc/pic32mx/3.4.4/../../../../pic32mx/lib/libc.a(memcpy.o)
                                                  build/mega/production/startup.o
DCH2DATSET                                        /Applications/microchip/mplabc32/v1.11a/bin/../lib/gcc/pic32mx/3.4.4/../../../../pic32mx/lib/./proc/32MX795F512L/processor.o
                                                  /Applications/microchip/mplabc32/v1.11a/bin/../lib/gcc/pic32mx/3.4.4/../../../../pic32mx/lib/libc.a(memcpy.o)
                                                  build/mega/production/startup.o
DCH2DPTR                                          /Applications/microchip/mplabc32/v1.11a/bin/../lib/gcc/pic32mx/3.4.4/../../../../pic32mx/lib/./proc/32MX795F512L/processor.o
                                                  /Applications/microchip/mplabc32/v1.11a/bin/../lib/gcc/pic32mx/3.4.4/../../../../pic32mx/lib/libc.a(memcpy.o)
                                                  build/mega/production/startup.o
DCH2DPTRCLR                                       /Applications/microchip/mplabc32/v1.11a/bin/../lib/gcc/pic32mx/3.4.4/../../../../pic32mx/lib/./proc/32MX795F512L/processor.o
                                                  /Applications/microchip/mplabc32/v1.11a/bin/../lib/gcc/pic32mx/3.4.4/../../../../pic32mx/lib/libc.a(memcpy.o)
                                                  build/mega/production/startup.o
DCH2DPTRINV                                       /Applications/microchip/mplabc32/v1.11a/bin/../lib/gcc/pic32mx/3.4.4/../../../../pic32mx/lib/./proc/32MX795F512L/processor.o
                                                  /Applications/microchip/mplabc32/v1.11a/bin/../lib/gcc/pic32mx/3.4.4/../../../../pic32mx/lib/libc.a(memcpy.o)
                                                  build/mega/production/startup.o
DCH2DPTRSET                                       /Applications/microchip/mplabc32/v1.11a/bin/../lib/gcc/pic32mx/3.4.4/../../../../pic32mx/lib/./proc/32MX795F512L/processor.o
                                                  /Applications/microchip/mplabc32/v1.11a/bin/../lib/gcc/pic32mx/3.4.4/../../../../pic32mx/lib/libc.a(memcpy.o)
                                                  build/mega/production/startup.o
DCH2DSA                                           /Applications/microchip/mplabc32/v1.11a/bin/../lib/gcc/pic32mx/3.4.4/../../../../pic32mx/lib/./proc/32MX795F512L/processor.o
                                                  /Applications/microchip/mplabc32/v1.11a/bin/../lib/gcc/pic32mx/3.4.4/../../../../pic32mx/lib/libc.a(memcpy.o)
                                                  build/mega/production/startup.o
DCH2DSACLR                                        /Applications/microchip/mplabc32/v1.11a/bin/../lib/gcc/pic32mx/3.4.4/../../../../pic32mx/lib/./proc/32MX795F512L/processor.o
                                                  /Applications/microchip/mplabc32/v1.11a/bin/../lib/gcc/pic32mx/3.4.4/../../../../pic32mx/lib/libc.a(memcpy.o)
                                                  build/mega/production/startup.o
DCH2DSAINV                                        /Applications/microchip/mplabc32/v1.11a/bin/../lib/gcc/pic32mx/3.4.4/../../../../pic32mx/lib/./proc/32MX795F512L/processor.o
                                                  /Applications/microchip/mplabc32/v1.11a/bin/../lib/gcc/pic32mx/3.4.4/../../../../pic32mx/lib/libc.a(memcpy.o)
                                                  build/mega/production/startup.o
DCH2DSASET                                        /Applications/microchip/mplabc32/v1.11a/bin/../lib/gcc/pic32mx/3.4.4/../../../../pic32mx/lib/./proc/32MX795F512L/processor.o
                                                  /Applications/microchip/mplabc32/v1.11a/bin/../lib/gcc/pic32mx/3.4.4/../../../../pic32mx/lib/libc.a(memcpy.o)
                                                  build/mega/production/startup.o
DCH2DSIZ                                          /Applications/microchip/mplabc32/v1.11a/bin/../lib/gcc/pic32mx/3.4.4/../../../../pic32mx/lib/./proc/32MX795F512L/processor.o
                                                  /Applications/microchip/mplabc32/v1.11a/bin/../lib/gcc/pic32mx/3.4.4/../../../../pic32mx/lib/libc.a(memcpy.o)
                                                  build/mega/production/startup.o
DCH2DSIZCLR                                       /Applications/microchip/mplabc32/v1.11a/bin/../lib/gcc/pic32mx/3.4.4/../../../../pic32mx/lib/./proc/32MX795F512L/processor.o
                                                  /Applications/microchip/mplabc32/v1.11a/bin/../lib/gcc/pic32mx/3.4.4/../../../../pic32mx/lib/libc.a(memcpy.o)
                                                  build/mega/production/startup.o
DCH2DSIZINV                                       /Applications/microchip/mplabc32/v1.11a/bin/../lib/gcc/pic32mx/3.4.4/../../../../pic32mx/lib/./proc/32MX795F512L/processor.o
                                                  /Applications/microchip/mplabc32/v1.11a/bin/../lib/gcc/pic32mx/3.4.4/../../../../pic32mx/lib/libc.a(memcpy.o)
                                                  build/mega/production/startup.o
DCH2DSIZSET                                       /Applications/microchip/mplabc32/v1.11a/bin/../lib/gcc/pic32mx/3.4.4/../../../../pic32mx/lib/./proc/32MX795F512L/processor.o
                                                  /Applications/microchip/mplabc32/v1.11a/bin/../lib/gcc/pic32mx/3.4.4/../../../../pic32mx/lib/libc.a(memcpy.o)
                                                  build/mega/production/startup.o
DCH2ECON                                          /Applications/microchip/mplabc32/v1.11a/bin/../lib/gcc/pic32mx/3.4.4/../../../../pic32mx/lib/./proc/32MX795F512L/processor.o
                                                  /Applications/microchip/mplabc32/v1.11a/bin/../lib/gcc/pic32mx/3.4.4/../../../../pic32mx/lib/libc.a(memcpy.o)
                                                  build/mega/production/startup.o
DCH2ECONCLR                                       /Applications/microchip/mplabc32/v1.11a/bin/../lib/gcc/pic32mx/3.4.4/../../../../pic32mx/lib/./proc/32MX795F512L/processor.o
                                                  /Applications/microchip/mplabc32/v1.11a/bin/../lib/gcc/pic32mx/3.4.4/../../../../pic32mx/lib/libc.a(memcpy.o)
                                                  build/mega/production/startup.o
DCH2ECONINV                                       /Applications/microchip/mplabc32/v1.11a/bin/../lib/gcc/pic32mx/3.4.4/../../../../pic32mx/lib/./proc/32MX795F512L/processor.o
                                                  /Applications/microchip/mplabc32/v1.11a/bin/../lib/gcc/pic32mx/3.4.4/../../../../pic32mx/lib/libc.a(memcpy.o)
                                                  build/mega/production/startup.o
DCH2ECONSET                                       /Applications/microchip/mplabc32/v1.11a/bin/../lib/gcc/pic32mx/3.4.4/../../../../pic32mx/lib/./proc/32MX795F512L/processor.o
                                                  /Applications/microchip/mplabc32/v1.11a/bin/../lib/gcc/pic32mx/3.4.4/../../../../pic32mx/lib/libc.a(memcpy.o)
                                                  build/mega/production/startup.o
DCH2INT                                           /Applications/microchip/mplabc32/v1.11a/bin/../lib/gcc/pic32mx/3.4.4/../../../../pic32mx/lib/./proc/32MX795F512L/processor.o
                                                  /Applications/microchip/mplabc32/v1.11a/bin/../lib/gcc/pic32mx/3.4.4/../../../../pic32mx/lib/libc.a(memcpy.o)
                                                  build/mega/production/startup.o
DCH2INTCLR                                        /Applications/microchip/mplabc32/v1.11a/bin/../lib/gcc/pic32mx/3.4.4/../../../../pic32mx/lib/./proc/32MX795F512L/processor.o
                                                  /Applications/microchip/mplabc32/v1.11a/bin/../lib/gcc/pic32mx/3.4.4/../../../../pic32mx/lib/libc.a(memcpy.o)
                                                  build/mega/production/startup.o
DCH2INTINV                                        /Applications/microchip/mplabc32/v1.11a/bin/../lib/gcc/pic32mx/3.4.4/../../../../pic32mx/lib/./proc/32MX795F512L/processor.o
                                                  /Applications/microchip/mplabc32/v1.11a/bin/../lib/gcc/pic32mx/3.4.4/../../../../pic32mx/lib/libc.a(memcpy.o)
                                                  build/mega/production/startup.o
DCH2INTSET                                        /Applications/microchip/mplabc32/v1.11a/bin/../lib/gcc/pic32mx/3.4.4/../../../../pic32mx/lib/./proc/32MX795F512L/processor.o
                                                  /Applications/microchip/mplabc32/v1.11a/bin/../lib/gcc/pic32mx/3.4.4/../../../../pic32mx/lib/libc.a(memcpy.o)
                                                  build/mega/production/startup.o
DCH2SPTR                                          /Applications/microchip/mplabc32/v1.11a/bin/../lib/gcc/pic32mx/3.4.4/../../../../pic32mx/lib/./proc/32MX795F512L/processor.o
                                                  /Applications/microchip/mplabc32/v1.11a/bin/../lib/gcc/pic32mx/3.4.4/../../../../pic32mx/lib/libc.a(memcpy.o)
                                                  build/mega/production/startup.o
DCH2SPTRCLR                                       /Applications/microchip/mplabc32/v1.11a/bin/../lib/gcc/pic32mx/3.4.4/../../../../pic32mx/lib/./proc/32MX795F512L/processor.o
                                                  /Applications/microchip/mplabc32/v1.11a/bin/../lib/gcc/pic32mx/3.4.4/../../../../pic32mx/lib/libc.a(memcpy.o)
                                                  build/mega/production/startup.o
DCH2SPTRINV                                       /Applications/microchip/mplabc32/v1.11a/bin/../lib/gcc/pic32mx/3.4.4/../../../../pic32mx/lib/./proc/32MX795F512L/processor.o
                                                  /Applications/microchip/mplabc32/v1.11a/bin/../lib/gcc/pic32mx/3.4.4/../../../../pic32mx/lib/libc.a(memcpy.o)
                                                  build/mega/production/startup.o
DCH2SPTRSET                                       /Applications/microchip/mplabc32/v1.11a/bin/../lib/gcc/pic32mx/3.4.4/../../../../pic32mx/lib/./proc/32MX795F512L/processor.o
                                                  /Applications/microchip/mplabc32/v1.11a/bin/../lib/gcc/pic32mx/3.4.4/../../../../pic32mx/lib/libc.a(memcpy.o)
                                                  build/mega/production/startup.o
DCH2SSA                                           /Applications/microchip/mplabc32/v1.11a/bin/../lib/gcc/pic32mx/3.4.4/../../../../pic32mx/lib/./proc/32MX795F512L/processor.o
                                                  /Applications/microchip/mplabc32/v1.11a/bin/../lib/gcc/pic32mx/3.4.4/../../../../pic32mx/lib/libc.a(memcpy.o)
                                                  build/mega/production/startup.o
DCH2SSACLR                                        /Applications/microchip/mplabc32/v1.11a/bin/../lib/gcc/pic32mx/3.4.4/../../../../pic32mx/lib/./proc/32MX795F512L/processor.o
                                                  /Applications/microchip/mplabc32/v1.11a/bin/../lib/gcc/pic32mx/3.4.4/../../../../pic32mx/lib/libc.a(memcpy.o)
                                                  build/mega/production/startup.o
DCH2SSAINV                                        /Applications/microchip/mplabc32/v1.11a/bin/../lib/gcc/pic32mx/3.4.4/../../../../pic32mx/lib/./proc/32MX795F512L/processor.o
                                                  /Applications/microchip/mplabc32/v1.11a/bin/../lib/gcc/pic32mx/3.4.4/../../../../pic32mx/lib/libc.a(memcpy.o)
                                                  build/mega/production/startup.o
DCH2SSASET                                        /Applications/microchip/mplabc32/v1.11a/bin/../lib/gcc/pic32mx/3.4.4/../../../../pic32mx/lib/./proc/32MX795F512L/processor.o
                                                  /Applications/microchip/mplabc32/v1.11a/bin/../lib/gcc/pic32mx/3.4.4/../../../../pic32mx/lib/libc.a(memcpy.o)
                                                  build/mega/production/startup.o
DCH2SSIZ                                          /Applications/microchip/mplabc32/v1.11a/bin/../lib/gcc/pic32mx/3.4.4/../../../../pic32mx/lib/./proc/32MX795F512L/processor.o
                                                  /Applications/microchip/mplabc32/v1.11a/bin/../lib/gcc/pic32mx/3.4.4/../../../../pic32mx/lib/libc.a(memcpy.o)
                                                  build/mega/production/startup.o
DCH2SSIZCLR                                       /Applications/microchip/mplabc32/v1.11a/bin/../lib/gcc/pic32mx/3.4.4/../../../../pic32mx/lib/./proc/32MX795F512L/processor.o
                                                  /Applications/microchip/mplabc32/v1.11a/bin/../lib/gcc/pic32mx/3.4.4/../../../../pic32mx/lib/libc.a(memcpy.o)
                                                  build/mega/production/startup.o
DCH2SSIZINV                                       /Applications/microchip/mplabc32/v1.11a/bin/../lib/gcc/pic32mx/3.4.4/../../../../pic32mx/lib/./proc/32MX795F512L/processor.o
                                                  /Applications/microchip/mplabc32/v1.11a/bin/../lib/gcc/pic32mx/3.4.4/../../../../pic32mx/lib/libc.a(memcpy.o)
                                                  build/mega/production/startup.o
DCH2SSIZSET                                       /Applications/microchip/mplabc32/v1.11a/bin/../lib/gcc/pic32mx/3.4.4/../../../../pic32mx/lib/./proc/32MX795F512L/processor.o
                                                  /Applications/microchip/mplabc32/v1.11a/bin/../lib/gcc/pic32mx/3.4.4/../../../../pic32mx/lib/libc.a(memcpy.o)
                                                  build/mega/production/startup.o
DCH3CON                                           /Applications/microchip/mplabc32/v1.11a/bin/../lib/gcc/pic32mx/3.4.4/../../../../pic32mx/lib/./proc/32MX795F512L/processor.o
                                                  /Applications/microchip/mplabc32/v1.11a/bin/../lib/gcc/pic32mx/3.4.4/../../../../pic32mx/lib/libc.a(memcpy.o)
                                                  build/mega/production/startup.o
DCH3CONCLR                                        /Applications/microchip/mplabc32/v1.11a/bin/../lib/gcc/pic32mx/3.4.4/../../../../pic32mx/lib/./proc/32MX795F512L/processor.o
                                                  /Applications/microchip/mplabc32/v1.11a/bin/../lib/gcc/pic32mx/3.4.4/../../../../pic32mx/lib/libc.a(memcpy.o)
                                                  build/mega/production/startup.o
DCH3CONINV                                        /Applications/microchip/mplabc32/v1.11a/bin/../lib/gcc/pic32mx/3.4.4/../../../../pic32mx/lib/./proc/32MX795F512L/processor.o
                                                  /Applications/microchip/mplabc32/v1.11a/bin/../lib/gcc/pic32mx/3.4.4/../../../../pic32mx/lib/libc.a(memcpy.o)
                                                  build/mega/production/startup.o
DCH3CONSET                                        /Applications/microchip/mplabc32/v1.11a/bin/../lib/gcc/pic32mx/3.4.4/../../../../pic32mx/lib/./proc/32MX795F512L/processor.o
                                                  /Applications/microchip/mplabc32/v1.11a/bin/../lib/gcc/pic32mx/3.4.4/../../../../pic32mx/lib/libc.a(memcpy.o)
                                                  build/mega/production/startup.o
DCH3CPTR                                          /Applications/microchip/mplabc32/v1.11a/bin/../lib/gcc/pic32mx/3.4.4/../../../../pic32mx/lib/./proc/32MX795F512L/processor.o
                                                  /Applications/microchip/mplabc32/v1.11a/bin/../lib/gcc/pic32mx/3.4.4/../../../../pic32mx/lib/libc.a(memcpy.o)
                                                  build/mega/production/startup.o
DCH3CPTRCLR                                       /Applications/microchip/mplabc32/v1.11a/bin/../lib/gcc/pic32mx/3.4.4/../../../../pic32mx/lib/./proc/32MX795F512L/processor.o
                                                  /Applications/microchip/mplabc32/v1.11a/bin/../lib/gcc/pic32mx/3.4.4/../../../../pic32mx/lib/libc.a(memcpy.o)
                                                  build/mega/production/startup.o
DCH3CPTRINV                                       /Applications/microchip/mplabc32/v1.11a/bin/../lib/gcc/pic32mx/3.4.4/../../../../pic32mx/lib/./proc/32MX795F512L/processor.o
                                                  /Applications/microchip/mplabc32/v1.11a/bin/../lib/gcc/pic32mx/3.4.4/../../../../pic32mx/lib/libc.a(memcpy.o)
                                                  build/mega/production/startup.o
DCH3CPTRSET                                       /Applications/microchip/mplabc32/v1.11a/bin/../lib/gcc/pic32mx/3.4.4/../../../../pic32mx/lib/./proc/32MX795F512L/processor.o
                                                  /Applications/microchip/mplabc32/v1.11a/bin/../lib/gcc/pic32mx/3.4.4/../../../../pic32mx/lib/libc.a(memcpy.o)
                                                  build/mega/production/startup.o
DCH3CSIZ                                          /Applications/microchip/mplabc32/v1.11a/bin/../lib/gcc/pic32mx/3.4.4/../../../../pic32mx/lib/./proc/32MX795F512L/processor.o
                                                  /Applications/microchip/mplabc32/v1.11a/bin/../lib/gcc/pic32mx/3.4.4/../../../../pic32mx/lib/libc.a(memcpy.o)
                                                  build/mega/production/startup.o
DCH3CSIZCLR                                       /Applications/microchip/mplabc32/v1.11a/bin/../lib/gcc/pic32mx/3.4.4/../../../../pic32mx/lib/./proc/32MX795F512L/processor.o
                                                  /Applications/microchip/mplabc32/v1.11a/bin/../lib/gcc/pic32mx/3.4.4/../../../../pic32mx/lib/libc.a(memcpy.o)
                                                  build/mega/production/startup.o
DCH3CSIZINV                                       /Applications/microchip/mplabc32/v1.11a/bin/../lib/gcc/pic32mx/3.4.4/../../../../pic32mx/lib/./proc/32MX795F512L/processor.o
                                                  /Applications/microchip/mplabc32/v1.11a/bin/../lib/gcc/pic32mx/3.4.4/../../../../pic32mx/lib/libc.a(memcpy.o)
                                                  build/mega/production/startup.o
DCH3CSIZSET                                       /Applications/microchip/mplabc32/v1.11a/bin/../lib/gcc/pic32mx/3.4.4/../../../../pic32mx/lib/./proc/32MX795F512L/processor.o
                                                  /Applications/microchip/mplabc32/v1.11a/bin/../lib/gcc/pic32mx/3.4.4/../../../../pic32mx/lib/libc.a(memcpy.o)
                                                  build/mega/production/startup.o
DCH3DAT                                           /Applications/microchip/mplabc32/v1.11a/bin/../lib/gcc/pic32mx/3.4.4/../../../../pic32mx/lib/./proc/32MX795F512L/processor.o
                                                  /Applications/microchip/mplabc32/v1.11a/bin/../lib/gcc/pic32mx/3.4.4/../../../../pic32mx/lib/libc.a(memcpy.o)
                                                  build/mega/production/startup.o
DCH3DATCLR                                        /Applications/microchip/mplabc32/v1.11a/bin/../lib/gcc/pic32mx/3.4.4/../../../../pic32mx/lib/./proc/32MX795F512L/processor.o
                                                  /Applications/microchip/mplabc32/v1.11a/bin/../lib/gcc/pic32mx/3.4.4/../../../../pic32mx/lib/libc.a(memcpy.o)
                                                  build/mega/production/startup.o
DCH3DATINV                                        /Applications/microchip/mplabc32/v1.11a/bin/../lib/gcc/pic32mx/3.4.4/../../../../pic32mx/lib/./proc/32MX795F512L/processor.o
                                                  /Applications/microchip/mplabc32/v1.11a/bin/../lib/gcc/pic32mx/3.4.4/../../../../pic32mx/lib/libc.a(memcpy.o)
                                                  build/mega/production/startup.o
DCH3DATSET                                        /Applications/microchip/mplabc32/v1.11a/bin/../lib/gcc/pic32mx/3.4.4/../../../../pic32mx/lib/./proc/32MX795F512L/processor.o
                                                  /Applications/microchip/mplabc32/v1.11a/bin/../lib/gcc/pic32mx/3.4.4/../../../../pic32mx/lib/libc.a(memcpy.o)
                                                  build/mega/production/startup.o
DCH3DPTR                                          /Applications/microchip/mplabc32/v1.11a/bin/../lib/gcc/pic32mx/3.4.4/../../../../pic32mx/lib/./proc/32MX795F512L/processor.o
                                                  /Applications/microchip/mplabc32/v1.11a/bin/../lib/gcc/pic32mx/3.4.4/../../../../pic32mx/lib/libc.a(memcpy.o)
                                                  build/mega/production/startup.o
DCH3DPTRCLR                                       /Applications/microchip/mplabc32/v1.11a/bin/../lib/gcc/pic32mx/3.4.4/../../../../pic32mx/lib/./proc/32MX795F512L/processor.o
                                                  /Applications/microchip/mplabc32/v1.11a/bin/../lib/gcc/pic32mx/3.4.4/../../../../pic32mx/lib/libc.a(memcpy.o)
                                                  build/mega/production/startup.o
DCH3DPTRINV                                       /Applications/microchip/mplabc32/v1.11a/bin/../lib/gcc/pic32mx/3.4.4/../../../../pic32mx/lib/./proc/32MX795F512L/processor.o
                                                  /Applications/microchip/mplabc32/v1.11a/bin/../lib/gcc/pic32mx/3.4.4/../../../../pic32mx/lib/libc.a(memcpy.o)
                                                  build/mega/production/startup.o
DCH3DPTRSET                                       /Applications/microchip/mplabc32/v1.11a/bin/../lib/gcc/pic32mx/3.4.4/../../../../pic32mx/lib/./proc/32MX795F512L/processor.o
                                                  /Applications/microchip/mplabc32/v1.11a/bin/../lib/gcc/pic32mx/3.4.4/../../../../pic32mx/lib/libc.a(memcpy.o)
                                                  build/mega/production/startup.o
DCH3DSA                                           /Applications/microchip/mplabc32/v1.11a/bin/../lib/gcc/pic32mx/3.4.4/../../../../pic32mx/lib/./proc/32MX795F512L/processor.o
                                                  /Applications/microchip/mplabc32/v1.11a/bin/../lib/gcc/pic32mx/3.4.4/../../../../pic32mx/lib/libc.a(memcpy.o)
                                                  build/mega/production/startup.o
DCH3DSACLR                                        /Applications/microchip/mplabc32/v1.11a/bin/../lib/gcc/pic32mx/3.4.4/../../../../pic32mx/lib/./proc/32MX795F512L/processor.o
                                                  /Applications/microchip/mplabc32/v1.11a/bin/../lib/gcc/pic32mx/3.4.4/../../../../pic32mx/lib/libc.a(memcpy.o)
                                                  build/mega/production/startup.o
DCH3DSAINV                                        /Applications/microchip/mplabc32/v1.11a/bin/../lib/gcc/pic32mx/3.4.4/../../../../pic32mx/lib/./proc/32MX795F512L/processor.o
                                                  /Applications/microchip/mplabc32/v1.11a/bin/../lib/gcc/pic32mx/3.4.4/../../../../pic32mx/lib/libc.a(memcpy.o)
                                                  build/mega/production/startup.o
DCH3DSASET                                        /Applications/microchip/mplabc32/v1.11a/bin/../lib/gcc/pic32mx/3.4.4/../../../../pic32mx/lib/./proc/32MX795F512L/processor.o
                                                  /Applications/microchip/mplabc32/v1.11a/bin/../lib/gcc/pic32mx/3.4.4/../../../../pic32mx/lib/libc.a(memcpy.o)
                                                  build/mega/production/startup.o
DCH3DSIZ                                          /Applications/microchip/mplabc32/v1.11a/bin/../lib/gcc/pic32mx/3.4.4/../../../../pic32mx/lib/./proc/32MX795F512L/processor.o
                                                  /Applications/microchip/mplabc32/v1.11a/bin/../lib/gcc/pic32mx/3.4.4/../../../../pic32mx/lib/libc.a(memcpy.o)
                                                  build/mega/production/startup.o
DCH3DSIZCLR                                       /Applications/microchip/mplabc32/v1.11a/bin/../lib/gcc/pic32mx/3.4.4/../../../../pic32mx/lib/./proc/32MX795F512L/processor.o
                                                  /Applications/microchip/mplabc32/v1.11a/bin/../lib/gcc/pic32mx/3.4.4/../../../../pic32mx/lib/libc.a(memcpy.o)
                                                  build/mega/production/startup.o
DCH3DSIZINV                                       /Applications/microchip/mplabc32/v1.11a/bin/../lib/gcc/pic32mx/3.4.4/../../../../pic32mx/lib/./proc/32MX795F512L/processor.o
                                                  /Applications/microchip/mplabc32/v1.11a/bin/../lib/gcc/pic32mx/3.4.4/../../../../pic32mx/lib/libc.a(memcpy.o)
                                                  build/mega/production/startup.o
DCH3DSIZSET                                       /Applications/microchip/mplabc32/v1.11a/bin/../lib/gcc/pic32mx/3.4.4/../../../../pic32mx/lib/./proc/32MX795F512L/processor.o
                                                  /Applications/microchip/mplabc32/v1.11a/bin/../lib/gcc/pic32mx/3.4.4/../../../../pic32mx/lib/libc.a(memcpy.o)
                                                  build/mega/production/startup.o
DCH3ECON                                          /Applications/microchip/mplabc32/v1.11a/bin/../lib/gcc/pic32mx/3.4.4/../../../../pic32mx/lib/./proc/32MX795F512L/processor.o
                                                  /Applications/microchip/mplabc32/v1.11a/bin/../lib/gcc/pic32mx/3.4.4/../../../../pic32mx/lib/libc.a(memcpy.o)
                                                  build/mega/production/startup.o
DCH3ECONCLR                                       /Applications/microchip/mplabc32/v1.11a/bin/../lib/gcc/pic32mx/3.4.4/../../../../pic32mx/lib/./proc/32MX795F512L/processor.o
                                                  /Applications/microchip/mplabc32/v1.11a/bin/../lib/gcc/pic32mx/3.4.4/../../../../pic32mx/lib/libc.a(memcpy.o)
                                                  build/mega/production/startup.o
DCH3ECONINV                                       /Applications/microchip/mplabc32/v1.11a/bin/../lib/gcc/pic32mx/3.4.4/../../../../pic32mx/lib/./proc/32MX795F512L/processor.o
                                                  /Applications/microchip/mplabc32/v1.11a/bin/../lib/gcc/pic32mx/3.4.4/../../../../pic32mx/lib/libc.a(memcpy.o)
                                                  build/mega/production/startup.o
DCH3ECONSET                                       /Applications/microchip/mplabc32/v1.11a/bin/../lib/gcc/pic32mx/3.4.4/../../../../pic32mx/lib/./proc/32MX795F512L/processor.o
                                                  /Applications/microchip/mplabc32/v1.11a/bin/../lib/gcc/pic32mx/3.4.4/../../../../pic32mx/lib/libc.a(memcpy.o)
                                                  build/mega/production/startup.o
DCH3INT                                           /Applications/microchip/mplabc32/v1.11a/bin/../lib/gcc/pic32mx/3.4.4/../../../../pic32mx/lib/./proc/32MX795F512L/processor.o
                                                  /Applications/microchip/mplabc32/v1.11a/bin/../lib/gcc/pic32mx/3.4.4/../../../../pic32mx/lib/libc.a(memcpy.o)
                                                  build/mega/production/startup.o
DCH3INTCLR                                        /Applications/microchip/mplabc32/v1.11a/bin/../lib/gcc/pic32mx/3.4.4/../../../../pic32mx/lib/./proc/32MX795F512L/processor.o
                                                  /Applications/microchip/mplabc32/v1.11a/bin/../lib/gcc/pic32mx/3.4.4/../../../../pic32mx/lib/libc.a(memcpy.o)
                                                  build/mega/production/startup.o
DCH3INTINV                                        /Applications/microchip/mplabc32/v1.11a/bin/../lib/gcc/pic32mx/3.4.4/../../../../pic32mx/lib/./proc/32MX795F512L/processor.o
                                                  /Applications/microchip/mplabc32/v1.11a/bin/../lib/gcc/pic32mx/3.4.4/../../../../pic32mx/lib/libc.a(memcpy.o)
                                                  build/mega/production/startup.o
DCH3INTSET                                        /Applications/microchip/mplabc32/v1.11a/bin/../lib/gcc/pic32mx/3.4.4/../../../../pic32mx/lib/./proc/32MX795F512L/processor.o
                                                  /Applications/microchip/mplabc32/v1.11a/bin/../lib/gcc/pic32mx/3.4.4/../../../../pic32mx/lib/libc.a(memcpy.o)
                                                  build/mega/production/startup.o
DCH3SPTR                                          /Applications/microchip/mplabc32/v1.11a/bin/../lib/gcc/pic32mx/3.4.4/../../../../pic32mx/lib/./proc/32MX795F512L/processor.o
                                                  /Applications/microchip/mplabc32/v1.11a/bin/../lib/gcc/pic32mx/3.4.4/../../../../pic32mx/lib/libc.a(memcpy.o)
                                                  build/mega/production/startup.o
DCH3SPTRCLR                                       /Applications/microchip/mplabc32/v1.11a/bin/../lib/gcc/pic32mx/3.4.4/../../../../pic32mx/lib/./proc/32MX795F512L/processor.o
                                                  /Applications/microchip/mplabc32/v1.11a/bin/../lib/gcc/pic32mx/3.4.4/../../../../pic32mx/lib/libc.a(memcpy.o)
                                                  build/mega/production/startup.o
DCH3SPTRINV                                       /Applications/microchip/mplabc32/v1.11a/bin/../lib/gcc/pic32mx/3.4.4/../../../../pic32mx/lib/./proc/32MX795F512L/processor.o
                                                  /Applications/microchip/mplabc32/v1.11a/bin/../lib/gcc/pic32mx/3.4.4/../../../../pic32mx/lib/libc.a(memcpy.o)
                                                  build/mega/production/startup.o
DCH3SPTRSET                                       /Applications/microchip/mplabc32/v1.11a/bin/../lib/gcc/pic32mx/3.4.4/../../../../pic32mx/lib/./proc/32MX795F512L/processor.o
                                                  /Applications/microchip/mplabc32/v1.11a/bin/../lib/gcc/pic32mx/3.4.4/../../../../pic32mx/lib/libc.a(memcpy.o)
                                                  build/mega/production/startup.o
DCH3SSA                                           /Applications/microchip/mplabc32/v1.11a/bin/../lib/gcc/pic32mx/3.4.4/../../../../pic32mx/lib/./proc/32MX795F512L/processor.o
                                                  /Applications/microchip/mplabc32/v1.11a/bin/../lib/gcc/pic32mx/3.4.4/../../../../pic32mx/lib/libc.a(memcpy.o)
                                                  build/mega/production/startup.o
DCH3SSACLR                                        /Applications/microchip/mplabc32/v1.11a/bin/../lib/gcc/pic32mx/3.4.4/../../../../pic32mx/lib/./proc/32MX795F512L/processor.o
                                                  /Applications/microchip/mplabc32/v1.11a/bin/../lib/gcc/pic32mx/3.4.4/../../../../pic32mx/lib/libc.a(memcpy.o)
                                                  build/mega/production/startup.o
DCH3SSAINV                                        /Applications/microchip/mplabc32/v1.11a/bin/../lib/gcc/pic32mx/3.4.4/../../../../pic32mx/lib/./proc/32MX795F512L/processor.o
                                                  /Applications/microchip/mplabc32/v1.11a/bin/../lib/gcc/pic32mx/3.4.4/../../../../pic32mx/lib/libc.a(memcpy.o)
                                                  build/mega/production/startup.o
DCH3SSASET                                        /Applications/microchip/mplabc32/v1.11a/bin/../lib/gcc/pic32mx/3.4.4/../../../../pic32mx/lib/./proc/32MX795F512L/processor.o
                                                  /Applications/microchip/mplabc32/v1.11a/bin/../lib/gcc/pic32mx/3.4.4/../../../../pic32mx/lib/libc.a(memcpy.o)
                                                  build/mega/production/startup.o
DCH3SSIZ                                          /Applications/microchip/mplabc32/v1.11a/bin/../lib/gcc/pic32mx/3.4.4/../../../../pic32mx/lib/./proc/32MX795F512L/processor.o
                                                  /Applications/microchip/mplabc32/v1.11a/bin/../lib/gcc/pic32mx/3.4.4/../../../../pic32mx/lib/libc.a(memcpy.o)
                                                  build/mega/production/startup.o
DCH3SSIZCLR                                       /Applications/microchip/mplabc32/v1.11a/bin/../lib/gcc/pic32mx/3.4.4/../../../../pic32mx/lib/./proc/32MX795F512L/processor.o
                                                  /Applications/microchip/mplabc32/v1.11a/bin/../lib/gcc/pic32mx/3.4.4/../../../../pic32mx/lib/libc.a(memcpy.o)
                                                  build/mega/production/startup.o
DCH3SSIZINV                                       /Applications/microchip/mplabc32/v1.11a/bin/../lib/gcc/pic32mx/3.4.4/../../../../pic32mx/lib/./proc/32MX795F512L/processor.o
                                                  /Applications/microchip/mplabc32/v1.11a/bin/../lib/gcc/pic32mx/3.4.4/../../../../pic32mx/lib/libc.a(memcpy.o)
                                                  build/mega/production/startup.o
DCH3SSIZSET                                       /Applications/microchip/mplabc32/v1.11a/bin/../lib/gcc/pic32mx/3.4.4/../../../../pic32mx/lib/./proc/32MX795F512L/processor.o
                                                  /Applications/microchip/mplabc32/v1.11a/bin/../lib/gcc/pic32mx/3.4.4/../../../../pic32mx/lib/libc.a(memcpy.o)
                                                  build/mega/production/startup.o
DCH4CON                                           /Applications/microchip/mplabc32/v1.11a/bin/../lib/gcc/pic32mx/3.4.4/../../../../pic32mx/lib/./proc/32MX795F512L/processor.o
                                                  build/mega/production/startup.o
DCH4CONCLR                                        /Applications/microchip/mplabc32/v1.11a/bin/../lib/gcc/pic32mx/3.4.4/../../../../pic32mx/lib/./proc/32MX795F512L/processor.o
                                                  build/mega/production/startup.o
DCH4CONINV                                        /Applications/microchip/mplabc32/v1.11a/bin/../lib/gcc/pic32mx/3.4.4/../../../../pic32mx/lib/./proc/32MX795F512L/processor.o
                                                  build/mega/production/startup.o
DCH4CONSET                                        /Applications/microchip/mplabc32/v1.11a/bin/../lib/gcc/pic32mx/3.4.4/../../../../pic32mx/lib/./proc/32MX795F512L/processor.o
                                                  build/mega/production/startup.o
DCH4CPTR                                          /Applications/microchip/mplabc32/v1.11a/bin/../lib/gcc/pic32mx/3.4.4/../../../../pic32mx/lib/./proc/32MX795F512L/processor.o
                                                  build/mega/production/startup.o
DCH4CPTRCLR                                       /Applications/microchip/mplabc32/v1.11a/bin/../lib/gcc/pic32mx/3.4.4/../../../../pic32mx/lib/./proc/32MX795F512L/processor.o
                                                  build/mega/production/startup.o
DCH4CPTRINV                                       /Applications/microchip/mplabc32/v1.11a/bin/../lib/gcc/pic32mx/3.4.4/../../../../pic32mx/lib/./proc/32MX795F512L/processor.o
                                                  build/mega/production/startup.o
DCH4CPTRSET                                       /Applications/microchip/mplabc32/v1.11a/bin/../lib/gcc/pic32mx/3.4.4/../../../../pic32mx/lib/./proc/32MX795F512L/processor.o
                                                  build/mega/production/startup.o
DCH4CSIZ                                          /Applications/microchip/mplabc32/v1.11a/bin/../lib/gcc/pic32mx/3.4.4/../../../../pic32mx/lib/./proc/32MX795F512L/processor.o
                                                  build/mega/production/startup.o
DCH4CSIZCLR                                       /Applications/microchip/mplabc32/v1.11a/bin/../lib/gcc/pic32mx/3.4.4/../../../../pic32mx/lib/./proc/32MX795F512L/processor.o
                                                  build/mega/production/startup.o
DCH4CSIZINV                                       /Applications/microchip/mplabc32/v1.11a/bin/../lib/gcc/pic32mx/3.4.4/../../../../pic32mx/lib/./proc/32MX795F512L/processor.o
                                                  build/mega/production/startup.o
DCH4CSIZSET                                       /Applications/microchip/mplabc32/v1.11a/bin/../lib/gcc/pic32mx/3.4.4/../../../../pic32mx/lib/./proc/32MX795F512L/processor.o
                                                  build/mega/production/startup.o
DCH4DAT                                           /Applications/microchip/mplabc32/v1.11a/bin/../lib/gcc/pic32mx/3.4.4/../../../../pic32mx/lib/./proc/32MX795F512L/processor.o
                                                  build/mega/production/startup.o
DCH4DATCLR                                        /Applications/microchip/mplabc32/v1.11a/bin/../lib/gcc/pic32mx/3.4.4/../../../../pic32mx/lib/./proc/32MX795F512L/processor.o
                                                  build/mega/production/startup.o
DCH4DATINV                                        /Applications/microchip/mplabc32/v1.11a/bin/../lib/gcc/pic32mx/3.4.4/../../../../pic32mx/lib/./proc/32MX795F512L/processor.o
                                                  build/mega/production/startup.o
DCH4DATSET                                        /Applications/microchip/mplabc32/v1.11a/bin/../lib/gcc/pic32mx/3.4.4/../../../../pic32mx/lib/./proc/32MX795F512L/processor.o
                                                  build/mega/production/startup.o
DCH4DPTR                                          /Applications/microchip/mplabc32/v1.11a/bin/../lib/gcc/pic32mx/3.4.4/../../../../pic32mx/lib/./proc/32MX795F512L/processor.o
                                                  build/mega/production/startup.o
DCH4DPTRCLR                                       /Applications/microchip/mplabc32/v1.11a/bin/../lib/gcc/pic32mx/3.4.4/../../../../pic32mx/lib/./proc/32MX795F512L/processor.o
                                                  build/mega/production/startup.o
DCH4DPTRINV                                       /Applications/microchip/mplabc32/v1.11a/bin/../lib/gcc/pic32mx/3.4.4/../../../../pic32mx/lib/./proc/32MX795F512L/processor.o
                                                  build/mega/production/startup.o
DCH4DPTRSET                                       /Applications/microchip/mplabc32/v1.11a/bin/../lib/gcc/pic32mx/3.4.4/../../../../pic32mx/lib/./proc/32MX795F512L/processor.o
                                                  build/mega/production/startup.o
DCH4DSA                                           /Applications/microchip/mplabc32/v1.11a/bin/../lib/gcc/pic32mx/3.4.4/../../../../pic32mx/lib/./proc/32MX795F512L/processor.o
                                                  build/mega/production/startup.o
DCH4DSACLR                                        /Applications/microchip/mplabc32/v1.11a/bin/../lib/gcc/pic32mx/3.4.4/../../../../pic32mx/lib/./proc/32MX795F512L/processor.o
                                                  build/mega/production/startup.o
DCH4DSAINV                                        /Applications/microchip/mplabc32/v1.11a/bin/../lib/gcc/pic32mx/3.4.4/../../../../pic32mx/lib/./proc/32MX795F512L/processor.o
                                                  build/mega/production/startup.o
DCH4DSASET                                        /Applications/microchip/mplabc32/v1.11a/bin/../lib/gcc/pic32mx/3.4.4/../../../../pic32mx/lib/./proc/32MX795F512L/processor.o
                                                  build/mega/production/startup.o
DCH4DSIZ                                          /Applications/microchip/mplabc32/v1.11a/bin/../lib/gcc/pic32mx/3.4.4/../../../../pic32mx/lib/./proc/32MX795F512L/processor.o
                                                  build/mega/production/startup.o
DCH4DSIZCLR                                       /Applications/microchip/mplabc32/v1.11a/bin/../lib/gcc/pic32mx/3.4.4/../../../../pic32mx/lib/./proc/32MX795F512L/processor.o
                                                  build/mega/production/startup.o
DCH4DSIZINV                                       /Applications/microchip/mplabc32/v1.11a/bin/../lib/gcc/pic32mx/3.4.4/../../../../pic32mx/lib/./proc/32MX795F512L/processor.o
                                                  build/mega/production/startup.o
DCH4DSIZSET                                       /Applications/microchip/mplabc32/v1.11a/bin/../lib/gcc/pic32mx/3.4.4/../../../../pic32mx/lib/./proc/32MX795F512L/processor.o
                                                  build/mega/production/startup.o
DCH4ECON                                          /Applications/microchip/mplabc32/v1.11a/bin/../lib/gcc/pic32mx/3.4.4/../../../../pic32mx/lib/./proc/32MX795F512L/processor.o
                                                  build/mega/production/startup.o
DCH4ECONCLR                                       /Applications/microchip/mplabc32/v1.11a/bin/../lib/gcc/pic32mx/3.4.4/../../../../pic32mx/lib/./proc/32MX795F512L/processor.o
                                                  build/mega/production/startup.o
DCH4ECONINV                                       /Applications/microchip/mplabc32/v1.11a/bin/../lib/gcc/pic32mx/3.4.4/../../../../pic32mx/lib/./proc/32MX795F512L/processor.o
                                                  build/mega/production/startup.o
DCH4ECONSET                                       /Applications/microchip/mplabc32/v1.11a/bin/../lib/gcc/pic32mx/3.4.4/../../../../pic32mx/lib/./proc/32MX795F512L/processor.o
                                                  build/mega/production/startup.o
DCH4INT                                           /Applications/microchip/mplabc32/v1.11a/bin/../lib/gcc/pic32mx/3.4.4/../../../../pic32mx/lib/./proc/32MX795F512L/processor.o
                                                  build/mega/production/startup.o
DCH4INTCLR                                        /Applications/microchip/mplabc32/v1.11a/bin/../lib/gcc/pic32mx/3.4.4/../../../../pic32mx/lib/./proc/32MX795F512L/processor.o
                                                  build/mega/production/startup.o
DCH4INTINV                                        /Applications/microchip/mplabc32/v1.11a/bin/../lib/gcc/pic32mx/3.4.4/../../../../pic32mx/lib/./proc/32MX795F512L/processor.o
                                                  build/mega/production/startup.o
DCH4INTSET                                        /Applications/microchip/mplabc32/v1.11a/bin/../lib/gcc/pic32mx/3.4.4/../../../../pic32mx/lib/./proc/32MX795F512L/processor.o
                                                  build/mega/production/startup.o
DCH4SPTR                                          /Applications/microchip/mplabc32/v1.11a/bin/../lib/gcc/pic32mx/3.4.4/../../../../pic32mx/lib/./proc/32MX795F512L/processor.o
                                                  build/mega/production/startup.o
DCH4SPTRCLR                                       /Applications/microchip/mplabc32/v1.11a/bin/../lib/gcc/pic32mx/3.4.4/../../../../pic32mx/lib/./proc/32MX795F512L/processor.o
                                                  build/mega/production/startup.o
DCH4SPTRINV                                       /Applications/microchip/mplabc32/v1.11a/bin/../lib/gcc/pic32mx/3.4.4/../../../../pic32mx/lib/./proc/32MX795F512L/processor.o
                                                  build/mega/production/startup.o
DCH4SPTRSET                                       /Applications/microchip/mplabc32/v1.11a/bin/../lib/gcc/pic32mx/3.4.4/../../../../pic32mx/lib/./proc/32MX795F512L/processor.o
                                                  build/mega/production/startup.o
DCH4SSA                                           /Applications/microchip/mplabc32/v1.11a/bin/../lib/gcc/pic32mx/3.4.4/../../../../pic32mx/lib/./proc/32MX795F512L/processor.o
                                                  build/mega/production/startup.o
DCH4SSACLR                                        /Applications/microchip/mplabc32/v1.11a/bin/../lib/gcc/pic32mx/3.4.4/../../../../pic32mx/lib/./proc/32MX795F512L/processor.o
                                                  build/mega/production/startup.o
DCH4SSAINV                                        /Applications/microchip/mplabc32/v1.11a/bin/../lib/gcc/pic32mx/3.4.4/../../../../pic32mx/lib/./proc/32MX795F512L/processor.o
                                                  build/mega/production/startup.o
DCH4SSASET                                        /Applications/microchip/mplabc32/v1.11a/bin/../lib/gcc/pic32mx/3.4.4/../../../../pic32mx/lib/./proc/32MX795F512L/processor.o
                                                  build/mega/production/startup.o
DCH4SSIZ                                          /Applications/microchip/mplabc32/v1.11a/bin/../lib/gcc/pic32mx/3.4.4/../../../../pic32mx/lib/./proc/32MX795F512L/processor.o
                                                  build/mega/production/startup.o
DCH4SSIZCLR                                       /Applications/microchip/mplabc32/v1.11a/bin/../lib/gcc/pic32mx/3.4.4/../../../../pic32mx/lib/./proc/32MX795F512L/processor.o
                                                  build/mega/production/startup.o
DCH4SSIZINV                                       /Applications/microchip/mplabc32/v1.11a/bin/../lib/gcc/pic32mx/3.4.4/../../../../pic32mx/lib/./proc/32MX795F512L/processor.o
                                                  build/mega/production/startup.o
DCH4SSIZSET                                       /Applications/microchip/mplabc32/v1.11a/bin/../lib/gcc/pic32mx/3.4.4/../../../../pic32mx/lib/./proc/32MX795F512L/processor.o
                                                  build/mega/production/startup.o
DCH5CON                                           /Applications/microchip/mplabc32/v1.11a/bin/../lib/gcc/pic32mx/3.4.4/../../../../pic32mx/lib/./proc/32MX795F512L/processor.o
                                                  build/mega/production/startup.o
DCH5CONCLR                                        /Applications/microchip/mplabc32/v1.11a/bin/../lib/gcc/pic32mx/3.4.4/../../../../pic32mx/lib/./proc/32MX795F512L/processor.o
                                                  build/mega/production/startup.o
DCH5CONINV                                        /Applications/microchip/mplabc32/v1.11a/bin/../lib/gcc/pic32mx/3.4.4/../../../../pic32mx/lib/./proc/32MX795F512L/processor.o
                                                  build/mega/production/startup.o
DCH5CONSET                                        /Applications/microchip/mplabc32/v1.11a/bin/../lib/gcc/pic32mx/3.4.4/../../../../pic32mx/lib/./proc/32MX795F512L/processor.o
                                                  build/mega/production/startup.o
DCH5CPTR                                          /Applications/microchip/mplabc32/v1.11a/bin/../lib/gcc/pic32mx/3.4.4/../../../../pic32mx/lib/./proc/32MX795F512L/processor.o
                                                  build/mega/production/startup.o
DCH5CPTRCLR                                       /Applications/microchip/mplabc32/v1.11a/bin/../lib/gcc/pic32mx/3.4.4/../../../../pic32mx/lib/./proc/32MX795F512L/processor.o
                                                  build/mega/production/startup.o
DCH5CPTRINV                                       /Applications/microchip/mplabc32/v1.11a/bin/../lib/gcc/pic32mx/3.4.4/../../../../pic32mx/lib/./proc/32MX795F512L/processor.o
                                                  build/mega/production/startup.o
DCH5CPTRSET                                       /Applications/microchip/mplabc32/v1.11a/bin/../lib/gcc/pic32mx/3.4.4/../../../../pic32mx/lib/./proc/32MX795F512L/processor.o
                                                  build/mega/production/startup.o
DCH5CSIZ                                          /Applications/microchip/mplabc32/v1.11a/bin/../lib/gcc/pic32mx/3.4.4/../../../../pic32mx/lib/./proc/32MX795F512L/processor.o
                                                  build/mega/production/startup.o
DCH5CSIZCLR                                       /Applications/microchip/mplabc32/v1.11a/bin/../lib/gcc/pic32mx/3.4.4/../../../../pic32mx/lib/./proc/32MX795F512L/processor.o
                                                  build/mega/production/startup.o
DCH5CSIZINV                                       /Applications/microchip/mplabc32/v1.11a/bin/../lib/gcc/pic32mx/3.4.4/../../../../pic32mx/lib/./proc/32MX795F512L/processor.o
                                                  build/mega/production/startup.o
DCH5CSIZSET                                       /Applications/microchip/mplabc32/v1.11a/bin/../lib/gcc/pic32mx/3.4.4/../../../../pic32mx/lib/./proc/32MX795F512L/processor.o
                                                  build/mega/production/startup.o
DCH5DAT                                           /Applications/microchip/mplabc32/v1.11a/bin/../lib/gcc/pic32mx/3.4.4/../../../../pic32mx/lib/./proc/32MX795F512L/processor.o
                                                  build/mega/production/startup.o
DCH5DATCLR                                        /Applications/microchip/mplabc32/v1.11a/bin/../lib/gcc/pic32mx/3.4.4/../../../../pic32mx/lib/./proc/32MX795F512L/processor.o
                                                  build/mega/production/startup.o
DCH5DATINV                                        /Applications/microchip/mplabc32/v1.11a/bin/../lib/gcc/pic32mx/3.4.4/../../../../pic32mx/lib/./proc/32MX795F512L/processor.o
                                                  build/mega/production/startup.o
DCH5DATSET                                        /Applications/microchip/mplabc32/v1.11a/bin/../lib/gcc/pic32mx/3.4.4/../../../../pic32mx/lib/./proc/32MX795F512L/processor.o
                                                  build/mega/production/startup.o
DCH5DPTR                                          /Applications/microchip/mplabc32/v1.11a/bin/../lib/gcc/pic32mx/3.4.4/../../../../pic32mx/lib/./proc/32MX795F512L/processor.o
                                                  build/mega/production/startup.o
DCH5DPTRCLR                                       /Applications/microchip/mplabc32/v1.11a/bin/../lib/gcc/pic32mx/3.4.4/../../../../pic32mx/lib/./proc/32MX795F512L/processor.o
                                                  build/mega/production/startup.o
DCH5DPTRINV                                       /Applications/microchip/mplabc32/v1.11a/bin/../lib/gcc/pic32mx/3.4.4/../../../../pic32mx/lib/./proc/32MX795F512L/processor.o
                                                  build/mega/production/startup.o
DCH5DPTRSET                                       /Applications/microchip/mplabc32/v1.11a/bin/../lib/gcc/pic32mx/3.4.4/../../../../pic32mx/lib/./proc/32MX795F512L/processor.o
                                                  build/mega/production/startup.o
DCH5DSA                                           /Applications/microchip/mplabc32/v1.11a/bin/../lib/gcc/pic32mx/3.4.4/../../../../pic32mx/lib/./proc/32MX795F512L/processor.o
                                                  build/mega/production/startup.o
DCH5DSACLR                                        /Applications/microchip/mplabc32/v1.11a/bin/../lib/gcc/pic32mx/3.4.4/../../../../pic32mx/lib/./proc/32MX795F512L/processor.o
                                                  build/mega/production/startup.o
DCH5DSAINV                                        /Applications/microchip/mplabc32/v1.11a/bin/../lib/gcc/pic32mx/3.4.4/../../../../pic32mx/lib/./proc/32MX795F512L/processor.o
                                                  build/mega/production/startup.o
DCH5DSASET                                        /Applications/microchip/mplabc32/v1.11a/bin/../lib/gcc/pic32mx/3.4.4/../../../../pic32mx/lib/./proc/32MX795F512L/processor.o
                                                  build/mega/production/startup.o
DCH5DSIZ                                          /Applications/microchip/mplabc32/v1.11a/bin/../lib/gcc/pic32mx/3.4.4/../../../../pic32mx/lib/./proc/32MX795F512L/processor.o
                                                  build/mega/production/startup.o
DCH5DSIZCLR                                       /Applications/microchip/mplabc32/v1.11a/bin/../lib/gcc/pic32mx/3.4.4/../../../../pic32mx/lib/./proc/32MX795F512L/processor.o
                                                  build/mega/production/startup.o
DCH5DSIZINV                                       /Applications/microchip/mplabc32/v1.11a/bin/../lib/gcc/pic32mx/3.4.4/../../../../pic32mx/lib/./proc/32MX795F512L/processor.o
                                                  build/mega/production/startup.o
DCH5DSIZSET                                       /Applications/microchip/mplabc32/v1.11a/bin/../lib/gcc/pic32mx/3.4.4/../../../../pic32mx/lib/./proc/32MX795F512L/processor.o
                                                  build/mega/production/startup.o
DCH5ECON                                          /Applications/microchip/mplabc32/v1.11a/bin/../lib/gcc/pic32mx/3.4.4/../../../../pic32mx/lib/./proc/32MX795F512L/processor.o
                                                  build/mega/production/startup.o
DCH5ECONCLR                                       /Applications/microchip/mplabc32/v1.11a/bin/../lib/gcc/pic32mx/3.4.4/../../../../pic32mx/lib/./proc/32MX795F512L/processor.o
                                                  build/mega/production/startup.o
DCH5ECONINV                                       /Applications/microchip/mplabc32/v1.11a/bin/../lib/gcc/pic32mx/3.4.4/../../../../pic32mx/lib/./proc/32MX795F512L/processor.o
                                                  build/mega/production/startup.o
DCH5ECONSET                                       /Applications/microchip/mplabc32/v1.11a/bin/../lib/gcc/pic32mx/3.4.4/../../../../pic32mx/lib/./proc/32MX795F512L/processor.o
                                                  build/mega/production/startup.o
DCH5INT                                           /Applications/microchip/mplabc32/v1.11a/bin/../lib/gcc/pic32mx/3.4.4/../../../../pic32mx/lib/./proc/32MX795F512L/processor.o
                                                  build/mega/production/startup.o
DCH5INTCLR                                        /Applications/microchip/mplabc32/v1.11a/bin/../lib/gcc/pic32mx/3.4.4/../../../../pic32mx/lib/./proc/32MX795F512L/processor.o
                                                  build/mega/production/startup.o
DCH5INTINV                                        /Applications/microchip/mplabc32/v1.11a/bin/../lib/gcc/pic32mx/3.4.4/../../../../pic32mx/lib/./proc/32MX795F512L/processor.o
                                                  build/mega/production/startup.o
DCH5INTSET                                        /Applications/microchip/mplabc32/v1.11a/bin/../lib/gcc/pic32mx/3.4.4/../../../../pic32mx/lib/./proc/32MX795F512L/processor.o
                                                  build/mega/production/startup.o
DCH5SPTR                                          /Applications/microchip/mplabc32/v1.11a/bin/../lib/gcc/pic32mx/3.4.4/../../../../pic32mx/lib/./proc/32MX795F512L/processor.o
                                                  build/mega/production/startup.o
DCH5SPTRCLR                                       /Applications/microchip/mplabc32/v1.11a/bin/../lib/gcc/pic32mx/3.4.4/../../../../pic32mx/lib/./proc/32MX795F512L/processor.o
                                                  build/mega/production/startup.o
DCH5SPTRINV                                       /Applications/microchip/mplabc32/v1.11a/bin/../lib/gcc/pic32mx/3.4.4/../../../../pic32mx/lib/./proc/32MX795F512L/processor.o
                                                  build/mega/production/startup.o
DCH5SPTRSET                                       /Applications/microchip/mplabc32/v1.11a/bin/../lib/gcc/pic32mx/3.4.4/../../../../pic32mx/lib/./proc/32MX795F512L/processor.o
                                                  build/mega/production/startup.o
DCH5SSA                                           /Applications/microchip/mplabc32/v1.11a/bin/../lib/gcc/pic32mx/3.4.4/../../../../pic32mx/lib/./proc/32MX795F512L/processor.o
                                                  build/mega/production/startup.o
DCH5SSACLR                                        /Applications/microchip/mplabc32/v1.11a/bin/../lib/gcc/pic32mx/3.4.4/../../../../pic32mx/lib/./proc/32MX795F512L/processor.o
                                                  build/mega/production/startup.o
DCH5SSAINV                                        /Applications/microchip/mplabc32/v1.11a/bin/../lib/gcc/pic32mx/3.4.4/../../../../pic32mx/lib/./proc/32MX795F512L/processor.o
                                                  build/mega/production/startup.o
DCH5SSASET                                        /Applications/microchip/mplabc32/v1.11a/bin/../lib/gcc/pic32mx/3.4.4/../../../../pic32mx/lib/./proc/32MX795F512L/processor.o
                                                  build/mega/production/startup.o
DCH5SSIZ                                          /Applications/microchip/mplabc32/v1.11a/bin/../lib/gcc/pic32mx/3.4.4/../../../../pic32mx/lib/./proc/32MX795F512L/processor.o
                                                  build/mega/production/startup.o
DCH5SSIZCLR                                       /Applications/microchip/mplabc32/v1.11a/bin/../lib/gcc/pic32mx/3.4.4/../../../../pic32mx/lib/./proc/32MX795F512L/processor.o
                                                  build/mega/production/startup.o
DCH5SSIZINV                                       /Applications/microchip/mplabc32/v1.11a/bin/../lib/gcc/pic32mx/3.4.4/../../../../pic32mx/lib/./proc/32MX795F512L/processor.o
                                                  build/mega/production/startup.o
DCH5SSIZSET                                       /Applications/microchip/mplabc32/v1.11a/bin/../lib/gcc/pic32mx/3.4.4/../../../../pic32mx/lib/./proc/32MX795F512L/processor.o
                                                  build/mega/production/startup.o
DCH6CON                                           /Applications/microchip/mplabc32/v1.11a/bin/../lib/gcc/pic32mx/3.4.4/../../../../pic32mx/lib/./proc/32MX795F512L/processor.o
                                                  build/mega/production/startup.o
DCH6CONCLR                                        /Applications/microchip/mplabc32/v1.11a/bin/../lib/gcc/pic32mx/3.4.4/../../../../pic32mx/lib/./proc/32MX795F512L/processor.o
                                                  build/mega/production/startup.o
DCH6CONINV                                        /Applications/microchip/mplabc32/v1.11a/bin/../lib/gcc/pic32mx/3.4.4/../../../../pic32mx/lib/./proc/32MX795F512L/processor.o
                                                  build/mega/production/startup.o
DCH6CONSET                                        /Applications/microchip/mplabc32/v1.11a/bin/../lib/gcc/pic32mx/3.4.4/../../../../pic32mx/lib/./proc/32MX795F512L/processor.o
                                                  build/mega/production/startup.o
DCH6CPTR                                          /Applications/microchip/mplabc32/v1.11a/bin/../lib/gcc/pic32mx/3.4.4/../../../../pic32mx/lib/./proc/32MX795F512L/processor.o
                                                  build/mega/production/startup.o
DCH6CPTRCLR                                       /Applications/microchip/mplabc32/v1.11a/bin/../lib/gcc/pic32mx/3.4.4/../../../../pic32mx/lib/./proc/32MX795F512L/processor.o
                                                  build/mega/production/startup.o
DCH6CPTRINV                                       /Applications/microchip/mplabc32/v1.11a/bin/../lib/gcc/pic32mx/3.4.4/../../../../pic32mx/lib/./proc/32MX795F512L/processor.o
                                                  build/mega/production/startup.o
DCH6CPTRSET                                       /Applications/microchip/mplabc32/v1.11a/bin/../lib/gcc/pic32mx/3.4.4/../../../../pic32mx/lib/./proc/32MX795F512L/processor.o
                                                  build/mega/production/startup.o
DCH6CSIZ                                          /Applications/microchip/mplabc32/v1.11a/bin/../lib/gcc/pic32mx/3.4.4/../../../../pic32mx/lib/./proc/32MX795F512L/processor.o
                                                  build/mega/production/startup.o
DCH6CSIZCLR                                       /Applications/microchip/mplabc32/v1.11a/bin/../lib/gcc/pic32mx/3.4.4/../../../../pic32mx/lib/./proc/32MX795F512L/processor.o
                                                  build/mega/production/startup.o
DCH6CSIZINV                                       /Applications/microchip/mplabc32/v1.11a/bin/../lib/gcc/pic32mx/3.4.4/../../../../pic32mx/lib/./proc/32MX795F512L/processor.o
                                                  build/mega/production/startup.o
DCH6CSIZSET                                       /Applications/microchip/mplabc32/v1.11a/bin/../lib/gcc/pic32mx/3.4.4/../../../../pic32mx/lib/./proc/32MX795F512L/processor.o
                                                  build/mega/production/startup.o
DCH6DAT                                           /Applications/microchip/mplabc32/v1.11a/bin/../lib/gcc/pic32mx/3.4.4/../../../../pic32mx/lib/./proc/32MX795F512L/processor.o
                                                  build/mega/production/startup.o
DCH6DATCLR                                        /Applications/microchip/mplabc32/v1.11a/bin/../lib/gcc/pic32mx/3.4.4/../../../../pic32mx/lib/./proc/32MX795F512L/processor.o
                                                  build/mega/production/startup.o
DCH6DATINV                                        /Applications/microchip/mplabc32/v1.11a/bin/../lib/gcc/pic32mx/3.4.4/../../../../pic32mx/lib/./proc/32MX795F512L/processor.o
                                                  build/mega/production/startup.o
DCH6DATSET                                        /Applications/microchip/mplabc32/v1.11a/bin/../lib/gcc/pic32mx/3.4.4/../../../../pic32mx/lib/./proc/32MX795F512L/processor.o
                                                  build/mega/production/startup.o
DCH6DPTR                                          /Applications/microchip/mplabc32/v1.11a/bin/../lib/gcc/pic32mx/3.4.4/../../../../pic32mx/lib/./proc/32MX795F512L/processor.o
                                                  build/mega/production/startup.o
DCH6DPTRCLR                                       /Applications/microchip/mplabc32/v1.11a/bin/../lib/gcc/pic32mx/3.4.4/../../../../pic32mx/lib/./proc/32MX795F512L/processor.o
                                                  build/mega/production/startup.o
DCH6DPTRINV                                       /Applications/microchip/mplabc32/v1.11a/bin/../lib/gcc/pic32mx/3.4.4/../../../../pic32mx/lib/./proc/32MX795F512L/processor.o
                                                  build/mega/production/startup.o
DCH6DPTRSET                                       /Applications/microchip/mplabc32/v1.11a/bin/../lib/gcc/pic32mx/3.4.4/../../../../pic32mx/lib/./proc/32MX795F512L/processor.o
                                                  build/mega/production/startup.o
DCH6DSA                                           /Applications/microchip/mplabc32/v1.11a/bin/../lib/gcc/pic32mx/3.4.4/../../../../pic32mx/lib/./proc/32MX795F512L/processor.o
                                                  build/mega/production/startup.o
DCH6DSACLR                                        /Applications/microchip/mplabc32/v1.11a/bin/../lib/gcc/pic32mx/3.4.4/../../../../pic32mx/lib/./proc/32MX795F512L/processor.o
                                                  build/mega/production/startup.o
DCH6DSAINV                                        /Applications/microchip/mplabc32/v1.11a/bin/../lib/gcc/pic32mx/3.4.4/../../../../pic32mx/lib/./proc/32MX795F512L/processor.o
                                                  build/mega/production/startup.o
DCH6DSASET                                        /Applications/microchip/mplabc32/v1.11a/bin/../lib/gcc/pic32mx/3.4.4/../../../../pic32mx/lib/./proc/32MX795F512L/processor.o
                                                  build/mega/production/startup.o
DCH6DSIZ                                          /Applications/microchip/mplabc32/v1.11a/bin/../lib/gcc/pic32mx/3.4.4/../../../../pic32mx/lib/./proc/32MX795F512L/processor.o
                                                  build/mega/production/startup.o
DCH6DSIZCLR                                       /Applications/microchip/mplabc32/v1.11a/bin/../lib/gcc/pic32mx/3.4.4/../../../../pic32mx/lib/./proc/32MX795F512L/processor.o
                                                  build/mega/production/startup.o
DCH6DSIZINV                                       /Applications/microchip/mplabc32/v1.11a/bin/../lib/gcc/pic32mx/3.4.4/../../../../pic32mx/lib/./proc/32MX795F512L/processor.o
                                                  build/mega/production/startup.o
DCH6DSIZSET                                       /Applications/microchip/mplabc32/v1.11a/bin/../lib/gcc/pic32mx/3.4.4/../../../../pic32mx/lib/./proc/32MX795F512L/processor.o
                                                  build/mega/production/startup.o
DCH6ECON                                          /Applications/microchip/mplabc32/v1.11a/bin/../lib/gcc/pic32mx/3.4.4/../../../../pic32mx/lib/./proc/32MX795F512L/processor.o
                                                  build/mega/production/startup.o
DCH6ECONCLR                                       /Applications/microchip/mplabc32/v1.11a/bin/../lib/gcc/pic32mx/3.4.4/../../../../pic32mx/lib/./proc/32MX795F512L/processor.o
                                                  build/mega/production/startup.o
DCH6ECONINV                                       /Applications/microchip/mplabc32/v1.11a/bin/../lib/gcc/pic32mx/3.4.4/../../../../pic32mx/lib/./proc/32MX795F512L/processor.o
                                                  build/mega/production/startup.o
DCH6ECONSET                                       /Applications/microchip/mplabc32/v1.11a/bin/../lib/gcc/pic32mx/3.4.4/../../../../pic32mx/lib/./proc/32MX795F512L/processor.o
                                                  build/mega/production/startup.o
DCH6INT                                           /Applications/microchip/mplabc32/v1.11a/bin/../lib/gcc/pic32mx/3.4.4/../../../../pic32mx/lib/./proc/32MX795F512L/processor.o
                                                  build/mega/production/startup.o
DCH6INTCLR                                        /Applications/microchip/mplabc32/v1.11a/bin/../lib/gcc/pic32mx/3.4.4/../../../../pic32mx/lib/./proc/32MX795F512L/processor.o
                                                  build/mega/production/startup.o
DCH6INTINV                                        /Applications/microchip/mplabc32/v1.11a/bin/../lib/gcc/pic32mx/3.4.4/../../../../pic32mx/lib/./proc/32MX795F512L/processor.o
                                                  build/mega/production/startup.o
DCH6INTSET                                        /Applications/microchip/mplabc32/v1.11a/bin/../lib/gcc/pic32mx/3.4.4/../../../../pic32mx/lib/./proc/32MX795F512L/processor.o
                                                  build/mega/production/startup.o
DCH6SPTR                                          /Applications/microchip/mplabc32/v1.11a/bin/../lib/gcc/pic32mx/3.4.4/../../../../pic32mx/lib/./proc/32MX795F512L/processor.o
                                                  build/mega/production/startup.o
DCH6SPTRCLR                                       /Applications/microchip/mplabc32/v1.11a/bin/../lib/gcc/pic32mx/3.4.4/../../../../pic32mx/lib/./proc/32MX795F512L/processor.o
                                                  build/mega/production/startup.o
DCH6SPTRINV                                       /Applications/microchip/mplabc32/v1.11a/bin/../lib/gcc/pic32mx/3.4.4/../../../../pic32mx/lib/./proc/32MX795F512L/processor.o
                                                  build/mega/production/startup.o
DCH6SPTRSET                                       /Applications/microchip/mplabc32/v1.11a/bin/../lib/gcc/pic32mx/3.4.4/../../../../pic32mx/lib/./proc/32MX795F512L/processor.o
                                                  build/mega/production/startup.o
DCH6SSA                                           /Applications/microchip/mplabc32/v1.11a/bin/../lib/gcc/pic32mx/3.4.4/../../../../pic32mx/lib/./proc/32MX795F512L/processor.o
                                                  build/mega/production/startup.o
DCH6SSACLR                                        /Applications/microchip/mplabc32/v1.11a/bin/../lib/gcc/pic32mx/3.4.4/../../../../pic32mx/lib/./proc/32MX795F512L/processor.o
                                                  build/mega/production/startup.o
DCH6SSAINV                                        /Applications/microchip/mplabc32/v1.11a/bin/../lib/gcc/pic32mx/3.4.4/../../../../pic32mx/lib/./proc/32MX795F512L/processor.o
                                                  build/mega/production/startup.o
DCH6SSASET                                        /Applications/microchip/mplabc32/v1.11a/bin/../lib/gcc/pic32mx/3.4.4/../../../../pic32mx/lib/./proc/32MX795F512L/processor.o
                                                  build/mega/production/startup.o
DCH6SSIZ                                          /Applications/microchip/mplabc32/v1.11a/bin/../lib/gcc/pic32mx/3.4.4/../../../../pic32mx/lib/./proc/32MX795F512L/processor.o
                                                  build/mega/production/startup.o
DCH6SSIZCLR                                       /Applications/microchip/mplabc32/v1.11a/bin/../lib/gcc/pic32mx/3.4.4/../../../../pic32mx/lib/./proc/32MX795F512L/processor.o
                                                  build/mega/production/startup.o
DCH6SSIZINV                                       /Applications/microchip/mplabc32/v1.11a/bin/../lib/gcc/pic32mx/3.4.4/../../../../pic32mx/lib/./proc/32MX795F512L/processor.o
                                                  build/mega/production/startup.o
DCH6SSIZSET                                       /Applications/microchip/mplabc32/v1.11a/bin/../lib/gcc/pic32mx/3.4.4/../../../../pic32mx/lib/./proc/32MX795F512L/processor.o
                                                  build/mega/production/startup.o
DCH7CON                                           /Applications/microchip/mplabc32/v1.11a/bin/../lib/gcc/pic32mx/3.4.4/../../../../pic32mx/lib/./proc/32MX795F512L/processor.o
                                                  build/mega/production/startup.o
DCH7CONCLR                                        /Applications/microchip/mplabc32/v1.11a/bin/../lib/gcc/pic32mx/3.4.4/../../../../pic32mx/lib/./proc/32MX795F512L/processor.o
                                                  build/mega/production/startup.o
DCH7CONINV                                        /Applications/microchip/mplabc32/v1.11a/bin/../lib/gcc/pic32mx/3.4.4/../../../../pic32mx/lib/./proc/32MX795F512L/processor.o
                                                  build/mega/production/startup.o
DCH7CONSET                                        /Applications/microchip/mplabc32/v1.11a/bin/../lib/gcc/pic32mx/3.4.4/../../../../pic32mx/lib/./proc/32MX795F512L/processor.o
                                                  build/mega/production/startup.o
DCH7CPTR                                          /Applications/microchip/mplabc32/v1.11a/bin/../lib/gcc/pic32mx/3.4.4/../../../../pic32mx/lib/./proc/32MX795F512L/processor.o
                                                  build/mega/production/startup.o
DCH7CPTRCLR                                       /Applications/microchip/mplabc32/v1.11a/bin/../lib/gcc/pic32mx/3.4.4/../../../../pic32mx/lib/./proc/32MX795F512L/processor.o
                                                  build/mega/production/startup.o
DCH7CPTRINV                                       /Applications/microchip/mplabc32/v1.11a/bin/../lib/gcc/pic32mx/3.4.4/../../../../pic32mx/lib/./proc/32MX795F512L/processor.o
                                                  build/mega/production/startup.o
DCH7CPTRSET                                       /Applications/microchip/mplabc32/v1.11a/bin/../lib/gcc/pic32mx/3.4.4/../../../../pic32mx/lib/./proc/32MX795F512L/processor.o
                                                  build/mega/production/startup.o
DCH7CSIZ                                          /Applications/microchip/mplabc32/v1.11a/bin/../lib/gcc/pic32mx/3.4.4/../../../../pic32mx/lib/./proc/32MX795F512L/processor.o
                                                  build/mega/production/startup.o
DCH7CSIZCLR                                       /Applications/microchip/mplabc32/v1.11a/bin/../lib/gcc/pic32mx/3.4.4/../../../../pic32mx/lib/./proc/32MX795F512L/processor.o
                                                  build/mega/production/startup.o
DCH7CSIZINV                                       /Applications/microchip/mplabc32/v1.11a/bin/../lib/gcc/pic32mx/3.4.4/../../../../pic32mx/lib/./proc/32MX795F512L/processor.o
                                                  build/mega/production/startup.o
DCH7CSIZSET                                       /Applications/microchip/mplabc32/v1.11a/bin/../lib/gcc/pic32mx/3.4.4/../../../../pic32mx/lib/./proc/32MX795F512L/processor.o
                                                  build/mega/production/startup.o
DCH7DAT                                           /Applications/microchip/mplabc32/v1.11a/bin/../lib/gcc/pic32mx/3.4.4/../../../../pic32mx/lib/./proc/32MX795F512L/processor.o
                                                  build/mega/production/startup.o
DCH7DATCLR                                        /Applications/microchip/mplabc32/v1.11a/bin/../lib/gcc/pic32mx/3.4.4/../../../../pic32mx/lib/./proc/32MX795F512L/processor.o
                                                  build/mega/production/startup.o
DCH7DATINV                                        /Applications/microchip/mplabc32/v1.11a/bin/../lib/gcc/pic32mx/3.4.4/../../../../pic32mx/lib/./proc/32MX795F512L/processor.o
                                                  build/mega/production/startup.o
DCH7DATSET                                        /Applications/microchip/mplabc32/v1.11a/bin/../lib/gcc/pic32mx/3.4.4/../../../../pic32mx/lib/./proc/32MX795F512L/processor.o
                                                  build/mega/production/startup.o
DCH7DPTR                                          /Applications/microchip/mplabc32/v1.11a/bin/../lib/gcc/pic32mx/3.4.4/../../../../pic32mx/lib/./proc/32MX795F512L/processor.o
                                                  build/mega/production/startup.o
DCH7DPTRCLR                                       /Applications/microchip/mplabc32/v1.11a/bin/../lib/gcc/pic32mx/3.4.4/../../../../pic32mx/lib/./proc/32MX795F512L/processor.o
                                                  build/mega/production/startup.o
DCH7DPTRINV                                       /Applications/microchip/mplabc32/v1.11a/bin/../lib/gcc/pic32mx/3.4.4/../../../../pic32mx/lib/./proc/32MX795F512L/processor.o
                                                  build/mega/production/startup.o
DCH7DPTRSET                                       /Applications/microchip/mplabc32/v1.11a/bin/../lib/gcc/pic32mx/3.4.4/../../../../pic32mx/lib/./proc/32MX795F512L/processor.o
                                                  build/mega/production/startup.o
DCH7DSA                                           /Applications/microchip/mplabc32/v1.11a/bin/../lib/gcc/pic32mx/3.4.4/../../../../pic32mx/lib/./proc/32MX795F512L/processor.o
                                                  build/mega/production/startup.o
DCH7DSACLR                                        /Applications/microchip/mplabc32/v1.11a/bin/../lib/gcc/pic32mx/3.4.4/../../../../pic32mx/lib/./proc/32MX795F512L/processor.o
                                                  build/mega/production/startup.o
DCH7DSAINV                                        /Applications/microchip/mplabc32/v1.11a/bin/../lib/gcc/pic32mx/3.4.4/../../../../pic32mx/lib/./proc/32MX795F512L/processor.o
                                                  build/mega/production/startup.o
DCH7DSASET                                        /Applications/microchip/mplabc32/v1.11a/bin/../lib/gcc/pic32mx/3.4.4/../../../../pic32mx/lib/./proc/32MX795F512L/processor.o
                                                  build/mega/production/startup.o
DCH7DSIZ                                          /Applications/microchip/mplabc32/v1.11a/bin/../lib/gcc/pic32mx/3.4.4/../../../../pic32mx/lib/./proc/32MX795F512L/processor.o
                                                  build/mega/production/startup.o
DCH7DSIZCLR                                       /Applications/microchip/mplabc32/v1.11a/bin/../lib/gcc/pic32mx/3.4.4/../../../../pic32mx/lib/./proc/32MX795F512L/processor.o
                                                  build/mega/production/startup.o
DCH7DSIZINV                                       /Applications/microchip/mplabc32/v1.11a/bin/../lib/gcc/pic32mx/3.4.4/../../../../pic32mx/lib/./proc/32MX795F512L/processor.o
                                                  build/mega/production/startup.o
DCH7DSIZSET                                       /Applications/microchip/mplabc32/v1.11a/bin/../lib/gcc/pic32mx/3.4.4/../../../../pic32mx/lib/./proc/32MX795F512L/processor.o
                                                  build/mega/production/startup.o
DCH7ECON                                          /Applications/microchip/mplabc32/v1.11a/bin/../lib/gcc/pic32mx/3.4.4/../../../../pic32mx/lib/./proc/32MX795F512L/processor.o
                                                  build/mega/production/startup.o
DCH7ECONCLR                                       /Applications/microchip/mplabc32/v1.11a/bin/../lib/gcc/pic32mx/3.4.4/../../../../pic32mx/lib/./proc/32MX795F512L/processor.o
                                                  build/mega/production/startup.o
DCH7ECONINV                                       /Applications/microchip/mplabc32/v1.11a/bin/../lib/gcc/pic32mx/3.4.4/../../../../pic32mx/lib/./proc/32MX795F512L/processor.o
                                                  build/mega/production/startup.o
DCH7ECONSET                                       /Applications/microchip/mplabc32/v1.11a/bin/../lib/gcc/pic32mx/3.4.4/../../../../pic32mx/lib/./proc/32MX795F512L/processor.o
                                                  build/mega/production/startup.o
DCH7INT                                           /Applications/microchip/mplabc32/v1.11a/bin/../lib/gcc/pic32mx/3.4.4/../../../../pic32mx/lib/./proc/32MX795F512L/processor.o
                                                  build/mega/production/startup.o
DCH7INTCLR                                        /Applications/microchip/mplabc32/v1.11a/bin/../lib/gcc/pic32mx/3.4.4/../../../../pic32mx/lib/./proc/32MX795F512L/processor.o
                                                  build/mega/production/startup.o
DCH7INTINV                                        /Applications/microchip/mplabc32/v1.11a/bin/../lib/gcc/pic32mx/3.4.4/../../../../pic32mx/lib/./proc/32MX795F512L/processor.o
                                                  build/mega/production/startup.o
DCH7INTSET                                        /Applications/microchip/mplabc32/v1.11a/bin/../lib/gcc/pic32mx/3.4.4/../../../../pic32mx/lib/./proc/32MX795F512L/processor.o
                                                  build/mega/production/startup.o
DCH7SPTR                                          /Applications/microchip/mplabc32/v1.11a/bin/../lib/gcc/pic32mx/3.4.4/../../../../pic32mx/lib/./proc/32MX795F512L/processor.o
                                                  build/mega/production/startup.o
DCH7SPTRCLR                                       /Applications/microchip/mplabc32/v1.11a/bin/../lib/gcc/pic32mx/3.4.4/../../../../pic32mx/lib/./proc/32MX795F512L/processor.o
                                                  build/mega/production/startup.o
DCH7SPTRINV                                       /Applications/microchip/mplabc32/v1.11a/bin/../lib/gcc/pic32mx/3.4.4/../../../../pic32mx/lib/./proc/32MX795F512L/processor.o
                                                  build/mega/production/startup.o
DCH7SPTRSET                                       /Applications/microchip/mplabc32/v1.11a/bin/../lib/gcc/pic32mx/3.4.4/../../../../pic32mx/lib/./proc/32MX795F512L/processor.o
                                                  build/mega/production/startup.o
DCH7SSA                                           /Applications/microchip/mplabc32/v1.11a/bin/../lib/gcc/pic32mx/3.4.4/../../../../pic32mx/lib/./proc/32MX795F512L/processor.o
                                                  build/mega/production/startup.o
DCH7SSACLR                                        /Applications/microchip/mplabc32/v1.11a/bin/../lib/gcc/pic32mx/3.4.4/../../../../pic32mx/lib/./proc/32MX795F512L/processor.o
                                                  build/mega/production/startup.o
DCH7SSAINV                                        /Applications/microchip/mplabc32/v1.11a/bin/../lib/gcc/pic32mx/3.4.4/../../../../pic32mx/lib/./proc/32MX795F512L/processor.o
                                                  build/mega/production/startup.o
DCH7SSASET                                        /Applications/microchip/mplabc32/v1.11a/bin/../lib/gcc/pic32mx/3.4.4/../../../../pic32mx/lib/./proc/32MX795F512L/processor.o
                                                  build/mega/production/startup.o
DCH7SSIZ                                          /Applications/microchip/mplabc32/v1.11a/bin/../lib/gcc/pic32mx/3.4.4/../../../../pic32mx/lib/./proc/32MX795F512L/processor.o
                                                  build/mega/production/startup.o
DCH7SSIZCLR                                       /Applications/microchip/mplabc32/v1.11a/bin/../lib/gcc/pic32mx/3.4.4/../../../../pic32mx/lib/./proc/32MX795F512L/processor.o
                                                  build/mega/production/startup.o
DCH7SSIZINV                                       /Applications/microchip/mplabc32/v1.11a/bin/../lib/gcc/pic32mx/3.4.4/../../../../pic32mx/lib/./proc/32MX795F512L/processor.o
                                                  build/mega/production/startup.o
DCH7SSIZSET                                       /Applications/microchip/mplabc32/v1.11a/bin/../lib/gcc/pic32mx/3.4.4/../../../../pic32mx/lib/./proc/32MX795F512L/processor.o
                                                  build/mega/production/startup.o
DCRCCON                                           /Applications/microchip/mplabc32/v1.11a/bin/../lib/gcc/pic32mx/3.4.4/../../../../pic32mx/lib/./proc/32MX795F512L/processor.o
                                                  /Applications/microchip/mplabc32/v1.11a/bin/../lib/gcc/pic32mx/3.4.4/../../../../pic32mx/lib/libc.a(memcpy.o)
                                                  build/mega/production/startup.o
DCRCCONCLR                                        /Applications/microchip/mplabc32/v1.11a/bin/../lib/gcc/pic32mx/3.4.4/../../../../pic32mx/lib/./proc/32MX795F512L/processor.o
                                                  /Applications/microchip/mplabc32/v1.11a/bin/../lib/gcc/pic32mx/3.4.4/../../../../pic32mx/lib/libc.a(memcpy.o)
                                                  build/mega/production/startup.o
DCRCCONINV                                        /Applications/microchip/mplabc32/v1.11a/bin/../lib/gcc/pic32mx/3.4.4/../../../../pic32mx/lib/./proc/32MX795F512L/processor.o
                                                  /Applications/microchip/mplabc32/v1.11a/bin/../lib/gcc/pic32mx/3.4.4/../../../../pic32mx/lib/libc.a(memcpy.o)
                                                  build/mega/production/startup.o
DCRCCONSET                                        /Applications/microchip/mplabc32/v1.11a/bin/../lib/gcc/pic32mx/3.4.4/../../../../pic32mx/lib/./proc/32MX795F512L/processor.o
                                                  /Applications/microchip/mplabc32/v1.11a/bin/../lib/gcc/pic32mx/3.4.4/../../../../pic32mx/lib/libc.a(memcpy.o)
                                                  build/mega/production/startup.o
DCRCDATA                                          /Applications/microchip/mplabc32/v1.11a/bin/../lib/gcc/pic32mx/3.4.4/../../../../pic32mx/lib/./proc/32MX795F512L/processor.o
                                                  /Applications/microchip/mplabc32/v1.11a/bin/../lib/gcc/pic32mx/3.4.4/../../../../pic32mx/lib/libc.a(memcpy.o)
                                                  build/mega/production/startup.o
DCRCDATACLR                                       /Applications/microchip/mplabc32/v1.11a/bin/../lib/gcc/pic32mx/3.4.4/../../../../pic32mx/lib/./proc/32MX795F512L/processor.o
                                                  /Applications/microchip/mplabc32/v1.11a/bin/../lib/gcc/pic32mx/3.4.4/../../../../pic32mx/lib/libc.a(memcpy.o)
                                                  build/mega/production/startup.o
DCRCDATAINV                                       /Applications/microchip/mplabc32/v1.11a/bin/../lib/gcc/pic32mx/3.4.4/../../../../pic32mx/lib/./proc/32MX795F512L/processor.o
                                                  /Applications/microchip/mplabc32/v1.11a/bin/../lib/gcc/pic32mx/3.4.4/../../../../pic32mx/lib/libc.a(memcpy.o)
                                                  build/mega/production/startup.o
DCRCDATASET                                       /Applications/microchip/mplabc32/v1.11a/bin/../lib/gcc/pic32mx/3.4.4/../../../../pic32mx/lib/./proc/32MX795F512L/processor.o
                                                  /Applications/microchip/mplabc32/v1.11a/bin/../lib/gcc/pic32mx/3.4.4/../../../../pic32mx/lib/libc.a(memcpy.o)
                                                  build/mega/production/startup.o
DCRCXOR                                           /Applications/microchip/mplabc32/v1.11a/bin/../lib/gcc/pic32mx/3.4.4/../../../../pic32mx/lib/./proc/32MX795F512L/processor.o
                                                  /Applications/microchip/mplabc32/v1.11a/bin/../lib/gcc/pic32mx/3.4.4/../../../../pic32mx/lib/libc.a(memcpy.o)
                                                  build/mega/production/startup.o
DCRCXORCLR                                        /Applications/microchip/mplabc32/v1.11a/bin/../lib/gcc/pic32mx/3.4.4/../../../../pic32mx/lib/./proc/32MX795F512L/processor.o
                                                  /Applications/microchip/mplabc32/v1.11a/bin/../lib/gcc/pic32mx/3.4.4/../../../../pic32mx/lib/libc.a(memcpy.o)
                                                  build/mega/production/startup.o
DCRCXORINV                                        /Applications/microchip/mplabc32/v1.11a/bin/../lib/gcc/pic32mx/3.4.4/../../../../pic32mx/lib/./proc/32MX795F512L/processor.o
                                                  /Applications/microchip/mplabc32/v1.11a/bin/../lib/gcc/pic32mx/3.4.4/../../../../pic32mx/lib/libc.a(memcpy.o)
                                                  build/mega/production/startup.o
DCRCXORSET                                        /Applications/microchip/mplabc32/v1.11a/bin/../lib/gcc/pic32mx/3.4.4/../../../../pic32mx/lib/./proc/32MX795F512L/processor.o
                                                  /Applications/microchip/mplabc32/v1.11a/bin/../lib/gcc/pic32mx/3.4.4/../../../../pic32mx/lib/libc.a(memcpy.o)
                                                  build/mega/production/startup.o
DDPCON                                            /Applications/microchip/mplabc32/v1.11a/bin/../lib/gcc/pic32mx/3.4.4/../../../../pic32mx/lib/./proc/32MX795F512L/processor.o
                                                  /Applications/microchip/mplabc32/v1.11a/bin/../lib/gcc/pic32mx/3.4.4/../../../../pic32mx/lib/libc.a(memcpy.o)
                                                  build/mega/production/startup.o
DEVCFG0                                           /Applications/microchip/mplabc32/v1.11a/bin/../lib/gcc/pic32mx/3.4.4/../../../../pic32mx/lib/./proc/32MX795F512L/processor.o
                                                  build/mega/production/startup.o
DEVCFG1                                           /Applications/microchip/mplabc32/v1.11a/bin/../lib/gcc/pic32mx/3.4.4/../../../../pic32mx/lib/./proc/32MX795F512L/processor.o
                                                  build/mega/production/startup.o
DEVCFG2                                           /Applications/microchip/mplabc32/v1.11a/bin/../lib/gcc/pic32mx/3.4.4/../../../../pic32mx/lib/./proc/32MX795F512L/processor.o
                                                  build/mega/production/startup.o
DEVCFG3                                           /Applications/microchip/mplabc32/v1.11a/bin/../lib/gcc/pic32mx/3.4.4/../../../../pic32mx/lib/./proc/32MX795F512L/processor.o
                                                  build/mega/production/startup.o
DEVID                                             /Applications/microchip/mplabc32/v1.11a/bin/../lib/gcc/pic32mx/3.4.4/../../../../pic32mx/lib/./proc/32MX795F512L/processor.o
                                                  /Applications/microchip/mplabc32/v1.11a/bin/../lib/gcc/pic32mx/3.4.4/../../../../pic32mx/lib/libc.a(memcpy.o)
                                                  build/mega/production/pic32bootloader.o
                                                  build/mega/production/startup.o
DMAADDR                                           /Applications/microchip/mplabc32/v1.11a/bin/../lib/gcc/pic32mx/3.4.4/../../../../pic32mx/lib/./proc/32MX795F512L/processor.o
                                                  /Applications/microchip/mplabc32/v1.11a/bin/../lib/gcc/pic32mx/3.4.4/../../../../pic32mx/lib/libc.a(memcpy.o)
                                                  build/mega/production/startup.o
DMAADDRCLR                                        /Applications/microchip/mplabc32/v1.11a/bin/../lib/gcc/pic32mx/3.4.4/../../../../pic32mx/lib/./proc/32MX795F512L/processor.o
                                                  /Applications/microchip/mplabc32/v1.11a/bin/../lib/gcc/pic32mx/3.4.4/../../../../pic32mx/lib/libc.a(memcpy.o)
                                                  build/mega/production/startup.o
DMAADDRINV                                        /Applications/microchip/mplabc32/v1.11a/bin/../lib/gcc/pic32mx/3.4.4/../../../../pic32mx/lib/./proc/32MX795F512L/processor.o
                                                  /Applications/microchip/mplabc32/v1.11a/bin/../lib/gcc/pic32mx/3.4.4/../../../../pic32mx/lib/libc.a(memcpy.o)
                                                  build/mega/production/startup.o
DMAADDRSET                                        /Applications/microchip/mplabc32/v1.11a/bin/../lib/gcc/pic32mx/3.4.4/../../../../pic32mx/lib/./proc/32MX795F512L/processor.o
                                                  /Applications/microchip/mplabc32/v1.11a/bin/../lib/gcc/pic32mx/3.4.4/../../../../pic32mx/lib/libc.a(memcpy.o)
                                                  build/mega/production/startup.o
DMACON                                            /Applications/microchip/mplabc32/v1.11a/bin/../lib/gcc/pic32mx/3.4.4/../../../../pic32mx/lib/./proc/32MX795F512L/processor.o
                                                  /Applications/microchip/mplabc32/v1.11a/bin/../lib/gcc/pic32mx/3.4.4/../../../../pic32mx/lib/libc.a(memcpy.o)
                                                  /Applications/microchip/mplabc32/v1.11a/bin/../lib/gcc/pic32mx/3.4.4/../../../../pic32mx/lib/libmchp_peripheral_32MX795F512L.a(nvm_operation_lib.o)
                                                  build/mega/production/pic32bootloader.o
                                                  build/mega/production/startup.o
DMACONCLR                                         /Applications/microchip/mplabc32/v1.11a/bin/../lib/gcc/pic32mx/3.4.4/../../../../pic32mx/lib/./proc/32MX795F512L/processor.o
                                                  /Applications/microchip/mplabc32/v1.11a/bin/../lib/gcc/pic32mx/3.4.4/../../../../pic32mx/lib/libc.a(memcpy.o)
                                                  /Applications/microchip/mplabc32/v1.11a/bin/../lib/gcc/pic32mx/3.4.4/../../../../pic32mx/lib/libmchp_peripheral_32MX795F512L.a(nvm_operation_lib.o)
                                                  build/mega/production/pic32bootloader.o
                                                  build/mega/production/startup.o
DMACONINV                                         /Applications/microchip/mplabc32/v1.11a/bin/../lib/gcc/pic32mx/3.4.4/../../../../pic32mx/lib/./proc/32MX795F512L/processor.o
                                                  /Applications/microchip/mplabc32/v1.11a/bin/../lib/gcc/pic32mx/3.4.4/../../../../pic32mx/lib/libc.a(memcpy.o)
                                                  build/mega/production/startup.o
DMACONSET                                         /Applications/microchip/mplabc32/v1.11a/bin/../lib/gcc/pic32mx/3.4.4/../../../../pic32mx/lib/./proc/32MX795F512L/processor.o
                                                  /Applications/microchip/mplabc32/v1.11a/bin/../lib/gcc/pic32mx/3.4.4/../../../../pic32mx/lib/libc.a(memcpy.o)
                                                  /Applications/microchip/mplabc32/v1.11a/bin/../lib/gcc/pic32mx/3.4.4/../../../../pic32mx/lib/libmchp_peripheral_32MX795F512L.a(nvm_operation_lib.o)
                                                  build/mega/production/pic32bootloader.o
                                                  build/mega/production/startup.o
DMASTAT                                           /Applications/microchip/mplabc32/v1.11a/bin/../lib/gcc/pic32mx/3.4.4/../../../../pic32mx/lib/./proc/32MX795F512L/processor.o
                                                  /Applications/microchip/mplabc32/v1.11a/bin/../lib/gcc/pic32mx/3.4.4/../../../../pic32mx/lib/libc.a(memcpy.o)
                                                  build/mega/production/startup.o
DMASTATCLR                                        /Applications/microchip/mplabc32/v1.11a/bin/../lib/gcc/pic32mx/3.4.4/../../../../pic32mx/lib/./proc/32MX795F512L/processor.o
                                                  /Applications/microchip/mplabc32/v1.11a/bin/../lib/gcc/pic32mx/3.4.4/../../../../pic32mx/lib/libc.a(memcpy.o)
                                                  build/mega/production/startup.o
DMASTATINV                                        /Applications/microchip/mplabc32/v1.11a/bin/../lib/gcc/pic32mx/3.4.4/../../../../pic32mx/lib/./proc/32MX795F512L/processor.o
                                                  /Applications/microchip/mplabc32/v1.11a/bin/../lib/gcc/pic32mx/3.4.4/../../../../pic32mx/lib/libc.a(memcpy.o)
                                                  build/mega/production/startup.o
DMASTATSET                                        /Applications/microchip/mplabc32/v1.11a/bin/../lib/gcc/pic32mx/3.4.4/../../../../pic32mx/lib/./proc/32MX795F512L/processor.o
                                                  /Applications/microchip/mplabc32/v1.11a/bin/../lib/gcc/pic32mx/3.4.4/../../../../pic32mx/lib/libc.a(memcpy.o)
                                                  build/mega/production/startup.o
EMACxCFG1                                         /Applications/microchip/mplabc32/v1.11a/bin/../lib/gcc/pic32mx/3.4.4/../../../../pic32mx/lib/./proc/32MX795F512L/processor.o
                                                  build/mega/production/startup.o
EMACxCFG1CLR                                      /Applications/microchip/mplabc32/v1.11a/bin/../lib/gcc/pic32mx/3.4.4/../../../../pic32mx/lib/./proc/32MX795F512L/processor.o
                                                  build/mega/production/startup.o
EMACxCFG1INV                                      /Applications/microchip/mplabc32/v1.11a/bin/../lib/gcc/pic32mx/3.4.4/../../../../pic32mx/lib/./proc/32MX795F512L/processor.o
                                                  build/mega/production/startup.o
EMACxCFG1SET                                      /Applications/microchip/mplabc32/v1.11a/bin/../lib/gcc/pic32mx/3.4.4/../../../../pic32mx/lib/./proc/32MX795F512L/processor.o
                                                  build/mega/production/startup.o
EMACxCFG2                                         /Applications/microchip/mplabc32/v1.11a/bin/../lib/gcc/pic32mx/3.4.4/../../../../pic32mx/lib/./proc/32MX795F512L/processor.o
                                                  build/mega/production/startup.o
EMACxCFG2CLR                                      /Applications/microchip/mplabc32/v1.11a/bin/../lib/gcc/pic32mx/3.4.4/../../../../pic32mx/lib/./proc/32MX795F512L/processor.o
                                                  build/mega/production/startup.o
EMACxCFG2INV                                      /Applications/microchip/mplabc32/v1.11a/bin/../lib/gcc/pic32mx/3.4.4/../../../../pic32mx/lib/./proc/32MX795F512L/processor.o
                                                  build/mega/production/startup.o
EMACxCFG2SET                                      /Applications/microchip/mplabc32/v1.11a/bin/../lib/gcc/pic32mx/3.4.4/../../../../pic32mx/lib/./proc/32MX795F512L/processor.o
                                                  build/mega/production/startup.o
EMACxCLRT                                         /Applications/microchip/mplabc32/v1.11a/bin/../lib/gcc/pic32mx/3.4.4/../../../../pic32mx/lib/./proc/32MX795F512L/processor.o
                                                  build/mega/production/startup.o
EMACxCLRTCLR                                      /Applications/microchip/mplabc32/v1.11a/bin/../lib/gcc/pic32mx/3.4.4/../../../../pic32mx/lib/./proc/32MX795F512L/processor.o
                                                  build/mega/production/startup.o
EMACxCLRTINV                                      /Applications/microchip/mplabc32/v1.11a/bin/../lib/gcc/pic32mx/3.4.4/../../../../pic32mx/lib/./proc/32MX795F512L/processor.o
                                                  build/mega/production/startup.o
EMACxCLRTSET                                      /Applications/microchip/mplabc32/v1.11a/bin/../lib/gcc/pic32mx/3.4.4/../../../../pic32mx/lib/./proc/32MX795F512L/processor.o
                                                  build/mega/production/startup.o
EMACxIPGR                                         /Applications/microchip/mplabc32/v1.11a/bin/../lib/gcc/pic32mx/3.4.4/../../../../pic32mx/lib/./proc/32MX795F512L/processor.o
                                                  build/mega/production/startup.o
EMACxIPGRCLR                                      /Applications/microchip/mplabc32/v1.11a/bin/../lib/gcc/pic32mx/3.4.4/../../../../pic32mx/lib/./proc/32MX795F512L/processor.o
                                                  build/mega/production/startup.o
EMACxIPGRINV                                      /Applications/microchip/mplabc32/v1.11a/bin/../lib/gcc/pic32mx/3.4.4/../../../../pic32mx/lib/./proc/32MX795F512L/processor.o
                                                  build/mega/production/startup.o
EMACxIPGRSET                                      /Applications/microchip/mplabc32/v1.11a/bin/../lib/gcc/pic32mx/3.4.4/../../../../pic32mx/lib/./proc/32MX795F512L/processor.o
                                                  build/mega/production/startup.o
EMACxIPGT                                         /Applications/microchip/mplabc32/v1.11a/bin/../lib/gcc/pic32mx/3.4.4/../../../../pic32mx/lib/./proc/32MX795F512L/processor.o
                                                  build/mega/production/startup.o
EMACxIPGTCLR                                      /Applications/microchip/mplabc32/v1.11a/bin/../lib/gcc/pic32mx/3.4.4/../../../../pic32mx/lib/./proc/32MX795F512L/processor.o
                                                  build/mega/production/startup.o
EMACxIPGTINV                                      /Applications/microchip/mplabc32/v1.11a/bin/../lib/gcc/pic32mx/3.4.4/../../../../pic32mx/lib/./proc/32MX795F512L/processor.o
                                                  build/mega/production/startup.o
EMACxIPGTSET                                      /Applications/microchip/mplabc32/v1.11a/bin/../lib/gcc/pic32mx/3.4.4/../../../../pic32mx/lib/./proc/32MX795F512L/processor.o
                                                  build/mega/production/startup.o
EMACxMADR                                         /Applications/microchip/mplabc32/v1.11a/bin/../lib/gcc/pic32mx/3.4.4/../../../../pic32mx/lib/./proc/32MX795F512L/processor.o
                                                  build/mega/production/startup.o
EMACxMADRCLR                                      /Applications/microchip/mplabc32/v1.11a/bin/../lib/gcc/pic32mx/3.4.4/../../../../pic32mx/lib/./proc/32MX795F512L/processor.o
                                                  build/mega/production/startup.o
EMACxMADRINV                                      /Applications/microchip/mplabc32/v1.11a/bin/../lib/gcc/pic32mx/3.4.4/../../../../pic32mx/lib/./proc/32MX795F512L/processor.o
                                                  build/mega/production/startup.o
EMACxMADRSET                                      /Applications/microchip/mplabc32/v1.11a/bin/../lib/gcc/pic32mx/3.4.4/../../../../pic32mx/lib/./proc/32MX795F512L/processor.o
                                                  build/mega/production/startup.o
EMACxMAXF                                         /Applications/microchip/mplabc32/v1.11a/bin/../lib/gcc/pic32mx/3.4.4/../../../../pic32mx/lib/./proc/32MX795F512L/processor.o
                                                  build/mega/production/startup.o
EMACxMAXFCLR                                      /Applications/microchip/mplabc32/v1.11a/bin/../lib/gcc/pic32mx/3.4.4/../../../../pic32mx/lib/./proc/32MX795F512L/processor.o
                                                  build/mega/production/startup.o
EMACxMAXFINV                                      /Applications/microchip/mplabc32/v1.11a/bin/../lib/gcc/pic32mx/3.4.4/../../../../pic32mx/lib/./proc/32MX795F512L/processor.o
                                                  build/mega/production/startup.o
EMACxMAXFSET                                      /Applications/microchip/mplabc32/v1.11a/bin/../lib/gcc/pic32mx/3.4.4/../../../../pic32mx/lib/./proc/32MX795F512L/processor.o
                                                  build/mega/production/startup.o
EMACxMCFG                                         /Applications/microchip/mplabc32/v1.11a/bin/../lib/gcc/pic32mx/3.4.4/../../../../pic32mx/lib/./proc/32MX795F512L/processor.o
                                                  build/mega/production/startup.o
EMACxMCFGCLR                                      /Applications/microchip/mplabc32/v1.11a/bin/../lib/gcc/pic32mx/3.4.4/../../../../pic32mx/lib/./proc/32MX795F512L/processor.o
                                                  build/mega/production/startup.o
EMACxMCFGINV                                      /Applications/microchip/mplabc32/v1.11a/bin/../lib/gcc/pic32mx/3.4.4/../../../../pic32mx/lib/./proc/32MX795F512L/processor.o
                                                  build/mega/production/startup.o
EMACxMCFGSET                                      /Applications/microchip/mplabc32/v1.11a/bin/../lib/gcc/pic32mx/3.4.4/../../../../pic32mx/lib/./proc/32MX795F512L/processor.o
                                                  build/mega/production/startup.o
EMACxMCMD                                         /Applications/microchip/mplabc32/v1.11a/bin/../lib/gcc/pic32mx/3.4.4/../../../../pic32mx/lib/./proc/32MX795F512L/processor.o
                                                  build/mega/production/startup.o
EMACxMCMDCLR                                      /Applications/microchip/mplabc32/v1.11a/bin/../lib/gcc/pic32mx/3.4.4/../../../../pic32mx/lib/./proc/32MX795F512L/processor.o
                                                  build/mega/production/startup.o
EMACxMCMDINV                                      /Applications/microchip/mplabc32/v1.11a/bin/../lib/gcc/pic32mx/3.4.4/../../../../pic32mx/lib/./proc/32MX795F512L/processor.o
                                                  build/mega/production/startup.o
EMACxMCMDSET                                      /Applications/microchip/mplabc32/v1.11a/bin/../lib/gcc/pic32mx/3.4.4/../../../../pic32mx/lib/./proc/32MX795F512L/processor.o
                                                  build/mega/production/startup.o
EMACxMIND                                         /Applications/microchip/mplabc32/v1.11a/bin/../lib/gcc/pic32mx/3.4.4/../../../../pic32mx/lib/./proc/32MX795F512L/processor.o
                                                  build/mega/production/startup.o
EMACxMINDCLR                                      /Applications/microchip/mplabc32/v1.11a/bin/../lib/gcc/pic32mx/3.4.4/../../../../pic32mx/lib/./proc/32MX795F512L/processor.o
                                                  build/mega/production/startup.o
EMACxMINDINV                                      /Applications/microchip/mplabc32/v1.11a/bin/../lib/gcc/pic32mx/3.4.4/../../../../pic32mx/lib/./proc/32MX795F512L/processor.o
                                                  build/mega/production/startup.o
EMACxMINDSET                                      /Applications/microchip/mplabc32/v1.11a/bin/../lib/gcc/pic32mx/3.4.4/../../../../pic32mx/lib/./proc/32MX795F512L/processor.o
                                                  build/mega/production/startup.o
EMACxMRDD                                         /Applications/microchip/mplabc32/v1.11a/bin/../lib/gcc/pic32mx/3.4.4/../../../../pic32mx/lib/./proc/32MX795F512L/processor.o
                                                  build/mega/production/startup.o
EMACxMRDDCLR                                      /Applications/microchip/mplabc32/v1.11a/bin/../lib/gcc/pic32mx/3.4.4/../../../../pic32mx/lib/./proc/32MX795F512L/processor.o
                                                  build/mega/production/startup.o
EMACxMRDDINV                                      /Applications/microchip/mplabc32/v1.11a/bin/../lib/gcc/pic32mx/3.4.4/../../../../pic32mx/lib/./proc/32MX795F512L/processor.o
                                                  build/mega/production/startup.o
EMACxMRDDSET                                      /Applications/microchip/mplabc32/v1.11a/bin/../lib/gcc/pic32mx/3.4.4/../../../../pic32mx/lib/./proc/32MX795F512L/processor.o
                                                  build/mega/production/startup.o
EMACxMWTD                                         /Applications/microchip/mplabc32/v1.11a/bin/../lib/gcc/pic32mx/3.4.4/../../../../pic32mx/lib/./proc/32MX795F512L/processor.o
                                                  build/mega/production/startup.o
EMACxMWTDCLR                                      /Applications/microchip/mplabc32/v1.11a/bin/../lib/gcc/pic32mx/3.4.4/../../../../pic32mx/lib/./proc/32MX795F512L/processor.o
                                                  build/mega/production/startup.o
EMACxMWTDINV                                      /Applications/microchip/mplabc32/v1.11a/bin/../lib/gcc/pic32mx/3.4.4/../../../../pic32mx/lib/./proc/32MX795F512L/processor.o
                                                  build/mega/production/startup.o
EMACxMWTDSET                                      /Applications/microchip/mplabc32/v1.11a/bin/../lib/gcc/pic32mx/3.4.4/../../../../pic32mx/lib/./proc/32MX795F512L/processor.o
                                                  build/mega/production/startup.o
EMACxSA0                                          /Applications/microchip/mplabc32/v1.11a/bin/../lib/gcc/pic32mx/3.4.4/../../../../pic32mx/lib/./proc/32MX795F512L/processor.o
                                                  build/mega/production/startup.o
EMACxSA0CLR                                       /Applications/microchip/mplabc32/v1.11a/bin/../lib/gcc/pic32mx/3.4.4/../../../../pic32mx/lib/./proc/32MX795F512L/processor.o
                                                  build/mega/production/startup.o
EMACxSA0INV                                       /Applications/microchip/mplabc32/v1.11a/bin/../lib/gcc/pic32mx/3.4.4/../../../../pic32mx/lib/./proc/32MX795F512L/processor.o
                                                  build/mega/production/startup.o
EMACxSA0SET                                       /Applications/microchip/mplabc32/v1.11a/bin/../lib/gcc/pic32mx/3.4.4/../../../../pic32mx/lib/./proc/32MX795F512L/processor.o
                                                  build/mega/production/startup.o
EMACxSA1                                          /Applications/microchip/mplabc32/v1.11a/bin/../lib/gcc/pic32mx/3.4.4/../../../../pic32mx/lib/./proc/32MX795F512L/processor.o
                                                  build/mega/production/startup.o
EMACxSA1CLR                                       /Applications/microchip/mplabc32/v1.11a/bin/../lib/gcc/pic32mx/3.4.4/../../../../pic32mx/lib/./proc/32MX795F512L/processor.o
                                                  build/mega/production/startup.o
EMACxSA1INV                                       /Applications/microchip/mplabc32/v1.11a/bin/../lib/gcc/pic32mx/3.4.4/../../../../pic32mx/lib/./proc/32MX795F512L/processor.o
                                                  build/mega/production/startup.o
EMACxSA1SET                                       /Applications/microchip/mplabc32/v1.11a/bin/../lib/gcc/pic32mx/3.4.4/../../../../pic32mx/lib/./proc/32MX795F512L/processor.o
                                                  build/mega/production/startup.o
EMACxSA2                                          /Applications/microchip/mplabc32/v1.11a/bin/../lib/gcc/pic32mx/3.4.4/../../../../pic32mx/lib/./proc/32MX795F512L/processor.o
                                                  build/mega/production/startup.o
EMACxSA2CLR                                       /Applications/microchip/mplabc32/v1.11a/bin/../lib/gcc/pic32mx/3.4.4/../../../../pic32mx/lib/./proc/32MX795F512L/processor.o
                                                  build/mega/production/startup.o
EMACxSA2INV                                       /Applications/microchip/mplabc32/v1.11a/bin/../lib/gcc/pic32mx/3.4.4/../../../../pic32mx/lib/./proc/32MX795F512L/processor.o
                                                  build/mega/production/startup.o
EMACxSA2SET                                       /Applications/microchip/mplabc32/v1.11a/bin/../lib/gcc/pic32mx/3.4.4/../../../../pic32mx/lib/./proc/32MX795F512L/processor.o
                                                  build/mega/production/startup.o
EMACxSUPP                                         /Applications/microchip/mplabc32/v1.11a/bin/../lib/gcc/pic32mx/3.4.4/../../../../pic32mx/lib/./proc/32MX795F512L/processor.o
                                                  build/mega/production/startup.o
EMACxSUPPCLR                                      /Applications/microchip/mplabc32/v1.11a/bin/../lib/gcc/pic32mx/3.4.4/../../../../pic32mx/lib/./proc/32MX795F512L/processor.o
                                                  build/mega/production/startup.o
EMACxSUPPINV                                      /Applications/microchip/mplabc32/v1.11a/bin/../lib/gcc/pic32mx/3.4.4/../../../../pic32mx/lib/./proc/32MX795F512L/processor.o
                                                  build/mega/production/startup.o
EMACxSUPPSET                                      /Applications/microchip/mplabc32/v1.11a/bin/../lib/gcc/pic32mx/3.4.4/../../../../pic32mx/lib/./proc/32MX795F512L/processor.o
                                                  build/mega/production/startup.o
EMACxTEST                                         /Applications/microchip/mplabc32/v1.11a/bin/../lib/gcc/pic32mx/3.4.4/../../../../pic32mx/lib/./proc/32MX795F512L/processor.o
                                                  build/mega/production/startup.o
EMACxTESTCLR                                      /Applications/microchip/mplabc32/v1.11a/bin/../lib/gcc/pic32mx/3.4.4/../../../../pic32mx/lib/./proc/32MX795F512L/processor.o
                                                  build/mega/production/startup.o
EMACxTESTINV                                      /Applications/microchip/mplabc32/v1.11a/bin/../lib/gcc/pic32mx/3.4.4/../../../../pic32mx/lib/./proc/32MX795F512L/processor.o
                                                  build/mega/production/startup.o
EMACxTESTSET                                      /Applications/microchip/mplabc32/v1.11a/bin/../lib/gcc/pic32mx/3.4.4/../../../../pic32mx/lib/./proc/32MX795F512L/processor.o
                                                  build/mega/production/startup.o
ETHALGNERR                                        /Applications/microchip/mplabc32/v1.11a/bin/../lib/gcc/pic32mx/3.4.4/../../../../pic32mx/lib/./proc/32MX795F512L/processor.o
                                                  build/mega/production/startup.o
ETHALGNERRCLR                                     /Applications/microchip/mplabc32/v1.11a/bin/../lib/gcc/pic32mx/3.4.4/../../../../pic32mx/lib/./proc/32MX795F512L/processor.o
                                                  build/mega/production/startup.o
ETHALGNERRINV                                     /Applications/microchip/mplabc32/v1.11a/bin/../lib/gcc/pic32mx/3.4.4/../../../../pic32mx/lib/./proc/32MX795F512L/processor.o
                                                  build/mega/production/startup.o
ETHALGNERRSET                                     /Applications/microchip/mplabc32/v1.11a/bin/../lib/gcc/pic32mx/3.4.4/../../../../pic32mx/lib/./proc/32MX795F512L/processor.o
                                                  build/mega/production/startup.o
ETHCON1                                           /Applications/microchip/mplabc32/v1.11a/bin/../lib/gcc/pic32mx/3.4.4/../../../../pic32mx/lib/./proc/32MX795F512L/processor.o
                                                  build/mega/production/startup.o
ETHCON1CLR                                        /Applications/microchip/mplabc32/v1.11a/bin/../lib/gcc/pic32mx/3.4.4/../../../../pic32mx/lib/./proc/32MX795F512L/processor.o
                                                  build/mega/production/startup.o
ETHCON1INV                                        /Applications/microchip/mplabc32/v1.11a/bin/../lib/gcc/pic32mx/3.4.4/../../../../pic32mx/lib/./proc/32MX795F512L/processor.o
                                                  build/mega/production/startup.o
ETHCON1SET                                        /Applications/microchip/mplabc32/v1.11a/bin/../lib/gcc/pic32mx/3.4.4/../../../../pic32mx/lib/./proc/32MX795F512L/processor.o
                                                  build/mega/production/startup.o
ETHCON2                                           /Applications/microchip/mplabc32/v1.11a/bin/../lib/gcc/pic32mx/3.4.4/../../../../pic32mx/lib/./proc/32MX795F512L/processor.o
                                                  build/mega/production/startup.o
ETHCON2CLR                                        /Applications/microchip/mplabc32/v1.11a/bin/../lib/gcc/pic32mx/3.4.4/../../../../pic32mx/lib/./proc/32MX795F512L/processor.o
                                                  build/mega/production/startup.o
ETHCON2INV                                        /Applications/microchip/mplabc32/v1.11a/bin/../lib/gcc/pic32mx/3.4.4/../../../../pic32mx/lib/./proc/32MX795F512L/processor.o
                                                  build/mega/production/startup.o
ETHCON2SET                                        /Applications/microchip/mplabc32/v1.11a/bin/../lib/gcc/pic32mx/3.4.4/../../../../pic32mx/lib/./proc/32MX795F512L/processor.o
                                                  build/mega/production/startup.o
ETHFCSERR                                         /Applications/microchip/mplabc32/v1.11a/bin/../lib/gcc/pic32mx/3.4.4/../../../../pic32mx/lib/./proc/32MX795F512L/processor.o
                                                  build/mega/production/startup.o
ETHFCSERRCLR                                      /Applications/microchip/mplabc32/v1.11a/bin/../lib/gcc/pic32mx/3.4.4/../../../../pic32mx/lib/./proc/32MX795F512L/processor.o
                                                  build/mega/production/startup.o
ETHFCSERRINV                                      /Applications/microchip/mplabc32/v1.11a/bin/../lib/gcc/pic32mx/3.4.4/../../../../pic32mx/lib/./proc/32MX795F512L/processor.o
                                                  build/mega/production/startup.o
ETHFCSERRSET                                      /Applications/microchip/mplabc32/v1.11a/bin/../lib/gcc/pic32mx/3.4.4/../../../../pic32mx/lib/./proc/32MX795F512L/processor.o
                                                  build/mega/production/startup.o
ETHFRMRXOK                                        /Applications/microchip/mplabc32/v1.11a/bin/../lib/gcc/pic32mx/3.4.4/../../../../pic32mx/lib/./proc/32MX795F512L/processor.o
                                                  build/mega/production/startup.o
ETHFRMRXOKCLR                                     /Applications/microchip/mplabc32/v1.11a/bin/../lib/gcc/pic32mx/3.4.4/../../../../pic32mx/lib/./proc/32MX795F512L/processor.o
                                                  build/mega/production/startup.o
ETHFRMRXOKINV                                     /Applications/microchip/mplabc32/v1.11a/bin/../lib/gcc/pic32mx/3.4.4/../../../../pic32mx/lib/./proc/32MX795F512L/processor.o
                                                  build/mega/production/startup.o
ETHFRMRXOKSET                                     /Applications/microchip/mplabc32/v1.11a/bin/../lib/gcc/pic32mx/3.4.4/../../../../pic32mx/lib/./proc/32MX795F512L/processor.o
                                                  build/mega/production/startup.o
ETHFRMTXOK                                        /Applications/microchip/mplabc32/v1.11a/bin/../lib/gcc/pic32mx/3.4.4/../../../../pic32mx/lib/./proc/32MX795F512L/processor.o
                                                  build/mega/production/startup.o
ETHFRMTXOKCLR                                     /Applications/microchip/mplabc32/v1.11a/bin/../lib/gcc/pic32mx/3.4.4/../../../../pic32mx/lib/./proc/32MX795F512L/processor.o
                                                  build/mega/production/startup.o
ETHFRMTXOKINV                                     /Applications/microchip/mplabc32/v1.11a/bin/../lib/gcc/pic32mx/3.4.4/../../../../pic32mx/lib/./proc/32MX795F512L/processor.o
                                                  build/mega/production/startup.o
ETHFRMTXOKSET                                     /Applications/microchip/mplabc32/v1.11a/bin/../lib/gcc/pic32mx/3.4.4/../../../../pic32mx/lib/./proc/32MX795F512L/processor.o
                                                  build/mega/production/startup.o
ETHHT0                                            /Applications/microchip/mplabc32/v1.11a/bin/../lib/gcc/pic32mx/3.4.4/../../../../pic32mx/lib/./proc/32MX795F512L/processor.o
                                                  build/mega/production/startup.o
ETHHT0CLR                                         /Applications/microchip/mplabc32/v1.11a/bin/../lib/gcc/pic32mx/3.4.4/../../../../pic32mx/lib/./proc/32MX795F512L/processor.o
                                                  build/mega/production/startup.o
ETHHT0INV                                         /Applications/microchip/mplabc32/v1.11a/bin/../lib/gcc/pic32mx/3.4.4/../../../../pic32mx/lib/./proc/32MX795F512L/processor.o
                                                  build/mega/production/startup.o
ETHHT0SET                                         /Applications/microchip/mplabc32/v1.11a/bin/../lib/gcc/pic32mx/3.4.4/../../../../pic32mx/lib/./proc/32MX795F512L/processor.o
                                                  build/mega/production/startup.o
ETHHT1                                            /Applications/microchip/mplabc32/v1.11a/bin/../lib/gcc/pic32mx/3.4.4/../../../../pic32mx/lib/./proc/32MX795F512L/processor.o
                                                  build/mega/production/startup.o
ETHHT1CLR                                         /Applications/microchip/mplabc32/v1.11a/bin/../lib/gcc/pic32mx/3.4.4/../../../../pic32mx/lib/./proc/32MX795F512L/processor.o
                                                  build/mega/production/startup.o
ETHHT1INV                                         /Applications/microchip/mplabc32/v1.11a/bin/../lib/gcc/pic32mx/3.4.4/../../../../pic32mx/lib/./proc/32MX795F512L/processor.o
                                                  build/mega/production/startup.o
ETHHT1SET                                         /Applications/microchip/mplabc32/v1.11a/bin/../lib/gcc/pic32mx/3.4.4/../../../../pic32mx/lib/./proc/32MX795F512L/processor.o
                                                  build/mega/production/startup.o
ETHIEN                                            /Applications/microchip/mplabc32/v1.11a/bin/../lib/gcc/pic32mx/3.4.4/../../../../pic32mx/lib/./proc/32MX795F512L/processor.o
                                                  build/mega/production/startup.o
ETHIENCLR                                         /Applications/microchip/mplabc32/v1.11a/bin/../lib/gcc/pic32mx/3.4.4/../../../../pic32mx/lib/./proc/32MX795F512L/processor.o
                                                  build/mega/production/startup.o
ETHIENINV                                         /Applications/microchip/mplabc32/v1.11a/bin/../lib/gcc/pic32mx/3.4.4/../../../../pic32mx/lib/./proc/32MX795F512L/processor.o
                                                  build/mega/production/startup.o
ETHIENSET                                         /Applications/microchip/mplabc32/v1.11a/bin/../lib/gcc/pic32mx/3.4.4/../../../../pic32mx/lib/./proc/32MX795F512L/processor.o
                                                  build/mega/production/startup.o
ETHIRQ                                            /Applications/microchip/mplabc32/v1.11a/bin/../lib/gcc/pic32mx/3.4.4/../../../../pic32mx/lib/./proc/32MX795F512L/processor.o
                                                  build/mega/production/startup.o
ETHIRQCLR                                         /Applications/microchip/mplabc32/v1.11a/bin/../lib/gcc/pic32mx/3.4.4/../../../../pic32mx/lib/./proc/32MX795F512L/processor.o
                                                  build/mega/production/startup.o
ETHIRQINV                                         /Applications/microchip/mplabc32/v1.11a/bin/../lib/gcc/pic32mx/3.4.4/../../../../pic32mx/lib/./proc/32MX795F512L/processor.o
                                                  build/mega/production/startup.o
ETHIRQSET                                         /Applications/microchip/mplabc32/v1.11a/bin/../lib/gcc/pic32mx/3.4.4/../../../../pic32mx/lib/./proc/32MX795F512L/processor.o
                                                  build/mega/production/startup.o
ETHMCOLFRM                                        /Applications/microchip/mplabc32/v1.11a/bin/../lib/gcc/pic32mx/3.4.4/../../../../pic32mx/lib/./proc/32MX795F512L/processor.o
                                                  build/mega/production/startup.o
ETHMCOLFRMCLR                                     /Applications/microchip/mplabc32/v1.11a/bin/../lib/gcc/pic32mx/3.4.4/../../../../pic32mx/lib/./proc/32MX795F512L/processor.o
                                                  build/mega/production/startup.o
ETHMCOLFRMINV                                     /Applications/microchip/mplabc32/v1.11a/bin/../lib/gcc/pic32mx/3.4.4/../../../../pic32mx/lib/./proc/32MX795F512L/processor.o
                                                  build/mega/production/startup.o
ETHMCOLFRMSET                                     /Applications/microchip/mplabc32/v1.11a/bin/../lib/gcc/pic32mx/3.4.4/../../../../pic32mx/lib/./proc/32MX795F512L/processor.o
                                                  build/mega/production/startup.o
ETHPMCS                                           /Applications/microchip/mplabc32/v1.11a/bin/../lib/gcc/pic32mx/3.4.4/../../../../pic32mx/lib/./proc/32MX795F512L/processor.o
                                                  build/mega/production/startup.o
ETHPMCSCLR                                        /Applications/microchip/mplabc32/v1.11a/bin/../lib/gcc/pic32mx/3.4.4/../../../../pic32mx/lib/./proc/32MX795F512L/processor.o
                                                  build/mega/production/startup.o
ETHPMCSINV                                        /Applications/microchip/mplabc32/v1.11a/bin/../lib/gcc/pic32mx/3.4.4/../../../../pic32mx/lib/./proc/32MX795F512L/processor.o
                                                  build/mega/production/startup.o
ETHPMCSSET                                        /Applications/microchip/mplabc32/v1.11a/bin/../lib/gcc/pic32mx/3.4.4/../../../../pic32mx/lib/./proc/32MX795F512L/processor.o
                                                  build/mega/production/startup.o
ETHPMM0                                           /Applications/microchip/mplabc32/v1.11a/bin/../lib/gcc/pic32mx/3.4.4/../../../../pic32mx/lib/./proc/32MX795F512L/processor.o
                                                  build/mega/production/startup.o
ETHPMM0CLR                                        /Applications/microchip/mplabc32/v1.11a/bin/../lib/gcc/pic32mx/3.4.4/../../../../pic32mx/lib/./proc/32MX795F512L/processor.o
                                                  build/mega/production/startup.o
ETHPMM0INV                                        /Applications/microchip/mplabc32/v1.11a/bin/../lib/gcc/pic32mx/3.4.4/../../../../pic32mx/lib/./proc/32MX795F512L/processor.o
                                                  build/mega/production/startup.o
ETHPMM0SET                                        /Applications/microchip/mplabc32/v1.11a/bin/../lib/gcc/pic32mx/3.4.4/../../../../pic32mx/lib/./proc/32MX795F512L/processor.o
                                                  build/mega/production/startup.o
ETHPMM1                                           /Applications/microchip/mplabc32/v1.11a/bin/../lib/gcc/pic32mx/3.4.4/../../../../pic32mx/lib/./proc/32MX795F512L/processor.o
                                                  build/mega/production/startup.o
ETHPMM1CLR                                        /Applications/microchip/mplabc32/v1.11a/bin/../lib/gcc/pic32mx/3.4.4/../../../../pic32mx/lib/./proc/32MX795F512L/processor.o
                                                  build/mega/production/startup.o
ETHPMM1INV                                        /Applications/microchip/mplabc32/v1.11a/bin/../lib/gcc/pic32mx/3.4.4/../../../../pic32mx/lib/./proc/32MX795F512L/processor.o
                                                  build/mega/production/startup.o
ETHPMM1SET                                        /Applications/microchip/mplabc32/v1.11a/bin/../lib/gcc/pic32mx/3.4.4/../../../../pic32mx/lib/./proc/32MX795F512L/processor.o
                                                  build/mega/production/startup.o
ETHPMO                                            /Applications/microchip/mplabc32/v1.11a/bin/../lib/gcc/pic32mx/3.4.4/../../../../pic32mx/lib/./proc/32MX795F512L/processor.o
                                                  build/mega/production/startup.o
ETHPMOCLR                                         /Applications/microchip/mplabc32/v1.11a/bin/../lib/gcc/pic32mx/3.4.4/../../../../pic32mx/lib/./proc/32MX795F512L/processor.o
                                                  build/mega/production/startup.o
ETHPMOINV                                         /Applications/microchip/mplabc32/v1.11a/bin/../lib/gcc/pic32mx/3.4.4/../../../../pic32mx/lib/./proc/32MX795F512L/processor.o
                                                  build/mega/production/startup.o
ETHPMOSET                                         /Applications/microchip/mplabc32/v1.11a/bin/../lib/gcc/pic32mx/3.4.4/../../../../pic32mx/lib/./proc/32MX795F512L/processor.o
                                                  build/mega/production/startup.o
ETHRXFC                                           /Applications/microchip/mplabc32/v1.11a/bin/../lib/gcc/pic32mx/3.4.4/../../../../pic32mx/lib/./proc/32MX795F512L/processor.o
                                                  build/mega/production/startup.o
ETHRXFCCLR                                        /Applications/microchip/mplabc32/v1.11a/bin/../lib/gcc/pic32mx/3.4.4/../../../../pic32mx/lib/./proc/32MX795F512L/processor.o
                                                  build/mega/production/startup.o
ETHRXFCINV                                        /Applications/microchip/mplabc32/v1.11a/bin/../lib/gcc/pic32mx/3.4.4/../../../../pic32mx/lib/./proc/32MX795F512L/processor.o
                                                  build/mega/production/startup.o
ETHRXFCSET                                        /Applications/microchip/mplabc32/v1.11a/bin/../lib/gcc/pic32mx/3.4.4/../../../../pic32mx/lib/./proc/32MX795F512L/processor.o
                                                  build/mega/production/startup.o
ETHRXOVFLOW                                       /Applications/microchip/mplabc32/v1.11a/bin/../lib/gcc/pic32mx/3.4.4/../../../../pic32mx/lib/./proc/32MX795F512L/processor.o
                                                  build/mega/production/startup.o
ETHRXOVFLOWCLR                                    /Applications/microchip/mplabc32/v1.11a/bin/../lib/gcc/pic32mx/3.4.4/../../../../pic32mx/lib/./proc/32MX795F512L/processor.o
                                                  build/mega/production/startup.o
ETHRXOVFLOWINV                                    /Applications/microchip/mplabc32/v1.11a/bin/../lib/gcc/pic32mx/3.4.4/../../../../pic32mx/lib/./proc/32MX795F512L/processor.o
                                                  build/mega/production/startup.o
ETHRXOVFLOWSET                                    /Applications/microchip/mplabc32/v1.11a/bin/../lib/gcc/pic32mx/3.4.4/../../../../pic32mx/lib/./proc/32MX795F512L/processor.o
                                                  build/mega/production/startup.o
ETHRXST                                           /Applications/microchip/mplabc32/v1.11a/bin/../lib/gcc/pic32mx/3.4.4/../../../../pic32mx/lib/./proc/32MX795F512L/processor.o
                                                  build/mega/production/startup.o
ETHRXSTCLR                                        /Applications/microchip/mplabc32/v1.11a/bin/../lib/gcc/pic32mx/3.4.4/../../../../pic32mx/lib/./proc/32MX795F512L/processor.o
                                                  build/mega/production/startup.o
ETHRXSTINV                                        /Applications/microchip/mplabc32/v1.11a/bin/../lib/gcc/pic32mx/3.4.4/../../../../pic32mx/lib/./proc/32MX795F512L/processor.o
                                                  build/mega/production/startup.o
ETHRXSTSET                                        /Applications/microchip/mplabc32/v1.11a/bin/../lib/gcc/pic32mx/3.4.4/../../../../pic32mx/lib/./proc/32MX795F512L/processor.o
                                                  build/mega/production/startup.o
ETHRXWM                                           /Applications/microchip/mplabc32/v1.11a/bin/../lib/gcc/pic32mx/3.4.4/../../../../pic32mx/lib/./proc/32MX795F512L/processor.o
                                                  build/mega/production/startup.o
ETHRXWMCLR                                        /Applications/microchip/mplabc32/v1.11a/bin/../lib/gcc/pic32mx/3.4.4/../../../../pic32mx/lib/./proc/32MX795F512L/processor.o
                                                  build/mega/production/startup.o
ETHRXWMINV                                        /Applications/microchip/mplabc32/v1.11a/bin/../lib/gcc/pic32mx/3.4.4/../../../../pic32mx/lib/./proc/32MX795F512L/processor.o
                                                  build/mega/production/startup.o
ETHRXWMSET                                        /Applications/microchip/mplabc32/v1.11a/bin/../lib/gcc/pic32mx/3.4.4/../../../../pic32mx/lib/./proc/32MX795F512L/processor.o
                                                  build/mega/production/startup.o
ETHSCOLFRM                                        /Applications/microchip/mplabc32/v1.11a/bin/../lib/gcc/pic32mx/3.4.4/../../../../pic32mx/lib/./proc/32MX795F512L/processor.o
                                                  build/mega/production/startup.o
ETHSCOLFRMCLR                                     /Applications/microchip/mplabc32/v1.11a/bin/../lib/gcc/pic32mx/3.4.4/../../../../pic32mx/lib/./proc/32MX795F512L/processor.o
                                                  build/mega/production/startup.o
ETHSCOLFRMINV                                     /Applications/microchip/mplabc32/v1.11a/bin/../lib/gcc/pic32mx/3.4.4/../../../../pic32mx/lib/./proc/32MX795F512L/processor.o
                                                  build/mega/production/startup.o
ETHSCOLFRMSET                                     /Applications/microchip/mplabc32/v1.11a/bin/../lib/gcc/pic32mx/3.4.4/../../../../pic32mx/lib/./proc/32MX795F512L/processor.o
                                                  build/mega/production/startup.o
ETHSTAT                                           /Applications/microchip/mplabc32/v1.11a/bin/../lib/gcc/pic32mx/3.4.4/../../../../pic32mx/lib/./proc/32MX795F512L/processor.o
                                                  build/mega/production/startup.o
ETHSTATCLR                                        /Applications/microchip/mplabc32/v1.11a/bin/../lib/gcc/pic32mx/3.4.4/../../../../pic32mx/lib/./proc/32MX795F512L/processor.o
                                                  build/mega/production/startup.o
ETHSTATINV                                        /Applications/microchip/mplabc32/v1.11a/bin/../lib/gcc/pic32mx/3.4.4/../../../../pic32mx/lib/./proc/32MX795F512L/processor.o
                                                  build/mega/production/startup.o
ETHSTATSET                                        /Applications/microchip/mplabc32/v1.11a/bin/../lib/gcc/pic32mx/3.4.4/../../../../pic32mx/lib/./proc/32MX795F512L/processor.o
                                                  build/mega/production/startup.o
ETHTXST                                           /Applications/microchip/mplabc32/v1.11a/bin/../lib/gcc/pic32mx/3.4.4/../../../../pic32mx/lib/./proc/32MX795F512L/processor.o
                                                  build/mega/production/startup.o
ETHTXSTCLR                                        /Applications/microchip/mplabc32/v1.11a/bin/../lib/gcc/pic32mx/3.4.4/../../../../pic32mx/lib/./proc/32MX795F512L/processor.o
                                                  build/mega/production/startup.o
ETHTXSTINV                                        /Applications/microchip/mplabc32/v1.11a/bin/../lib/gcc/pic32mx/3.4.4/../../../../pic32mx/lib/./proc/32MX795F512L/processor.o
                                                  build/mega/production/startup.o
ETHTXSTSET                                        /Applications/microchip/mplabc32/v1.11a/bin/../lib/gcc/pic32mx/3.4.4/../../../../pic32mx/lib/./proc/32MX795F512L/processor.o
                                                  build/mega/production/startup.o
I2C1AADD                                          /Applications/microchip/mplabc32/v1.11a/bin/../lib/gcc/pic32mx/3.4.4/../../../../pic32mx/lib/./proc/32MX795F512L/processor.o
                                                  build/mega/production/startup.o
I2C1AADDCLR                                       /Applications/microchip/mplabc32/v1.11a/bin/../lib/gcc/pic32mx/3.4.4/../../../../pic32mx/lib/./proc/32MX795F512L/processor.o
                                                  build/mega/production/startup.o
I2C1AADDINV                                       /Applications/microchip/mplabc32/v1.11a/bin/../lib/gcc/pic32mx/3.4.4/../../../../pic32mx/lib/./proc/32MX795F512L/processor.o
                                                  build/mega/production/startup.o
I2C1AADDSET                                       /Applications/microchip/mplabc32/v1.11a/bin/../lib/gcc/pic32mx/3.4.4/../../../../pic32mx/lib/./proc/32MX795F512L/processor.o
                                                  build/mega/production/startup.o
I2C1ABRG                                          /Applications/microchip/mplabc32/v1.11a/bin/../lib/gcc/pic32mx/3.4.4/../../../../pic32mx/lib/./proc/32MX795F512L/processor.o
                                                  build/mega/production/startup.o
I2C1ABRGCLR                                       /Applications/microchip/mplabc32/v1.11a/bin/../lib/gcc/pic32mx/3.4.4/../../../../pic32mx/lib/./proc/32MX795F512L/processor.o
                                                  build/mega/production/startup.o
I2C1ABRGINV                                       /Applications/microchip/mplabc32/v1.11a/bin/../lib/gcc/pic32mx/3.4.4/../../../../pic32mx/lib/./proc/32MX795F512L/processor.o
                                                  build/mega/production/startup.o
I2C1ABRGSET                                       /Applications/microchip/mplabc32/v1.11a/bin/../lib/gcc/pic32mx/3.4.4/../../../../pic32mx/lib/./proc/32MX795F512L/processor.o
                                                  build/mega/production/startup.o
I2C1ACON                                          /Applications/microchip/mplabc32/v1.11a/bin/../lib/gcc/pic32mx/3.4.4/../../../../pic32mx/lib/./proc/32MX795F512L/processor.o
                                                  build/mega/production/startup.o
I2C1ACONCLR                                       /Applications/microchip/mplabc32/v1.11a/bin/../lib/gcc/pic32mx/3.4.4/../../../../pic32mx/lib/./proc/32MX795F512L/processor.o
                                                  build/mega/production/startup.o
I2C1ACONINV                                       /Applications/microchip/mplabc32/v1.11a/bin/../lib/gcc/pic32mx/3.4.4/../../../../pic32mx/lib/./proc/32MX795F512L/processor.o
                                                  build/mega/production/startup.o
I2C1ACONSET                                       /Applications/microchip/mplabc32/v1.11a/bin/../lib/gcc/pic32mx/3.4.4/../../../../pic32mx/lib/./proc/32MX795F512L/processor.o
                                                  build/mega/production/startup.o
I2C1ADD                                           /Applications/microchip/mplabc32/v1.11a/bin/../lib/gcc/pic32mx/3.4.4/../../../../pic32mx/lib/./proc/32MX795F512L/processor.o
                                                  /Applications/microchip/mplabc32/v1.11a/bin/../lib/gcc/pic32mx/3.4.4/../../../../pic32mx/lib/libc.a(memcpy.o)
                                                  build/mega/production/startup.o
I2C1ADDCLR                                        /Applications/microchip/mplabc32/v1.11a/bin/../lib/gcc/pic32mx/3.4.4/../../../../pic32mx/lib/./proc/32MX795F512L/processor.o
                                                  /Applications/microchip/mplabc32/v1.11a/bin/../lib/gcc/pic32mx/3.4.4/../../../../pic32mx/lib/libc.a(memcpy.o)
                                                  build/mega/production/startup.o
I2C1ADDINV                                        /Applications/microchip/mplabc32/v1.11a/bin/../lib/gcc/pic32mx/3.4.4/../../../../pic32mx/lib/./proc/32MX795F512L/processor.o
                                                  /Applications/microchip/mplabc32/v1.11a/bin/../lib/gcc/pic32mx/3.4.4/../../../../pic32mx/lib/libc.a(memcpy.o)
                                                  build/mega/production/startup.o
I2C1ADDSET                                        /Applications/microchip/mplabc32/v1.11a/bin/../lib/gcc/pic32mx/3.4.4/../../../../pic32mx/lib/./proc/32MX795F512L/processor.o
                                                  /Applications/microchip/mplabc32/v1.11a/bin/../lib/gcc/pic32mx/3.4.4/../../../../pic32mx/lib/libc.a(memcpy.o)
                                                  build/mega/production/startup.o
I2C1AMSK                                          /Applications/microchip/mplabc32/v1.11a/bin/../lib/gcc/pic32mx/3.4.4/../../../../pic32mx/lib/./proc/32MX795F512L/processor.o
                                                  build/mega/production/startup.o
I2C1AMSKCLR                                       /Applications/microchip/mplabc32/v1.11a/bin/../lib/gcc/pic32mx/3.4.4/../../../../pic32mx/lib/./proc/32MX795F512L/processor.o
                                                  build/mega/production/startup.o
I2C1AMSKINV                                       /Applications/microchip/mplabc32/v1.11a/bin/../lib/gcc/pic32mx/3.4.4/../../../../pic32mx/lib/./proc/32MX795F512L/processor.o
                                                  build/mega/production/startup.o
I2C1AMSKSET                                       /Applications/microchip/mplabc32/v1.11a/bin/../lib/gcc/pic32mx/3.4.4/../../../../pic32mx/lib/./proc/32MX795F512L/processor.o
                                                  build/mega/production/startup.o
I2C1ARCV                                          /Applications/microchip/mplabc32/v1.11a/bin/../lib/gcc/pic32mx/3.4.4/../../../../pic32mx/lib/./proc/32MX795F512L/processor.o
                                                  build/mega/production/startup.o
I2C1ASTAT                                         /Applications/microchip/mplabc32/v1.11a/bin/../lib/gcc/pic32mx/3.4.4/../../../../pic32mx/lib/./proc/32MX795F512L/processor.o
                                                  build/mega/production/startup.o
I2C1ASTATCLR                                      /Applications/microchip/mplabc32/v1.11a/bin/../lib/gcc/pic32mx/3.4.4/../../../../pic32mx/lib/./proc/32MX795F512L/processor.o
                                                  build/mega/production/startup.o
I2C1ASTATINV                                      /Applications/microchip/mplabc32/v1.11a/bin/../lib/gcc/pic32mx/3.4.4/../../../../pic32mx/lib/./proc/32MX795F512L/processor.o
                                                  build/mega/production/startup.o
I2C1ASTATSET                                      /Applications/microchip/mplabc32/v1.11a/bin/../lib/gcc/pic32mx/3.4.4/../../../../pic32mx/lib/./proc/32MX795F512L/processor.o
                                                  build/mega/production/startup.o
I2C1ATRN                                          /Applications/microchip/mplabc32/v1.11a/bin/../lib/gcc/pic32mx/3.4.4/../../../../pic32mx/lib/./proc/32MX795F512L/processor.o
                                                  build/mega/production/startup.o
I2C1ATRNCLR                                       /Applications/microchip/mplabc32/v1.11a/bin/../lib/gcc/pic32mx/3.4.4/../../../../pic32mx/lib/./proc/32MX795F512L/processor.o
                                                  build/mega/production/startup.o
I2C1ATRNINV                                       /Applications/microchip/mplabc32/v1.11a/bin/../lib/gcc/pic32mx/3.4.4/../../../../pic32mx/lib/./proc/32MX795F512L/processor.o
                                                  build/mega/production/startup.o
I2C1ATRNSET                                       /Applications/microchip/mplabc32/v1.11a/bin/../lib/gcc/pic32mx/3.4.4/../../../../pic32mx/lib/./proc/32MX795F512L/processor.o
                                                  build/mega/production/startup.o
I2C1BRG                                           /Applications/microchip/mplabc32/v1.11a/bin/../lib/gcc/pic32mx/3.4.4/../../../../pic32mx/lib/./proc/32MX795F512L/processor.o
                                                  /Applications/microchip/mplabc32/v1.11a/bin/../lib/gcc/pic32mx/3.4.4/../../../../pic32mx/lib/libc.a(memcpy.o)
                                                  build/mega/production/startup.o
I2C1BRGCLR                                        /Applications/microchip/mplabc32/v1.11a/bin/../lib/gcc/pic32mx/3.4.4/../../../../pic32mx/lib/./proc/32MX795F512L/processor.o
                                                  /Applications/microchip/mplabc32/v1.11a/bin/../lib/gcc/pic32mx/3.4.4/../../../../pic32mx/lib/libc.a(memcpy.o)
                                                  build/mega/production/startup.o
I2C1BRGINV                                        /Applications/microchip/mplabc32/v1.11a/bin/../lib/gcc/pic32mx/3.4.4/../../../../pic32mx/lib/./proc/32MX795F512L/processor.o
                                                  /Applications/microchip/mplabc32/v1.11a/bin/../lib/gcc/pic32mx/3.4.4/../../../../pic32mx/lib/libc.a(memcpy.o)
                                                  build/mega/production/startup.o
I2C1BRGSET                                        /Applications/microchip/mplabc32/v1.11a/bin/../lib/gcc/pic32mx/3.4.4/../../../../pic32mx/lib/./proc/32MX795F512L/processor.o
                                                  /Applications/microchip/mplabc32/v1.11a/bin/../lib/gcc/pic32mx/3.4.4/../../../../pic32mx/lib/libc.a(memcpy.o)
                                                  build/mega/production/startup.o
I2C1CON                                           /Applications/microchip/mplabc32/v1.11a/bin/../lib/gcc/pic32mx/3.4.4/../../../../pic32mx/lib/./proc/32MX795F512L/processor.o
                                                  /Applications/microchip/mplabc32/v1.11a/bin/../lib/gcc/pic32mx/3.4.4/../../../../pic32mx/lib/libc.a(memcpy.o)
                                                  build/mega/production/startup.o
I2C1CONCLR                                        /Applications/microchip/mplabc32/v1.11a/bin/../lib/gcc/pic32mx/3.4.4/../../../../pic32mx/lib/./proc/32MX795F512L/processor.o
                                                  /Applications/microchip/mplabc32/v1.11a/bin/../lib/gcc/pic32mx/3.4.4/../../../../pic32mx/lib/libc.a(memcpy.o)
                                                  build/mega/production/startup.o
I2C1CONINV                                        /Applications/microchip/mplabc32/v1.11a/bin/../lib/gcc/pic32mx/3.4.4/../../../../pic32mx/lib/./proc/32MX795F512L/processor.o
                                                  /Applications/microchip/mplabc32/v1.11a/bin/../lib/gcc/pic32mx/3.4.4/../../../../pic32mx/lib/libc.a(memcpy.o)
                                                  build/mega/production/startup.o
I2C1CONSET                                        /Applications/microchip/mplabc32/v1.11a/bin/../lib/gcc/pic32mx/3.4.4/../../../../pic32mx/lib/./proc/32MX795F512L/processor.o
                                                  /Applications/microchip/mplabc32/v1.11a/bin/../lib/gcc/pic32mx/3.4.4/../../../../pic32mx/lib/libc.a(memcpy.o)
                                                  build/mega/production/startup.o
I2C1MSK                                           /Applications/microchip/mplabc32/v1.11a/bin/../lib/gcc/pic32mx/3.4.4/../../../../pic32mx/lib/./proc/32MX795F512L/processor.o
                                                  /Applications/microchip/mplabc32/v1.11a/bin/../lib/gcc/pic32mx/3.4.4/../../../../pic32mx/lib/libc.a(memcpy.o)
                                                  build/mega/production/startup.o
I2C1MSKCLR                                        /Applications/microchip/mplabc32/v1.11a/bin/../lib/gcc/pic32mx/3.4.4/../../../../pic32mx/lib/./proc/32MX795F512L/processor.o
                                                  /Applications/microchip/mplabc32/v1.11a/bin/../lib/gcc/pic32mx/3.4.4/../../../../pic32mx/lib/libc.a(memcpy.o)
                                                  build/mega/production/startup.o
I2C1MSKINV                                        /Applications/microchip/mplabc32/v1.11a/bin/../lib/gcc/pic32mx/3.4.4/../../../../pic32mx/lib/./proc/32MX795F512L/processor.o
                                                  /Applications/microchip/mplabc32/v1.11a/bin/../lib/gcc/pic32mx/3.4.4/../../../../pic32mx/lib/libc.a(memcpy.o)
                                                  build/mega/production/startup.o
I2C1MSKSET                                        /Applications/microchip/mplabc32/v1.11a/bin/../lib/gcc/pic32mx/3.4.4/../../../../pic32mx/lib/./proc/32MX795F512L/processor.o
                                                  /Applications/microchip/mplabc32/v1.11a/bin/../lib/gcc/pic32mx/3.4.4/../../../../pic32mx/lib/libc.a(memcpy.o)
                                                  build/mega/production/startup.o
I2C1RCV                                           /Applications/microchip/mplabc32/v1.11a/bin/../lib/gcc/pic32mx/3.4.4/../../../../pic32mx/lib/./proc/32MX795F512L/processor.o
                                                  /Applications/microchip/mplabc32/v1.11a/bin/../lib/gcc/pic32mx/3.4.4/../../../../pic32mx/lib/libc.a(memcpy.o)
                                                  build/mega/production/startup.o
I2C1STAT                                          /Applications/microchip/mplabc32/v1.11a/bin/../lib/gcc/pic32mx/3.4.4/../../../../pic32mx/lib/./proc/32MX795F512L/processor.o
                                                  /Applications/microchip/mplabc32/v1.11a/bin/../lib/gcc/pic32mx/3.4.4/../../../../pic32mx/lib/libc.a(memcpy.o)
                                                  build/mega/production/startup.o
I2C1STATCLR                                       /Applications/microchip/mplabc32/v1.11a/bin/../lib/gcc/pic32mx/3.4.4/../../../../pic32mx/lib/./proc/32MX795F512L/processor.o
                                                  /Applications/microchip/mplabc32/v1.11a/bin/../lib/gcc/pic32mx/3.4.4/../../../../pic32mx/lib/libc.a(memcpy.o)
                                                  build/mega/production/startup.o
I2C1STATINV                                       /Applications/microchip/mplabc32/v1.11a/bin/../lib/gcc/pic32mx/3.4.4/../../../../pic32mx/lib/./proc/32MX795F512L/processor.o
                                                  /Applications/microchip/mplabc32/v1.11a/bin/../lib/gcc/pic32mx/3.4.4/../../../../pic32mx/lib/libc.a(memcpy.o)
                                                  build/mega/production/startup.o
I2C1STATSET                                       /Applications/microchip/mplabc32/v1.11a/bin/../lib/gcc/pic32mx/3.4.4/../../../../pic32mx/lib/./proc/32MX795F512L/processor.o
                                                  /Applications/microchip/mplabc32/v1.11a/bin/../lib/gcc/pic32mx/3.4.4/../../../../pic32mx/lib/libc.a(memcpy.o)
                                                  build/mega/production/startup.o
I2C1TRN                                           /Applications/microchip/mplabc32/v1.11a/bin/../lib/gcc/pic32mx/3.4.4/../../../../pic32mx/lib/./proc/32MX795F512L/processor.o
                                                  /Applications/microchip/mplabc32/v1.11a/bin/../lib/gcc/pic32mx/3.4.4/../../../../pic32mx/lib/libc.a(memcpy.o)
                                                  build/mega/production/startup.o
I2C1TRNCLR                                        /Applications/microchip/mplabc32/v1.11a/bin/../lib/gcc/pic32mx/3.4.4/../../../../pic32mx/lib/./proc/32MX795F512L/processor.o
                                                  /Applications/microchip/mplabc32/v1.11a/bin/../lib/gcc/pic32mx/3.4.4/../../../../pic32mx/lib/libc.a(memcpy.o)
                                                  build/mega/production/startup.o
I2C1TRNINV                                        /Applications/microchip/mplabc32/v1.11a/bin/../lib/gcc/pic32mx/3.4.4/../../../../pic32mx/lib/./proc/32MX795F512L/processor.o
                                                  /Applications/microchip/mplabc32/v1.11a/bin/../lib/gcc/pic32mx/3.4.4/../../../../pic32mx/lib/libc.a(memcpy.o)
                                                  build/mega/production/startup.o
I2C1TRNSET                                        /Applications/microchip/mplabc32/v1.11a/bin/../lib/gcc/pic32mx/3.4.4/../../../../pic32mx/lib/./proc/32MX795F512L/processor.o
                                                  /Applications/microchip/mplabc32/v1.11a/bin/../lib/gcc/pic32mx/3.4.4/../../../../pic32mx/lib/libc.a(memcpy.o)
                                                  build/mega/production/startup.o
I2C2AADD                                          /Applications/microchip/mplabc32/v1.11a/bin/../lib/gcc/pic32mx/3.4.4/../../../../pic32mx/lib/./proc/32MX795F512L/processor.o
                                                  build/mega/production/startup.o
I2C2AADDCLR                                       /Applications/microchip/mplabc32/v1.11a/bin/../lib/gcc/pic32mx/3.4.4/../../../../pic32mx/lib/./proc/32MX795F512L/processor.o
                                                  build/mega/production/startup.o
I2C2AADDINV                                       /Applications/microchip/mplabc32/v1.11a/bin/../lib/gcc/pic32mx/3.4.4/../../../../pic32mx/lib/./proc/32MX795F512L/processor.o
                                                  build/mega/production/startup.o
I2C2AADDSET                                       /Applications/microchip/mplabc32/v1.11a/bin/../lib/gcc/pic32mx/3.4.4/../../../../pic32mx/lib/./proc/32MX795F512L/processor.o
                                                  build/mega/production/startup.o
I2C2ABRG                                          /Applications/microchip/mplabc32/v1.11a/bin/../lib/gcc/pic32mx/3.4.4/../../../../pic32mx/lib/./proc/32MX795F512L/processor.o
                                                  build/mega/production/startup.o
I2C2ABRGCLR                                       /Applications/microchip/mplabc32/v1.11a/bin/../lib/gcc/pic32mx/3.4.4/../../../../pic32mx/lib/./proc/32MX795F512L/processor.o
                                                  build/mega/production/startup.o
I2C2ABRGINV                                       /Applications/microchip/mplabc32/v1.11a/bin/../lib/gcc/pic32mx/3.4.4/../../../../pic32mx/lib/./proc/32MX795F512L/processor.o
                                                  build/mega/production/startup.o
I2C2ABRGSET                                       /Applications/microchip/mplabc32/v1.11a/bin/../lib/gcc/pic32mx/3.4.4/../../../../pic32mx/lib/./proc/32MX795F512L/processor.o
                                                  build/mega/production/startup.o
I2C2ACON                                          /Applications/microchip/mplabc32/v1.11a/bin/../lib/gcc/pic32mx/3.4.4/../../../../pic32mx/lib/./proc/32MX795F512L/processor.o
                                                  build/mega/production/startup.o
I2C2ACONCLR                                       /Applications/microchip/mplabc32/v1.11a/bin/../lib/gcc/pic32mx/3.4.4/../../../../pic32mx/lib/./proc/32MX795F512L/processor.o
                                                  build/mega/production/startup.o
I2C2ACONINV                                       /Applications/microchip/mplabc32/v1.11a/bin/../lib/gcc/pic32mx/3.4.4/../../../../pic32mx/lib/./proc/32MX795F512L/processor.o
                                                  build/mega/production/startup.o
I2C2ACONSET                                       /Applications/microchip/mplabc32/v1.11a/bin/../lib/gcc/pic32mx/3.4.4/../../../../pic32mx/lib/./proc/32MX795F512L/processor.o
                                                  build/mega/production/startup.o
I2C2ADD                                           /Applications/microchip/mplabc32/v1.11a/bin/../lib/gcc/pic32mx/3.4.4/../../../../pic32mx/lib/./proc/32MX795F512L/processor.o
                                                  /Applications/microchip/mplabc32/v1.11a/bin/../lib/gcc/pic32mx/3.4.4/../../../../pic32mx/lib/libc.a(memcpy.o)
                                                  build/mega/production/startup.o
I2C2ADDCLR                                        /Applications/microchip/mplabc32/v1.11a/bin/../lib/gcc/pic32mx/3.4.4/../../../../pic32mx/lib/./proc/32MX795F512L/processor.o
                                                  /Applications/microchip/mplabc32/v1.11a/bin/../lib/gcc/pic32mx/3.4.4/../../../../pic32mx/lib/libc.a(memcpy.o)
                                                  build/mega/production/startup.o
I2C2ADDINV                                        /Applications/microchip/mplabc32/v1.11a/bin/../lib/gcc/pic32mx/3.4.4/../../../../pic32mx/lib/./proc/32MX795F512L/processor.o
                                                  /Applications/microchip/mplabc32/v1.11a/bin/../lib/gcc/pic32mx/3.4.4/../../../../pic32mx/lib/libc.a(memcpy.o)
                                                  build/mega/production/startup.o
I2C2ADDSET                                        /Applications/microchip/mplabc32/v1.11a/bin/../lib/gcc/pic32mx/3.4.4/../../../../pic32mx/lib/./proc/32MX795F512L/processor.o
                                                  /Applications/microchip/mplabc32/v1.11a/bin/../lib/gcc/pic32mx/3.4.4/../../../../pic32mx/lib/libc.a(memcpy.o)
                                                  build/mega/production/startup.o
I2C2AMSK                                          /Applications/microchip/mplabc32/v1.11a/bin/../lib/gcc/pic32mx/3.4.4/../../../../pic32mx/lib/./proc/32MX795F512L/processor.o
                                                  build/mega/production/startup.o
I2C2AMSKCLR                                       /Applications/microchip/mplabc32/v1.11a/bin/../lib/gcc/pic32mx/3.4.4/../../../../pic32mx/lib/./proc/32MX795F512L/processor.o
                                                  build/mega/production/startup.o
I2C2AMSKINV                                       /Applications/microchip/mplabc32/v1.11a/bin/../lib/gcc/pic32mx/3.4.4/../../../../pic32mx/lib/./proc/32MX795F512L/processor.o
                                                  build/mega/production/startup.o
I2C2AMSKSET                                       /Applications/microchip/mplabc32/v1.11a/bin/../lib/gcc/pic32mx/3.4.4/../../../../pic32mx/lib/./proc/32MX795F512L/processor.o
                                                  build/mega/production/startup.o
I2C2ARCV                                          /Applications/microchip/mplabc32/v1.11a/bin/../lib/gcc/pic32mx/3.4.4/../../../../pic32mx/lib/./proc/32MX795F512L/processor.o
                                                  build/mega/production/startup.o
I2C2ASTAT                                         /Applications/microchip/mplabc32/v1.11a/bin/../lib/gcc/pic32mx/3.4.4/../../../../pic32mx/lib/./proc/32MX795F512L/processor.o
                                                  build/mega/production/startup.o
I2C2ASTATCLR                                      /Applications/microchip/mplabc32/v1.11a/bin/../lib/gcc/pic32mx/3.4.4/../../../../pic32mx/lib/./proc/32MX795F512L/processor.o
                                                  build/mega/production/startup.o
I2C2ASTATINV                                      /Applications/microchip/mplabc32/v1.11a/bin/../lib/gcc/pic32mx/3.4.4/../../../../pic32mx/lib/./proc/32MX795F512L/processor.o
                                                  build/mega/production/startup.o
I2C2ASTATSET                                      /Applications/microchip/mplabc32/v1.11a/bin/../lib/gcc/pic32mx/3.4.4/../../../../pic32mx/lib/./proc/32MX795F512L/processor.o
                                                  build/mega/production/startup.o
I2C2ATRN                                          /Applications/microchip/mplabc32/v1.11a/bin/../lib/gcc/pic32mx/3.4.4/../../../../pic32mx/lib/./proc/32MX795F512L/processor.o
                                                  build/mega/production/startup.o
I2C2ATRNCLR                                       /Applications/microchip/mplabc32/v1.11a/bin/../lib/gcc/pic32mx/3.4.4/../../../../pic32mx/lib/./proc/32MX795F512L/processor.o
                                                  build/mega/production/startup.o
I2C2ATRNINV                                       /Applications/microchip/mplabc32/v1.11a/bin/../lib/gcc/pic32mx/3.4.4/../../../../pic32mx/lib/./proc/32MX795F512L/processor.o
                                                  build/mega/production/startup.o
I2C2ATRNSET                                       /Applications/microchip/mplabc32/v1.11a/bin/../lib/gcc/pic32mx/3.4.4/../../../../pic32mx/lib/./proc/32MX795F512L/processor.o
                                                  build/mega/production/startup.o
I2C2BRG                                           /Applications/microchip/mplabc32/v1.11a/bin/../lib/gcc/pic32mx/3.4.4/../../../../pic32mx/lib/./proc/32MX795F512L/processor.o
                                                  /Applications/microchip/mplabc32/v1.11a/bin/../lib/gcc/pic32mx/3.4.4/../../../../pic32mx/lib/libc.a(memcpy.o)
                                                  build/mega/production/startup.o
I2C2BRGCLR                                        /Applications/microchip/mplabc32/v1.11a/bin/../lib/gcc/pic32mx/3.4.4/../../../../pic32mx/lib/./proc/32MX795F512L/processor.o
                                                  /Applications/microchip/mplabc32/v1.11a/bin/../lib/gcc/pic32mx/3.4.4/../../../../pic32mx/lib/libc.a(memcpy.o)
                                                  build/mega/production/startup.o
I2C2BRGINV                                        /Applications/microchip/mplabc32/v1.11a/bin/../lib/gcc/pic32mx/3.4.4/../../../../pic32mx/lib/./proc/32MX795F512L/processor.o
                                                  /Applications/microchip/mplabc32/v1.11a/bin/../lib/gcc/pic32mx/3.4.4/../../../../pic32mx/lib/libc.a(memcpy.o)
                                                  build/mega/production/startup.o
I2C2BRGSET                                        /Applications/microchip/mplabc32/v1.11a/bin/../lib/gcc/pic32mx/3.4.4/../../../../pic32mx/lib/./proc/32MX795F512L/processor.o
                                                  /Applications/microchip/mplabc32/v1.11a/bin/../lib/gcc/pic32mx/3.4.4/../../../../pic32mx/lib/libc.a(memcpy.o)
                                                  build/mega/production/startup.o
I2C2CON                                           /Applications/microchip/mplabc32/v1.11a/bin/../lib/gcc/pic32mx/3.4.4/../../../../pic32mx/lib/./proc/32MX795F512L/processor.o
                                                  /Applications/microchip/mplabc32/v1.11a/bin/../lib/gcc/pic32mx/3.4.4/../../../../pic32mx/lib/libc.a(memcpy.o)
                                                  build/mega/production/startup.o
I2C2CONCLR                                        /Applications/microchip/mplabc32/v1.11a/bin/../lib/gcc/pic32mx/3.4.4/../../../../pic32mx/lib/./proc/32MX795F512L/processor.o
                                                  /Applications/microchip/mplabc32/v1.11a/bin/../lib/gcc/pic32mx/3.4.4/../../../../pic32mx/lib/libc.a(memcpy.o)
                                                  build/mega/production/startup.o
I2C2CONINV                                        /Applications/microchip/mplabc32/v1.11a/bin/../lib/gcc/pic32mx/3.4.4/../../../../pic32mx/lib/./proc/32MX795F512L/processor.o
                                                  /Applications/microchip/mplabc32/v1.11a/bin/../lib/gcc/pic32mx/3.4.4/../../../../pic32mx/lib/libc.a(memcpy.o)
                                                  build/mega/production/startup.o
I2C2CONSET                                        /Applications/microchip/mplabc32/v1.11a/bin/../lib/gcc/pic32mx/3.4.4/../../../../pic32mx/lib/./proc/32MX795F512L/processor.o
                                                  /Applications/microchip/mplabc32/v1.11a/bin/../lib/gcc/pic32mx/3.4.4/../../../../pic32mx/lib/libc.a(memcpy.o)
                                                  build/mega/production/startup.o
I2C2MSK                                           /Applications/microchip/mplabc32/v1.11a/bin/../lib/gcc/pic32mx/3.4.4/../../../../pic32mx/lib/./proc/32MX795F512L/processor.o
                                                  /Applications/microchip/mplabc32/v1.11a/bin/../lib/gcc/pic32mx/3.4.4/../../../../pic32mx/lib/libc.a(memcpy.o)
                                                  build/mega/production/startup.o
I2C2MSKCLR                                        /Applications/microchip/mplabc32/v1.11a/bin/../lib/gcc/pic32mx/3.4.4/../../../../pic32mx/lib/./proc/32MX795F512L/processor.o
                                                  /Applications/microchip/mplabc32/v1.11a/bin/../lib/gcc/pic32mx/3.4.4/../../../../pic32mx/lib/libc.a(memcpy.o)
                                                  build/mega/production/startup.o
I2C2MSKINV                                        /Applications/microchip/mplabc32/v1.11a/bin/../lib/gcc/pic32mx/3.4.4/../../../../pic32mx/lib/./proc/32MX795F512L/processor.o
                                                  /Applications/microchip/mplabc32/v1.11a/bin/../lib/gcc/pic32mx/3.4.4/../../../../pic32mx/lib/libc.a(memcpy.o)
                                                  build/mega/production/startup.o
I2C2MSKSET                                        /Applications/microchip/mplabc32/v1.11a/bin/../lib/gcc/pic32mx/3.4.4/../../../../pic32mx/lib/./proc/32MX795F512L/processor.o
                                                  /Applications/microchip/mplabc32/v1.11a/bin/../lib/gcc/pic32mx/3.4.4/../../../../pic32mx/lib/libc.a(memcpy.o)
                                                  build/mega/production/startup.o
I2C2RCV                                           /Applications/microchip/mplabc32/v1.11a/bin/../lib/gcc/pic32mx/3.4.4/../../../../pic32mx/lib/./proc/32MX795F512L/processor.o
                                                  /Applications/microchip/mplabc32/v1.11a/bin/../lib/gcc/pic32mx/3.4.4/../../../../pic32mx/lib/libc.a(memcpy.o)
                                                  build/mega/production/startup.o
I2C2STAT                                          /Applications/microchip/mplabc32/v1.11a/bin/../lib/gcc/pic32mx/3.4.4/../../../../pic32mx/lib/./proc/32MX795F512L/processor.o
                                                  /Applications/microchip/mplabc32/v1.11a/bin/../lib/gcc/pic32mx/3.4.4/../../../../pic32mx/lib/libc.a(memcpy.o)
                                                  build/mega/production/startup.o
I2C2STATCLR                                       /Applications/microchip/mplabc32/v1.11a/bin/../lib/gcc/pic32mx/3.4.4/../../../../pic32mx/lib/./proc/32MX795F512L/processor.o
                                                  /Applications/microchip/mplabc32/v1.11a/bin/../lib/gcc/pic32mx/3.4.4/../../../../pic32mx/lib/libc.a(memcpy.o)
                                                  build/mega/production/startup.o
I2C2STATINV                                       /Applications/microchip/mplabc32/v1.11a/bin/../lib/gcc/pic32mx/3.4.4/../../../../pic32mx/lib/./proc/32MX795F512L/processor.o
                                                  /Applications/microchip/mplabc32/v1.11a/bin/../lib/gcc/pic32mx/3.4.4/../../../../pic32mx/lib/libc.a(memcpy.o)
                                                  build/mega/production/startup.o
I2C2STATSET                                       /Applications/microchip/mplabc32/v1.11a/bin/../lib/gcc/pic32mx/3.4.4/../../../../pic32mx/lib/./proc/32MX795F512L/processor.o
                                                  /Applications/microchip/mplabc32/v1.11a/bin/../lib/gcc/pic32mx/3.4.4/../../../../pic32mx/lib/libc.a(memcpy.o)
                                                  build/mega/production/startup.o
I2C2TRN                                           /Applications/microchip/mplabc32/v1.11a/bin/../lib/gcc/pic32mx/3.4.4/../../../../pic32mx/lib/./proc/32MX795F512L/processor.o
                                                  /Applications/microchip/mplabc32/v1.11a/bin/../lib/gcc/pic32mx/3.4.4/../../../../pic32mx/lib/libc.a(memcpy.o)
                                                  build/mega/production/startup.o
I2C2TRNCLR                                        /Applications/microchip/mplabc32/v1.11a/bin/../lib/gcc/pic32mx/3.4.4/../../../../pic32mx/lib/./proc/32MX795F512L/processor.o
                                                  /Applications/microchip/mplabc32/v1.11a/bin/../lib/gcc/pic32mx/3.4.4/../../../../pic32mx/lib/libc.a(memcpy.o)
                                                  build/mega/production/startup.o
I2C2TRNINV                                        /Applications/microchip/mplabc32/v1.11a/bin/../lib/gcc/pic32mx/3.4.4/../../../../pic32mx/lib/./proc/32MX795F512L/processor.o
                                                  /Applications/microchip/mplabc32/v1.11a/bin/../lib/gcc/pic32mx/3.4.4/../../../../pic32mx/lib/libc.a(memcpy.o)
                                                  build/mega/production/startup.o
I2C2TRNSET                                        /Applications/microchip/mplabc32/v1.11a/bin/../lib/gcc/pic32mx/3.4.4/../../../../pic32mx/lib/./proc/32MX795F512L/processor.o
                                                  /Applications/microchip/mplabc32/v1.11a/bin/../lib/gcc/pic32mx/3.4.4/../../../../pic32mx/lib/libc.a(memcpy.o)
                                                  build/mega/production/startup.o
I2C3AADD                                          /Applications/microchip/mplabc32/v1.11a/bin/../lib/gcc/pic32mx/3.4.4/../../../../pic32mx/lib/./proc/32MX795F512L/processor.o
                                                  build/mega/production/startup.o
I2C3AADDCLR                                       /Applications/microchip/mplabc32/v1.11a/bin/../lib/gcc/pic32mx/3.4.4/../../../../pic32mx/lib/./proc/32MX795F512L/processor.o
                                                  build/mega/production/startup.o
I2C3AADDINV                                       /Applications/microchip/mplabc32/v1.11a/bin/../lib/gcc/pic32mx/3.4.4/../../../../pic32mx/lib/./proc/32MX795F512L/processor.o
                                                  build/mega/production/startup.o
I2C3AADDSET                                       /Applications/microchip/mplabc32/v1.11a/bin/../lib/gcc/pic32mx/3.4.4/../../../../pic32mx/lib/./proc/32MX795F512L/processor.o
                                                  build/mega/production/startup.o
I2C3ABRG                                          /Applications/microchip/mplabc32/v1.11a/bin/../lib/gcc/pic32mx/3.4.4/../../../../pic32mx/lib/./proc/32MX795F512L/processor.o
                                                  build/mega/production/startup.o
I2C3ABRGCLR                                       /Applications/microchip/mplabc32/v1.11a/bin/../lib/gcc/pic32mx/3.4.4/../../../../pic32mx/lib/./proc/32MX795F512L/processor.o
                                                  build/mega/production/startup.o
I2C3ABRGINV                                       /Applications/microchip/mplabc32/v1.11a/bin/../lib/gcc/pic32mx/3.4.4/../../../../pic32mx/lib/./proc/32MX795F512L/processor.o
                                                  build/mega/production/startup.o
I2C3ABRGSET                                       /Applications/microchip/mplabc32/v1.11a/bin/../lib/gcc/pic32mx/3.4.4/../../../../pic32mx/lib/./proc/32MX795F512L/processor.o
                                                  build/mega/production/startup.o
I2C3ACON                                          /Applications/microchip/mplabc32/v1.11a/bin/../lib/gcc/pic32mx/3.4.4/../../../../pic32mx/lib/./proc/32MX795F512L/processor.o
                                                  build/mega/production/startup.o
I2C3ACONCLR                                       /Applications/microchip/mplabc32/v1.11a/bin/../lib/gcc/pic32mx/3.4.4/../../../../pic32mx/lib/./proc/32MX795F512L/processor.o
                                                  build/mega/production/startup.o
I2C3ACONINV                                       /Applications/microchip/mplabc32/v1.11a/bin/../lib/gcc/pic32mx/3.4.4/../../../../pic32mx/lib/./proc/32MX795F512L/processor.o
                                                  build/mega/production/startup.o
I2C3ACONSET                                       /Applications/microchip/mplabc32/v1.11a/bin/../lib/gcc/pic32mx/3.4.4/../../../../pic32mx/lib/./proc/32MX795F512L/processor.o
                                                  build/mega/production/startup.o
I2C3AMSK                                          /Applications/microchip/mplabc32/v1.11a/bin/../lib/gcc/pic32mx/3.4.4/../../../../pic32mx/lib/./proc/32MX795F512L/processor.o
                                                  build/mega/production/startup.o
I2C3AMSKCLR                                       /Applications/microchip/mplabc32/v1.11a/bin/../lib/gcc/pic32mx/3.4.4/../../../../pic32mx/lib/./proc/32MX795F512L/processor.o
                                                  build/mega/production/startup.o
I2C3AMSKINV                                       /Applications/microchip/mplabc32/v1.11a/bin/../lib/gcc/pic32mx/3.4.4/../../../../pic32mx/lib/./proc/32MX795F512L/processor.o
                                                  build/mega/production/startup.o
I2C3AMSKSET                                       /Applications/microchip/mplabc32/v1.11a/bin/../lib/gcc/pic32mx/3.4.4/../../../../pic32mx/lib/./proc/32MX795F512L/processor.o
                                                  build/mega/production/startup.o
I2C3ARCV                                          /Applications/microchip/mplabc32/v1.11a/bin/../lib/gcc/pic32mx/3.4.4/../../../../pic32mx/lib/./proc/32MX795F512L/processor.o
                                                  build/mega/production/startup.o
I2C3ASTAT                                         /Applications/microchip/mplabc32/v1.11a/bin/../lib/gcc/pic32mx/3.4.4/../../../../pic32mx/lib/./proc/32MX795F512L/processor.o
                                                  build/mega/production/startup.o
I2C3ASTATCLR                                      /Applications/microchip/mplabc32/v1.11a/bin/../lib/gcc/pic32mx/3.4.4/../../../../pic32mx/lib/./proc/32MX795F512L/processor.o
                                                  build/mega/production/startup.o
I2C3ASTATINV                                      /Applications/microchip/mplabc32/v1.11a/bin/../lib/gcc/pic32mx/3.4.4/../../../../pic32mx/lib/./proc/32MX795F512L/processor.o
                                                  build/mega/production/startup.o
I2C3ASTATSET                                      /Applications/microchip/mplabc32/v1.11a/bin/../lib/gcc/pic32mx/3.4.4/../../../../pic32mx/lib/./proc/32MX795F512L/processor.o
                                                  build/mega/production/startup.o
I2C3ATRN                                          /Applications/microchip/mplabc32/v1.11a/bin/../lib/gcc/pic32mx/3.4.4/../../../../pic32mx/lib/./proc/32MX795F512L/processor.o
                                                  build/mega/production/startup.o
I2C3ATRNCLR                                       /Applications/microchip/mplabc32/v1.11a/bin/../lib/gcc/pic32mx/3.4.4/../../../../pic32mx/lib/./proc/32MX795F512L/processor.o
                                                  build/mega/production/startup.o
I2C3ATRNINV                                       /Applications/microchip/mplabc32/v1.11a/bin/../lib/gcc/pic32mx/3.4.4/../../../../pic32mx/lib/./proc/32MX795F512L/processor.o
                                                  build/mega/production/startup.o
I2C3ATRNSET                                       /Applications/microchip/mplabc32/v1.11a/bin/../lib/gcc/pic32mx/3.4.4/../../../../pic32mx/lib/./proc/32MX795F512L/processor.o
                                                  build/mega/production/startup.o
IC1BUF                                            /Applications/microchip/mplabc32/v1.11a/bin/../lib/gcc/pic32mx/3.4.4/../../../../pic32mx/lib/./proc/32MX795F512L/processor.o
                                                  /Applications/microchip/mplabc32/v1.11a/bin/../lib/gcc/pic32mx/3.4.4/../../../../pic32mx/lib/libc.a(memcpy.o)
                                                  build/mega/production/startup.o
IC1CON                                            /Applications/microchip/mplabc32/v1.11a/bin/../lib/gcc/pic32mx/3.4.4/../../../../pic32mx/lib/./proc/32MX795F512L/processor.o
                                                  /Applications/microchip/mplabc32/v1.11a/bin/../lib/gcc/pic32mx/3.4.4/../../../../pic32mx/lib/libc.a(memcpy.o)
                                                  build/mega/production/startup.o
IC1CONCLR                                         /Applications/microchip/mplabc32/v1.11a/bin/../lib/gcc/pic32mx/3.4.4/../../../../pic32mx/lib/./proc/32MX795F512L/processor.o
                                                  /Applications/microchip/mplabc32/v1.11a/bin/../lib/gcc/pic32mx/3.4.4/../../../../pic32mx/lib/libc.a(memcpy.o)
                                                  build/mega/production/startup.o
IC1CONINV                                         /Applications/microchip/mplabc32/v1.11a/bin/../lib/gcc/pic32mx/3.4.4/../../../../pic32mx/lib/./proc/32MX795F512L/processor.o
                                                  /Applications/microchip/mplabc32/v1.11a/bin/../lib/gcc/pic32mx/3.4.4/../../../../pic32mx/lib/libc.a(memcpy.o)
                                                  build/mega/production/startup.o
IC1CONSET                                         /Applications/microchip/mplabc32/v1.11a/bin/../lib/gcc/pic32mx/3.4.4/../../../../pic32mx/lib/./proc/32MX795F512L/processor.o
                                                  /Applications/microchip/mplabc32/v1.11a/bin/../lib/gcc/pic32mx/3.4.4/../../../../pic32mx/lib/libc.a(memcpy.o)
                                                  build/mega/production/startup.o
IC2BUF                                            /Applications/microchip/mplabc32/v1.11a/bin/../lib/gcc/pic32mx/3.4.4/../../../../pic32mx/lib/./proc/32MX795F512L/processor.o
                                                  /Applications/microchip/mplabc32/v1.11a/bin/../lib/gcc/pic32mx/3.4.4/../../../../pic32mx/lib/libc.a(memcpy.o)
                                                  build/mega/production/startup.o
IC2CON                                            /Applications/microchip/mplabc32/v1.11a/bin/../lib/gcc/pic32mx/3.4.4/../../../../pic32mx/lib/./proc/32MX795F512L/processor.o
                                                  /Applications/microchip/mplabc32/v1.11a/bin/../lib/gcc/pic32mx/3.4.4/../../../../pic32mx/lib/libc.a(memcpy.o)
                                                  build/mega/production/startup.o
IC2CONCLR                                         /Applications/microchip/mplabc32/v1.11a/bin/../lib/gcc/pic32mx/3.4.4/../../../../pic32mx/lib/./proc/32MX795F512L/processor.o
                                                  /Applications/microchip/mplabc32/v1.11a/bin/../lib/gcc/pic32mx/3.4.4/../../../../pic32mx/lib/libc.a(memcpy.o)
                                                  build/mega/production/startup.o
IC2CONINV                                         /Applications/microchip/mplabc32/v1.11a/bin/../lib/gcc/pic32mx/3.4.4/../../../../pic32mx/lib/./proc/32MX795F512L/processor.o
                                                  /Applications/microchip/mplabc32/v1.11a/bin/../lib/gcc/pic32mx/3.4.4/../../../../pic32mx/lib/libc.a(memcpy.o)
                                                  build/mega/production/startup.o
IC2CONSET                                         /Applications/microchip/mplabc32/v1.11a/bin/../lib/gcc/pic32mx/3.4.4/../../../../pic32mx/lib/./proc/32MX795F512L/processor.o
                                                  /Applications/microchip/mplabc32/v1.11a/bin/../lib/gcc/pic32mx/3.4.4/../../../../pic32mx/lib/libc.a(memcpy.o)
                                                  build/mega/production/startup.o
IC3BUF                                            /Applications/microchip/mplabc32/v1.11a/bin/../lib/gcc/pic32mx/3.4.4/../../../../pic32mx/lib/./proc/32MX795F512L/processor.o
                                                  /Applications/microchip/mplabc32/v1.11a/bin/../lib/gcc/pic32mx/3.4.4/../../../../pic32mx/lib/libc.a(memcpy.o)
                                                  build/mega/production/startup.o
IC3CON                                            /Applications/microchip/mplabc32/v1.11a/bin/../lib/gcc/pic32mx/3.4.4/../../../../pic32mx/lib/./proc/32MX795F512L/processor.o
                                                  /Applications/microchip/mplabc32/v1.11a/bin/../lib/gcc/pic32mx/3.4.4/../../../../pic32mx/lib/libc.a(memcpy.o)
                                                  build/mega/production/startup.o
IC3CONCLR                                         /Applications/microchip/mplabc32/v1.11a/bin/../lib/gcc/pic32mx/3.4.4/../../../../pic32mx/lib/./proc/32MX795F512L/processor.o
                                                  /Applications/microchip/mplabc32/v1.11a/bin/../lib/gcc/pic32mx/3.4.4/../../../../pic32mx/lib/libc.a(memcpy.o)
                                                  build/mega/production/startup.o
IC3CONINV                                         /Applications/microchip/mplabc32/v1.11a/bin/../lib/gcc/pic32mx/3.4.4/../../../../pic32mx/lib/./proc/32MX795F512L/processor.o
                                                  /Applications/microchip/mplabc32/v1.11a/bin/../lib/gcc/pic32mx/3.4.4/../../../../pic32mx/lib/libc.a(memcpy.o)
                                                  build/mega/production/startup.o
IC3CONSET                                         /Applications/microchip/mplabc32/v1.11a/bin/../lib/gcc/pic32mx/3.4.4/../../../../pic32mx/lib/./proc/32MX795F512L/processor.o
                                                  /Applications/microchip/mplabc32/v1.11a/bin/../lib/gcc/pic32mx/3.4.4/../../../../pic32mx/lib/libc.a(memcpy.o)
                                                  build/mega/production/startup.o
IC4BUF                                            /Applications/microchip/mplabc32/v1.11a/bin/../lib/gcc/pic32mx/3.4.4/../../../../pic32mx/lib/./proc/32MX795F512L/processor.o
                                                  /Applications/microchip/mplabc32/v1.11a/bin/../lib/gcc/pic32mx/3.4.4/../../../../pic32mx/lib/libc.a(memcpy.o)
                                                  build/mega/production/startup.o
IC4CON                                            /Applications/microchip/mplabc32/v1.11a/bin/../lib/gcc/pic32mx/3.4.4/../../../../pic32mx/lib/./proc/32MX795F512L/processor.o
                                                  /Applications/microchip/mplabc32/v1.11a/bin/../lib/gcc/pic32mx/3.4.4/../../../../pic32mx/lib/libc.a(memcpy.o)
                                                  build/mega/production/startup.o
IC4CONCLR                                         /Applications/microchip/mplabc32/v1.11a/bin/../lib/gcc/pic32mx/3.4.4/../../../../pic32mx/lib/./proc/32MX795F512L/processor.o
                                                  /Applications/microchip/mplabc32/v1.11a/bin/../lib/gcc/pic32mx/3.4.4/../../../../pic32mx/lib/libc.a(memcpy.o)
                                                  build/mega/production/startup.o
IC4CONINV                                         /Applications/microchip/mplabc32/v1.11a/bin/../lib/gcc/pic32mx/3.4.4/../../../../pic32mx/lib/./proc/32MX795F512L/processor.o
                                                  /Applications/microchip/mplabc32/v1.11a/bin/../lib/gcc/pic32mx/3.4.4/../../../../pic32mx/lib/libc.a(memcpy.o)
                                                  build/mega/production/startup.o
IC4CONSET                                         /Applications/microchip/mplabc32/v1.11a/bin/../lib/gcc/pic32mx/3.4.4/../../../../pic32mx/lib/./proc/32MX795F512L/processor.o
                                                  /Applications/microchip/mplabc32/v1.11a/bin/../lib/gcc/pic32mx/3.4.4/../../../../pic32mx/lib/libc.a(memcpy.o)
                                                  build/mega/production/startup.o
IC5BUF                                            /Applications/microchip/mplabc32/v1.11a/bin/../lib/gcc/pic32mx/3.4.4/../../../../pic32mx/lib/./proc/32MX795F512L/processor.o
                                                  /Applications/microchip/mplabc32/v1.11a/bin/../lib/gcc/pic32mx/3.4.4/../../../../pic32mx/lib/libc.a(memcpy.o)
                                                  build/mega/production/startup.o
IC5CON                                            /Applications/microchip/mplabc32/v1.11a/bin/../lib/gcc/pic32mx/3.4.4/../../../../pic32mx/lib/./proc/32MX795F512L/processor.o
                                                  /Applications/microchip/mplabc32/v1.11a/bin/../lib/gcc/pic32mx/3.4.4/../../../../pic32mx/lib/libc.a(memcpy.o)
                                                  build/mega/production/startup.o
IC5CONCLR                                         /Applications/microchip/mplabc32/v1.11a/bin/../lib/gcc/pic32mx/3.4.4/../../../../pic32mx/lib/./proc/32MX795F512L/processor.o
                                                  /Applications/microchip/mplabc32/v1.11a/bin/../lib/gcc/pic32mx/3.4.4/../../../../pic32mx/lib/libc.a(memcpy.o)
                                                  build/mega/production/startup.o
IC5CONINV                                         /Applications/microchip/mplabc32/v1.11a/bin/../lib/gcc/pic32mx/3.4.4/../../../../pic32mx/lib/./proc/32MX795F512L/processor.o
                                                  /Applications/microchip/mplabc32/v1.11a/bin/../lib/gcc/pic32mx/3.4.4/../../../../pic32mx/lib/libc.a(memcpy.o)
                                                  build/mega/production/startup.o
IC5CONSET                                         /Applications/microchip/mplabc32/v1.11a/bin/../lib/gcc/pic32mx/3.4.4/../../../../pic32mx/lib/./proc/32MX795F512L/processor.o
                                                  /Applications/microchip/mplabc32/v1.11a/bin/../lib/gcc/pic32mx/3.4.4/../../../../pic32mx/lib/libc.a(memcpy.o)
                                                  build/mega/production/startup.o
IEC0                                              /Applications/microchip/mplabc32/v1.11a/bin/../lib/gcc/pic32mx/3.4.4/../../../../pic32mx/lib/./proc/32MX795F512L/processor.o
                                                  /Applications/microchip/mplabc32/v1.11a/bin/../lib/gcc/pic32mx/3.4.4/../../../../pic32mx/lib/libc.a(memcpy.o)
                                                  build/mega/production/startup.o
IEC0CLR                                           /Applications/microchip/mplabc32/v1.11a/bin/../lib/gcc/pic32mx/3.4.4/../../../../pic32mx/lib/./proc/32MX795F512L/processor.o
                                                  /Applications/microchip/mplabc32/v1.11a/bin/../lib/gcc/pic32mx/3.4.4/../../../../pic32mx/lib/libc.a(memcpy.o)
                                                  build/mega/production/startup.o
IEC0INV                                           /Applications/microchip/mplabc32/v1.11a/bin/../lib/gcc/pic32mx/3.4.4/../../../../pic32mx/lib/./proc/32MX795F512L/processor.o
                                                  /Applications/microchip/mplabc32/v1.11a/bin/../lib/gcc/pic32mx/3.4.4/../../../../pic32mx/lib/libc.a(memcpy.o)
                                                  build/mega/production/startup.o
IEC0SET                                           /Applications/microchip/mplabc32/v1.11a/bin/../lib/gcc/pic32mx/3.4.4/../../../../pic32mx/lib/./proc/32MX795F512L/processor.o
                                                  /Applications/microchip/mplabc32/v1.11a/bin/../lib/gcc/pic32mx/3.4.4/../../../../pic32mx/lib/libc.a(memcpy.o)
                                                  build/mega/production/startup.o
IEC1                                              /Applications/microchip/mplabc32/v1.11a/bin/../lib/gcc/pic32mx/3.4.4/../../../../pic32mx/lib/./proc/32MX795F512L/processor.o
                                                  /Applications/microchip/mplabc32/v1.11a/bin/../lib/gcc/pic32mx/3.4.4/../../../../pic32mx/lib/libc.a(memcpy.o)
                                                  build/mega/production/startup.o
IEC1CLR                                           /Applications/microchip/mplabc32/v1.11a/bin/../lib/gcc/pic32mx/3.4.4/../../../../pic32mx/lib/./proc/32MX795F512L/processor.o
                                                  /Applications/microchip/mplabc32/v1.11a/bin/../lib/gcc/pic32mx/3.4.4/../../../../pic32mx/lib/libc.a(memcpy.o)
                                                  build/mega/production/startup.o
IEC1INV                                           /Applications/microchip/mplabc32/v1.11a/bin/../lib/gcc/pic32mx/3.4.4/../../../../pic32mx/lib/./proc/32MX795F512L/processor.o
                                                  /Applications/microchip/mplabc32/v1.11a/bin/../lib/gcc/pic32mx/3.4.4/../../../../pic32mx/lib/libc.a(memcpy.o)
                                                  build/mega/production/startup.o
IEC1SET                                           /Applications/microchip/mplabc32/v1.11a/bin/../lib/gcc/pic32mx/3.4.4/../../../../pic32mx/lib/./proc/32MX795F512L/processor.o
                                                  /Applications/microchip/mplabc32/v1.11a/bin/../lib/gcc/pic32mx/3.4.4/../../../../pic32mx/lib/libc.a(memcpy.o)
                                                  build/mega/production/startup.o
IEC2                                              /Applications/microchip/mplabc32/v1.11a/bin/../lib/gcc/pic32mx/3.4.4/../../../../pic32mx/lib/./proc/32MX795F512L/processor.o
                                                  /Applications/microchip/mplabc32/v1.11a/bin/../lib/gcc/pic32mx/3.4.4/../../../../pic32mx/lib/libc.a(memcpy.o)
                                                  build/mega/production/startup.o
IEC2CLR                                           /Applications/microchip/mplabc32/v1.11a/bin/../lib/gcc/pic32mx/3.4.4/../../../../pic32mx/lib/./proc/32MX795F512L/processor.o
                                                  /Applications/microchip/mplabc32/v1.11a/bin/../lib/gcc/pic32mx/3.4.4/../../../../pic32mx/lib/libc.a(memcpy.o)
                                                  build/mega/production/startup.o
IEC2INV                                           /Applications/microchip/mplabc32/v1.11a/bin/../lib/gcc/pic32mx/3.4.4/../../../../pic32mx/lib/./proc/32MX795F512L/processor.o
                                                  /Applications/microchip/mplabc32/v1.11a/bin/../lib/gcc/pic32mx/3.4.4/../../../../pic32mx/lib/libc.a(memcpy.o)
                                                  build/mega/production/startup.o
IEC2SET                                           /Applications/microchip/mplabc32/v1.11a/bin/../lib/gcc/pic32mx/3.4.4/../../../../pic32mx/lib/./proc/32MX795F512L/processor.o
                                                  /Applications/microchip/mplabc32/v1.11a/bin/../lib/gcc/pic32mx/3.4.4/../../../../pic32mx/lib/libc.a(memcpy.o)
                                                  build/mega/production/startup.o
IFS0                                              /Applications/microchip/mplabc32/v1.11a/bin/../lib/gcc/pic32mx/3.4.4/../../../../pic32mx/lib/./proc/32MX795F512L/processor.o
                                                  /Applications/microchip/mplabc32/v1.11a/bin/../lib/gcc/pic32mx/3.4.4/../../../../pic32mx/lib/libc.a(memcpy.o)
                                                  build/mega/production/startup.o
IFS0CLR                                           /Applications/microchip/mplabc32/v1.11a/bin/../lib/gcc/pic32mx/3.4.4/../../../../pic32mx/lib/./proc/32MX795F512L/processor.o
                                                  /Applications/microchip/mplabc32/v1.11a/bin/../lib/gcc/pic32mx/3.4.4/../../../../pic32mx/lib/libc.a(memcpy.o)
                                                  build/mega/production/pic32bootloader.o
                                                  build/mega/production/startup.o
IFS0INV                                           /Applications/microchip/mplabc32/v1.11a/bin/../lib/gcc/pic32mx/3.4.4/../../../../pic32mx/lib/./proc/32MX795F512L/processor.o
                                                  /Applications/microchip/mplabc32/v1.11a/bin/../lib/gcc/pic32mx/3.4.4/../../../../pic32mx/lib/libc.a(memcpy.o)
                                                  build/mega/production/startup.o
IFS0SET                                           /Applications/microchip/mplabc32/v1.11a/bin/../lib/gcc/pic32mx/3.4.4/../../../../pic32mx/lib/./proc/32MX795F512L/processor.o
                                                  /Applications/microchip/mplabc32/v1.11a/bin/../lib/gcc/pic32mx/3.4.4/../../../../pic32mx/lib/libc.a(memcpy.o)
                                                  build/mega/production/startup.o
IFS1                                              /Applications/microchip/mplabc32/v1.11a/bin/../lib/gcc/pic32mx/3.4.4/../../../../pic32mx/lib/./proc/32MX795F512L/processor.o
                                                  /Applications/microchip/mplabc32/v1.11a/bin/../lib/gcc/pic32mx/3.4.4/../../../../pic32mx/lib/libc.a(memcpy.o)
                                                  build/mega/production/startup.o
IFS1CLR                                           /Applications/microchip/mplabc32/v1.11a/bin/../lib/gcc/pic32mx/3.4.4/../../../../pic32mx/lib/./proc/32MX795F512L/processor.o
                                                  /Applications/microchip/mplabc32/v1.11a/bin/../lib/gcc/pic32mx/3.4.4/../../../../pic32mx/lib/libc.a(memcpy.o)
                                                  build/mega/production/startup.o
IFS1INV                                           /Applications/microchip/mplabc32/v1.11a/bin/../lib/gcc/pic32mx/3.4.4/../../../../pic32mx/lib/./proc/32MX795F512L/processor.o
                                                  /Applications/microchip/mplabc32/v1.11a/bin/../lib/gcc/pic32mx/3.4.4/../../../../pic32mx/lib/libc.a(memcpy.o)
                                                  build/mega/production/startup.o
IFS1SET                                           /Applications/microchip/mplabc32/v1.11a/bin/../lib/gcc/pic32mx/3.4.4/../../../../pic32mx/lib/./proc/32MX795F512L/processor.o
                                                  /Applications/microchip/mplabc32/v1.11a/bin/../lib/gcc/pic32mx/3.4.4/../../../../pic32mx/lib/libc.a(memcpy.o)
                                                  build/mega/production/startup.o
IFS2                                              /Applications/microchip/mplabc32/v1.11a/bin/../lib/gcc/pic32mx/3.4.4/../../../../pic32mx/lib/./proc/32MX795F512L/processor.o
                                                  /Applications/microchip/mplabc32/v1.11a/bin/../lib/gcc/pic32mx/3.4.4/../../../../pic32mx/lib/libc.a(memcpy.o)
                                                  build/mega/production/startup.o
IFS2CLR                                           /Applications/microchip/mplabc32/v1.11a/bin/../lib/gcc/pic32mx/3.4.4/../../../../pic32mx/lib/./proc/32MX795F512L/processor.o
                                                  /Applications/microchip/mplabc32/v1.11a/bin/../lib/gcc/pic32mx/3.4.4/../../../../pic32mx/lib/libc.a(memcpy.o)
                                                  build/mega/production/startup.o
IFS2INV                                           /Applications/microchip/mplabc32/v1.11a/bin/../lib/gcc/pic32mx/3.4.4/../../../../pic32mx/lib/./proc/32MX795F512L/processor.o
                                                  /Applications/microchip/mplabc32/v1.11a/bin/../lib/gcc/pic32mx/3.4.4/../../../../pic32mx/lib/libc.a(memcpy.o)
                                                  build/mega/production/startup.o
IFS2SET                                           /Applications/microchip/mplabc32/v1.11a/bin/../lib/gcc/pic32mx/3.4.4/../../../../pic32mx/lib/./proc/32MX795F512L/processor.o
                                                  /Applications/microchip/mplabc32/v1.11a/bin/../lib/gcc/pic32mx/3.4.4/../../../../pic32mx/lib/libc.a(memcpy.o)
                                                  build/mega/production/startup.o
INTCON                                            /Applications/microchip/mplabc32/v1.11a/bin/../lib/gcc/pic32mx/3.4.4/../../../../pic32mx/lib/./proc/32MX795F512L/processor.o
                                                  /Applications/microchip/mplabc32/v1.11a/bin/../lib/gcc/pic32mx/3.4.4/../../../../pic32mx/lib/libc.a(memcpy.o)
                                                  build/mega/production/startup.o
INTCONCLR                                         /Applications/microchip/mplabc32/v1.11a/bin/../lib/gcc/pic32mx/3.4.4/../../../../pic32mx/lib/./proc/32MX795F512L/processor.o
                                                  /Applications/microchip/mplabc32/v1.11a/bin/../lib/gcc/pic32mx/3.4.4/../../../../pic32mx/lib/libc.a(memcpy.o)
                                                  build/mega/production/startup.o
INTCONINV                                         /Applications/microchip/mplabc32/v1.11a/bin/../lib/gcc/pic32mx/3.4.4/../../../../pic32mx/lib/./proc/32MX795F512L/processor.o
                                                  /Applications/microchip/mplabc32/v1.11a/bin/../lib/gcc/pic32mx/3.4.4/../../../../pic32mx/lib/libc.a(memcpy.o)
                                                  build/mega/production/startup.o
INTCONSET                                         /Applications/microchip/mplabc32/v1.11a/bin/../lib/gcc/pic32mx/3.4.4/../../../../pic32mx/lib/./proc/32MX795F512L/processor.o
                                                  /Applications/microchip/mplabc32/v1.11a/bin/../lib/gcc/pic32mx/3.4.4/../../../../pic32mx/lib/libc.a(memcpy.o)
                                                  build/mega/production/startup.o
INTDisableInterrupts                              /Applications/microchip/mplabc32/v1.11a/bin/../lib/gcc/pic32mx/3.4.4/../../../../pic32mx/lib/libmchp_peripheral_32MX795F512L.a(int_disable_interrupts_lib.o)
                                                  /Applications/microchip/mplabc32/v1.11a/bin/../lib/gcc/pic32mx/3.4.4/../../../../pic32mx/lib/libmchp_peripheral_32MX795F512L.a(nvm_operation_lib.o)
                                                  build/mega/production/pic32bootloader.o
INTRestoreInterrupts                              /Applications/microchip/mplabc32/v1.11a/bin/../lib/gcc/pic32mx/3.4.4/../../../../pic32mx/lib/libmchp_peripheral_32MX795F512L.a(int_restore_interrupts_lib.o)
                                                  /Applications/microchip/mplabc32/v1.11a/bin/../lib/gcc/pic32mx/3.4.4/../../../../pic32mx/lib/libmchp_peripheral_32MX795F512L.a(nvm_operation_lib.o)
                                                  build/mega/production/pic32bootloader.o
INTSTAT                                           /Applications/microchip/mplabc32/v1.11a/bin/../lib/gcc/pic32mx/3.4.4/../../../../pic32mx/lib/./proc/32MX795F512L/processor.o
                                                  /Applications/microchip/mplabc32/v1.11a/bin/../lib/gcc/pic32mx/3.4.4/../../../../pic32mx/lib/libc.a(memcpy.o)
                                                  build/mega/production/startup.o
IPC0                                              /Applications/microchip/mplabc32/v1.11a/bin/../lib/gcc/pic32mx/3.4.4/../../../../pic32mx/lib/./proc/32MX795F512L/processor.o
                                                  /Applications/microchip/mplabc32/v1.11a/bin/../lib/gcc/pic32mx/3.4.4/../../../../pic32mx/lib/libc.a(memcpy.o)
                                                  build/mega/production/startup.o
IPC0CLR                                           /Applications/microchip/mplabc32/v1.11a/bin/../lib/gcc/pic32mx/3.4.4/../../../../pic32mx/lib/./proc/32MX795F512L/processor.o
                                                  /Applications/microchip/mplabc32/v1.11a/bin/../lib/gcc/pic32mx/3.4.4/../../../../pic32mx/lib/libc.a(memcpy.o)
                                                  build/mega/production/startup.o
IPC0INV                                           /Applications/microchip/mplabc32/v1.11a/bin/../lib/gcc/pic32mx/3.4.4/../../../../pic32mx/lib/./proc/32MX795F512L/processor.o
                                                  /Applications/microchip/mplabc32/v1.11a/bin/../lib/gcc/pic32mx/3.4.4/../../../../pic32mx/lib/libc.a(memcpy.o)
                                                  build/mega/production/startup.o
IPC0SET                                           /Applications/microchip/mplabc32/v1.11a/bin/../lib/gcc/pic32mx/3.4.4/../../../../pic32mx/lib/./proc/32MX795F512L/processor.o
                                                  /Applications/microchip/mplabc32/v1.11a/bin/../lib/gcc/pic32mx/3.4.4/../../../../pic32mx/lib/libc.a(memcpy.o)
                                                  build/mega/production/startup.o
IPC1                                              /Applications/microchip/mplabc32/v1.11a/bin/../lib/gcc/pic32mx/3.4.4/../../../../pic32mx/lib/./proc/32MX795F512L/processor.o
                                                  /Applications/microchip/mplabc32/v1.11a/bin/../lib/gcc/pic32mx/3.4.4/../../../../pic32mx/lib/libc.a(memcpy.o)
                                                  build/mega/production/startup.o
IPC10                                             /Applications/microchip/mplabc32/v1.11a/bin/../lib/gcc/pic32mx/3.4.4/../../../../pic32mx/lib/./proc/32MX795F512L/processor.o
                                                  /Applications/microchip/mplabc32/v1.11a/bin/../lib/gcc/pic32mx/3.4.4/../../../../pic32mx/lib/libc.a(memcpy.o)
                                                  build/mega/production/startup.o
IPC10CLR                                          /Applications/microchip/mplabc32/v1.11a/bin/../lib/gcc/pic32mx/3.4.4/../../../../pic32mx/lib/./proc/32MX795F512L/processor.o
                                                  /Applications/microchip/mplabc32/v1.11a/bin/../lib/gcc/pic32mx/3.4.4/../../../../pic32mx/lib/libc.a(memcpy.o)
                                                  build/mega/production/startup.o
IPC10INV                                          /Applications/microchip/mplabc32/v1.11a/bin/../lib/gcc/pic32mx/3.4.4/../../../../pic32mx/lib/./proc/32MX795F512L/processor.o
                                                  /Applications/microchip/mplabc32/v1.11a/bin/../lib/gcc/pic32mx/3.4.4/../../../../pic32mx/lib/libc.a(memcpy.o)
                                                  build/mega/production/startup.o
IPC10SET                                          /Applications/microchip/mplabc32/v1.11a/bin/../lib/gcc/pic32mx/3.4.4/../../../../pic32mx/lib/./proc/32MX795F512L/processor.o
                                                  /Applications/microchip/mplabc32/v1.11a/bin/../lib/gcc/pic32mx/3.4.4/../../../../pic32mx/lib/libc.a(memcpy.o)
                                                  build/mega/production/startup.o
IPC11                                             /Applications/microchip/mplabc32/v1.11a/bin/../lib/gcc/pic32mx/3.4.4/../../../../pic32mx/lib/./proc/32MX795F512L/processor.o
                                                  /Applications/microchip/mplabc32/v1.11a/bin/../lib/gcc/pic32mx/3.4.4/../../../../pic32mx/lib/libc.a(memcpy.o)
                                                  build/mega/production/startup.o
IPC11CLR                                          /Applications/microchip/mplabc32/v1.11a/bin/../lib/gcc/pic32mx/3.4.4/../../../../pic32mx/lib/./proc/32MX795F512L/processor.o
                                                  /Applications/microchip/mplabc32/v1.11a/bin/../lib/gcc/pic32mx/3.4.4/../../../../pic32mx/lib/libc.a(memcpy.o)
                                                  build/mega/production/startup.o
IPC11INV                                          /Applications/microchip/mplabc32/v1.11a/bin/../lib/gcc/pic32mx/3.4.4/../../../../pic32mx/lib/./proc/32MX795F512L/processor.o
                                                  /Applications/microchip/mplabc32/v1.11a/bin/../lib/gcc/pic32mx/3.4.4/../../../../pic32mx/lib/libc.a(memcpy.o)
                                                  build/mega/production/startup.o
IPC11SET                                          /Applications/microchip/mplabc32/v1.11a/bin/../lib/gcc/pic32mx/3.4.4/../../../../pic32mx/lib/./proc/32MX795F512L/processor.o
                                                  /Applications/microchip/mplabc32/v1.11a/bin/../lib/gcc/pic32mx/3.4.4/../../../../pic32mx/lib/libc.a(memcpy.o)
                                                  build/mega/production/startup.o
IPC12                                             /Applications/microchip/mplabc32/v1.11a/bin/../lib/gcc/pic32mx/3.4.4/../../../../pic32mx/lib/./proc/32MX795F512L/processor.o
                                                  build/mega/production/startup.o
IPC12CLR                                          /Applications/microchip/mplabc32/v1.11a/bin/../lib/gcc/pic32mx/3.4.4/../../../../pic32mx/lib/./proc/32MX795F512L/processor.o
                                                  build/mega/production/startup.o
IPC12INV                                          /Applications/microchip/mplabc32/v1.11a/bin/../lib/gcc/pic32mx/3.4.4/../../../../pic32mx/lib/./proc/32MX795F512L/processor.o
                                                  build/mega/production/startup.o
IPC12SET                                          /Applications/microchip/mplabc32/v1.11a/bin/../lib/gcc/pic32mx/3.4.4/../../../../pic32mx/lib/./proc/32MX795F512L/processor.o
                                                  build/mega/production/startup.o
IPC13                                             /Applications/microchip/mplabc32/v1.11a/bin/../lib/gcc/pic32mx/3.4.4/../../../../pic32mx/lib/./proc/32MX795F512L/processor.o
                                                  build/mega/production/startup.o
IPC13CLR                                          /Applications/microchip/mplabc32/v1.11a/bin/../lib/gcc/pic32mx/3.4.4/../../../../pic32mx/lib/./proc/32MX795F512L/processor.o
                                                  build/mega/production/startup.o
IPC13INV                                          /Applications/microchip/mplabc32/v1.11a/bin/../lib/gcc/pic32mx/3.4.4/../../../../pic32mx/lib/./proc/32MX795F512L/processor.o
                                                  build/mega/production/startup.o
IPC13SET                                          /Applications/microchip/mplabc32/v1.11a/bin/../lib/gcc/pic32mx/3.4.4/../../../../pic32mx/lib/./proc/32MX795F512L/processor.o
                                                  build/mega/production/startup.o
IPC14                                             /Applications/microchip/mplabc32/v1.11a/bin/../lib/gcc/pic32mx/3.4.4/../../../../pic32mx/lib/./proc/32MX795F512L/processor.o
                                                  build/mega/production/startup.o
IPC14CLR                                          /Applications/microchip/mplabc32/v1.11a/bin/../lib/gcc/pic32mx/3.4.4/../../../../pic32mx/lib/./proc/32MX795F512L/processor.o
                                                  build/mega/production/startup.o
IPC14INV                                          /Applications/microchip/mplabc32/v1.11a/bin/../lib/gcc/pic32mx/3.4.4/../../../../pic32mx/lib/./proc/32MX795F512L/processor.o
                                                  build/mega/production/startup.o
IPC14SET                                          /Applications/microchip/mplabc32/v1.11a/bin/../lib/gcc/pic32mx/3.4.4/../../../../pic32mx/lib/./proc/32MX795F512L/processor.o
                                                  build/mega/production/startup.o
IPC15                                             /Applications/microchip/mplabc32/v1.11a/bin/../lib/gcc/pic32mx/3.4.4/../../../../pic32mx/lib/./proc/32MX795F512L/processor.o
                                                  build/mega/production/startup.o
IPC15CLR                                          /Applications/microchip/mplabc32/v1.11a/bin/../lib/gcc/pic32mx/3.4.4/../../../../pic32mx/lib/./proc/32MX795F512L/processor.o
                                                  build/mega/production/startup.o
IPC15INV                                          /Applications/microchip/mplabc32/v1.11a/bin/../lib/gcc/pic32mx/3.4.4/../../../../pic32mx/lib/./proc/32MX795F512L/processor.o
                                                  build/mega/production/startup.o
IPC15SET                                          /Applications/microchip/mplabc32/v1.11a/bin/../lib/gcc/pic32mx/3.4.4/../../../../pic32mx/lib/./proc/32MX795F512L/processor.o
                                                  build/mega/production/startup.o
IPC1CLR                                           /Applications/microchip/mplabc32/v1.11a/bin/../lib/gcc/pic32mx/3.4.4/../../../../pic32mx/lib/./proc/32MX795F512L/processor.o
                                                  /Applications/microchip/mplabc32/v1.11a/bin/../lib/gcc/pic32mx/3.4.4/../../../../pic32mx/lib/libc.a(memcpy.o)
                                                  build/mega/production/startup.o
IPC1INV                                           /Applications/microchip/mplabc32/v1.11a/bin/../lib/gcc/pic32mx/3.4.4/../../../../pic32mx/lib/./proc/32MX795F512L/processor.o
                                                  /Applications/microchip/mplabc32/v1.11a/bin/../lib/gcc/pic32mx/3.4.4/../../../../pic32mx/lib/libc.a(memcpy.o)
                                                  build/mega/production/startup.o
IPC1SET                                           /Applications/microchip/mplabc32/v1.11a/bin/../lib/gcc/pic32mx/3.4.4/../../../../pic32mx/lib/./proc/32MX795F512L/processor.o
                                                  /Applications/microchip/mplabc32/v1.11a/bin/../lib/gcc/pic32mx/3.4.4/../../../../pic32mx/lib/libc.a(memcpy.o)
                                                  build/mega/production/startup.o
IPC2                                              /Applications/microchip/mplabc32/v1.11a/bin/../lib/gcc/pic32mx/3.4.4/../../../../pic32mx/lib/./proc/32MX795F512L/processor.o
                                                  /Applications/microchip/mplabc32/v1.11a/bin/../lib/gcc/pic32mx/3.4.4/../../../../pic32mx/lib/libc.a(memcpy.o)
                                                  build/mega/production/startup.o
IPC2CLR                                           /Applications/microchip/mplabc32/v1.11a/bin/../lib/gcc/pic32mx/3.4.4/../../../../pic32mx/lib/./proc/32MX795F512L/processor.o
                                                  /Applications/microchip/mplabc32/v1.11a/bin/../lib/gcc/pic32mx/3.4.4/../../../../pic32mx/lib/libc.a(memcpy.o)
                                                  build/mega/production/startup.o
IPC2INV                                           /Applications/microchip/mplabc32/v1.11a/bin/../lib/gcc/pic32mx/3.4.4/../../../../pic32mx/lib/./proc/32MX795F512L/processor.o
                                                  /Applications/microchip/mplabc32/v1.11a/bin/../lib/gcc/pic32mx/3.4.4/../../../../pic32mx/lib/libc.a(memcpy.o)
                                                  build/mega/production/startup.o
IPC2SET                                           /Applications/microchip/mplabc32/v1.11a/bin/../lib/gcc/pic32mx/3.4.4/../../../../pic32mx/lib/./proc/32MX795F512L/processor.o
                                                  /Applications/microchip/mplabc32/v1.11a/bin/../lib/gcc/pic32mx/3.4.4/../../../../pic32mx/lib/libc.a(memcpy.o)
                                                  build/mega/production/startup.o
IPC3                                              /Applications/microchip/mplabc32/v1.11a/bin/../lib/gcc/pic32mx/3.4.4/../../../../pic32mx/lib/./proc/32MX795F512L/processor.o
                                                  /Applications/microchip/mplabc32/v1.11a/bin/../lib/gcc/pic32mx/3.4.4/../../../../pic32mx/lib/libc.a(memcpy.o)
                                                  build/mega/production/startup.o
IPC3CLR                                           /Applications/microchip/mplabc32/v1.11a/bin/../lib/gcc/pic32mx/3.4.4/../../../../pic32mx/lib/./proc/32MX795F512L/processor.o
                                                  /Applications/microchip/mplabc32/v1.11a/bin/../lib/gcc/pic32mx/3.4.4/../../../../pic32mx/lib/libc.a(memcpy.o)
                                                  build/mega/production/startup.o
IPC3INV                                           /Applications/microchip/mplabc32/v1.11a/bin/../lib/gcc/pic32mx/3.4.4/../../../../pic32mx/lib/./proc/32MX795F512L/processor.o
                                                  /Applications/microchip/mplabc32/v1.11a/bin/../lib/gcc/pic32mx/3.4.4/../../../../pic32mx/lib/libc.a(memcpy.o)
                                                  build/mega/production/startup.o
IPC3SET                                           /Applications/microchip/mplabc32/v1.11a/bin/../lib/gcc/pic32mx/3.4.4/../../../../pic32mx/lib/./proc/32MX795F512L/processor.o
                                                  /Applications/microchip/mplabc32/v1.11a/bin/../lib/gcc/pic32mx/3.4.4/../../../../pic32mx/lib/libc.a(memcpy.o)
                                                  build/mega/production/startup.o
IPC4                                              /Applications/microchip/mplabc32/v1.11a/bin/../lib/gcc/pic32mx/3.4.4/../../../../pic32mx/lib/./proc/32MX795F512L/processor.o
                                                  /Applications/microchip/mplabc32/v1.11a/bin/../lib/gcc/pic32mx/3.4.4/../../../../pic32mx/lib/libc.a(memcpy.o)
                                                  build/mega/production/startup.o
IPC4CLR                                           /Applications/microchip/mplabc32/v1.11a/bin/../lib/gcc/pic32mx/3.4.4/../../../../pic32mx/lib/./proc/32MX795F512L/processor.o
                                                  /Applications/microchip/mplabc32/v1.11a/bin/../lib/gcc/pic32mx/3.4.4/../../../../pic32mx/lib/libc.a(memcpy.o)
                                                  build/mega/production/startup.o
IPC4INV                                           /Applications/microchip/mplabc32/v1.11a/bin/../lib/gcc/pic32mx/3.4.4/../../../../pic32mx/lib/./proc/32MX795F512L/processor.o
                                                  /Applications/microchip/mplabc32/v1.11a/bin/../lib/gcc/pic32mx/3.4.4/../../../../pic32mx/lib/libc.a(memcpy.o)
                                                  build/mega/production/startup.o
IPC4SET                                           /Applications/microchip/mplabc32/v1.11a/bin/../lib/gcc/pic32mx/3.4.4/../../../../pic32mx/lib/./proc/32MX795F512L/processor.o
                                                  /Applications/microchip/mplabc32/v1.11a/bin/../lib/gcc/pic32mx/3.4.4/../../../../pic32mx/lib/libc.a(memcpy.o)
                                                  build/mega/production/startup.o
IPC5                                              /Applications/microchip/mplabc32/v1.11a/bin/../lib/gcc/pic32mx/3.4.4/../../../../pic32mx/lib/./proc/32MX795F512L/processor.o
                                                  /Applications/microchip/mplabc32/v1.11a/bin/../lib/gcc/pic32mx/3.4.4/../../../../pic32mx/lib/libc.a(memcpy.o)
                                                  build/mega/production/startup.o
IPC5CLR                                           /Applications/microchip/mplabc32/v1.11a/bin/../lib/gcc/pic32mx/3.4.4/../../../../pic32mx/lib/./proc/32MX795F512L/processor.o
                                                  /Applications/microchip/mplabc32/v1.11a/bin/../lib/gcc/pic32mx/3.4.4/../../../../pic32mx/lib/libc.a(memcpy.o)
                                                  build/mega/production/startup.o
IPC5INV                                           /Applications/microchip/mplabc32/v1.11a/bin/../lib/gcc/pic32mx/3.4.4/../../../../pic32mx/lib/./proc/32MX795F512L/processor.o
                                                  /Applications/microchip/mplabc32/v1.11a/bin/../lib/gcc/pic32mx/3.4.4/../../../../pic32mx/lib/libc.a(memcpy.o)
                                                  build/mega/production/startup.o
IPC5SET                                           /Applications/microchip/mplabc32/v1.11a/bin/../lib/gcc/pic32mx/3.4.4/../../../../pic32mx/lib/./proc/32MX795F512L/processor.o
                                                  /Applications/microchip/mplabc32/v1.11a/bin/../lib/gcc/pic32mx/3.4.4/../../../../pic32mx/lib/libc.a(memcpy.o)
                                                  build/mega/production/startup.o
IPC6                                              /Applications/microchip/mplabc32/v1.11a/bin/../lib/gcc/pic32mx/3.4.4/../../../../pic32mx/lib/./proc/32MX795F512L/processor.o
                                                  /Applications/microchip/mplabc32/v1.11a/bin/../lib/gcc/pic32mx/3.4.4/../../../../pic32mx/lib/libc.a(memcpy.o)
                                                  build/mega/production/startup.o
IPC6CLR                                           /Applications/microchip/mplabc32/v1.11a/bin/../lib/gcc/pic32mx/3.4.4/../../../../pic32mx/lib/./proc/32MX795F512L/processor.o
                                                  /Applications/microchip/mplabc32/v1.11a/bin/../lib/gcc/pic32mx/3.4.4/../../../../pic32mx/lib/libc.a(memcpy.o)
                                                  build/mega/production/startup.o
IPC6INV                                           /Applications/microchip/mplabc32/v1.11a/bin/../lib/gcc/pic32mx/3.4.4/../../../../pic32mx/lib/./proc/32MX795F512L/processor.o
                                                  /Applications/microchip/mplabc32/v1.11a/bin/../lib/gcc/pic32mx/3.4.4/../../../../pic32mx/lib/libc.a(memcpy.o)
                                                  build/mega/production/startup.o
IPC6SET                                           /Applications/microchip/mplabc32/v1.11a/bin/../lib/gcc/pic32mx/3.4.4/../../../../pic32mx/lib/./proc/32MX795F512L/processor.o
                                                  /Applications/microchip/mplabc32/v1.11a/bin/../lib/gcc/pic32mx/3.4.4/../../../../pic32mx/lib/libc.a(memcpy.o)
                                                  build/mega/production/startup.o
IPC7                                              /Applications/microchip/mplabc32/v1.11a/bin/../lib/gcc/pic32mx/3.4.4/../../../../pic32mx/lib/./proc/32MX795F512L/processor.o
                                                  /Applications/microchip/mplabc32/v1.11a/bin/../lib/gcc/pic32mx/3.4.4/../../../../pic32mx/lib/libc.a(memcpy.o)
                                                  build/mega/production/startup.o
IPC7CLR                                           /Applications/microchip/mplabc32/v1.11a/bin/../lib/gcc/pic32mx/3.4.4/../../../../pic32mx/lib/./proc/32MX795F512L/processor.o
                                                  /Applications/microchip/mplabc32/v1.11a/bin/../lib/gcc/pic32mx/3.4.4/../../../../pic32mx/lib/libc.a(memcpy.o)
                                                  build/mega/production/startup.o
IPC7INV                                           /Applications/microchip/mplabc32/v1.11a/bin/../lib/gcc/pic32mx/3.4.4/../../../../pic32mx/lib/./proc/32MX795F512L/processor.o
                                                  /Applications/microchip/mplabc32/v1.11a/bin/../lib/gcc/pic32mx/3.4.4/../../../../pic32mx/lib/libc.a(memcpy.o)
                                                  build/mega/production/startup.o
IPC7SET                                           /Applications/microchip/mplabc32/v1.11a/bin/../lib/gcc/pic32mx/3.4.4/../../../../pic32mx/lib/./proc/32MX795F512L/processor.o
                                                  /Applications/microchip/mplabc32/v1.11a/bin/../lib/gcc/pic32mx/3.4.4/../../../../pic32mx/lib/libc.a(memcpy.o)
                                                  build/mega/production/startup.o
IPC8                                              /Applications/microchip/mplabc32/v1.11a/bin/../lib/gcc/pic32mx/3.4.4/../../../../pic32mx/lib/./proc/32MX795F512L/processor.o
                                                  /Applications/microchip/mplabc32/v1.11a/bin/../lib/gcc/pic32mx/3.4.4/../../../../pic32mx/lib/libc.a(memcpy.o)
                                                  build/mega/production/startup.o
IPC8CLR                                           /Applications/microchip/mplabc32/v1.11a/bin/../lib/gcc/pic32mx/3.4.4/../../../../pic32mx/lib/./proc/32MX795F512L/processor.o
                                                  /Applications/microchip/mplabc32/v1.11a/bin/../lib/gcc/pic32mx/3.4.4/../../../../pic32mx/lib/libc.a(memcpy.o)
                                                  build/mega/production/startup.o
IPC8INV                                           /Applications/microchip/mplabc32/v1.11a/bin/../lib/gcc/pic32mx/3.4.4/../../../../pic32mx/lib/./proc/32MX795F512L/processor.o
                                                  /Applications/microchip/mplabc32/v1.11a/bin/../lib/gcc/pic32mx/3.4.4/../../../../pic32mx/lib/libc.a(memcpy.o)
                                                  build/mega/production/startup.o
IPC8SET                                           /Applications/microchip/mplabc32/v1.11a/bin/../lib/gcc/pic32mx/3.4.4/../../../../pic32mx/lib/./proc/32MX795F512L/processor.o
                                                  /Applications/microchip/mplabc32/v1.11a/bin/../lib/gcc/pic32mx/3.4.4/../../../../pic32mx/lib/libc.a(memcpy.o)
                                                  build/mega/production/startup.o
IPC9                                              /Applications/microchip/mplabc32/v1.11a/bin/../lib/gcc/pic32mx/3.4.4/../../../../pic32mx/lib/./proc/32MX795F512L/processor.o
                                                  /Applications/microchip/mplabc32/v1.11a/bin/../lib/gcc/pic32mx/3.4.4/../../../../pic32mx/lib/libc.a(memcpy.o)
                                                  build/mega/production/startup.o
IPC9CLR                                           /Applications/microchip/mplabc32/v1.11a/bin/../lib/gcc/pic32mx/3.4.4/../../../../pic32mx/lib/./proc/32MX795F512L/processor.o
                                                  /Applications/microchip/mplabc32/v1.11a/bin/../lib/gcc/pic32mx/3.4.4/../../../../pic32mx/lib/libc.a(memcpy.o)
                                                  build/mega/production/startup.o
IPC9INV                                           /Applications/microchip/mplabc32/v1.11a/bin/../lib/gcc/pic32mx/3.4.4/../../../../pic32mx/lib/./proc/32MX795F512L/processor.o
                                                  /Applications/microchip/mplabc32/v1.11a/bin/../lib/gcc/pic32mx/3.4.4/../../../../pic32mx/lib/libc.a(memcpy.o)
                                                  build/mega/production/startup.o
IPC9SET                                           /Applications/microchip/mplabc32/v1.11a/bin/../lib/gcc/pic32mx/3.4.4/../../../../pic32mx/lib/./proc/32MX795F512L/processor.o
                                                  /Applications/microchip/mplabc32/v1.11a/bin/../lib/gcc/pic32mx/3.4.4/../../../../pic32mx/lib/libc.a(memcpy.o)
                                                  build/mega/production/startup.o
IPTMR                                             /Applications/microchip/mplabc32/v1.11a/bin/../lib/gcc/pic32mx/3.4.4/../../../../pic32mx/lib/./proc/32MX795F512L/processor.o
                                                  /Applications/microchip/mplabc32/v1.11a/bin/../lib/gcc/pic32mx/3.4.4/../../../../pic32mx/lib/libc.a(memcpy.o)
                                                  build/mega/production/startup.o
IPTMRCLR                                          /Applications/microchip/mplabc32/v1.11a/bin/../lib/gcc/pic32mx/3.4.4/../../../../pic32mx/lib/./proc/32MX795F512L/processor.o
                                                  /Applications/microchip/mplabc32/v1.11a/bin/../lib/gcc/pic32mx/3.4.4/../../../../pic32mx/lib/libc.a(memcpy.o)
                                                  build/mega/production/startup.o
IPTMRINV                                          /Applications/microchip/mplabc32/v1.11a/bin/../lib/gcc/pic32mx/3.4.4/../../../../pic32mx/lib/./proc/32MX795F512L/processor.o
                                                  /Applications/microchip/mplabc32/v1.11a/bin/../lib/gcc/pic32mx/3.4.4/../../../../pic32mx/lib/libc.a(memcpy.o)
                                                  build/mega/production/startup.o
IPTMRSET                                          /Applications/microchip/mplabc32/v1.11a/bin/../lib/gcc/pic32mx/3.4.4/../../../../pic32mx/lib/./proc/32MX795F512L/processor.o
                                                  /Applications/microchip/mplabc32/v1.11a/bin/../lib/gcc/pic32mx/3.4.4/../../../../pic32mx/lib/libc.a(memcpy.o)
                                                  build/mega/production/startup.o
LATA                                              /Applications/microchip/mplabc32/v1.11a/bin/../lib/gcc/pic32mx/3.4.4/../../../../pic32mx/lib/./proc/32MX795F512L/processor.o
                                                  /Applications/microchip/mplabc32/v1.11a/bin/../lib/gcc/pic32mx/3.4.4/../../../../pic32mx/lib/libc.a(memcpy.o)
                                                  build/mega/production/startup.o
LATACLR                                           /Applications/microchip/mplabc32/v1.11a/bin/../lib/gcc/pic32mx/3.4.4/../../../../pic32mx/lib/./proc/32MX795F512L/processor.o
                                                  /Applications/microchip/mplabc32/v1.11a/bin/../lib/gcc/pic32mx/3.4.4/../../../../pic32mx/lib/libc.a(memcpy.o)
                                                  build/mega/production/pic32bootloader.o
                                                  build/mega/production/startup.o
LATAINV                                           /Applications/microchip/mplabc32/v1.11a/bin/../lib/gcc/pic32mx/3.4.4/../../../../pic32mx/lib/./proc/32MX795F512L/processor.o
                                                  /Applications/microchip/mplabc32/v1.11a/bin/../lib/gcc/pic32mx/3.4.4/../../../../pic32mx/lib/libc.a(memcpy.o)
                                                  build/mega/production/pic32bootloader.o
                                                  build/mega/production/startup.o
LATASET                                           /Applications/microchip/mplabc32/v1.11a/bin/../lib/gcc/pic32mx/3.4.4/../../../../pic32mx/lib/./proc/32MX795F512L/processor.o
                                                  /Applications/microchip/mplabc32/v1.11a/bin/../lib/gcc/pic32mx/3.4.4/../../../../pic32mx/lib/libc.a(memcpy.o)
                                                  build/mega/production/startup.o
LATB                                              /Applications/microchip/mplabc32/v1.11a/bin/../lib/gcc/pic32mx/3.4.4/../../../../pic32mx/lib/./proc/32MX795F512L/processor.o
                                                  /Applications/microchip/mplabc32/v1.11a/bin/../lib/gcc/pic32mx/3.4.4/../../../../pic32mx/lib/libc.a(memcpy.o)
                                                  build/mega/production/startup.o
LATBCLR                                           /Applications/microchip/mplabc32/v1.11a/bin/../lib/gcc/pic32mx/3.4.4/../../../../pic32mx/lib/./proc/32MX795F512L/processor.o
                                                  /Applications/microchip/mplabc32/v1.11a/bin/../lib/gcc/pic32mx/3.4.4/../../../../pic32mx/lib/libc.a(memcpy.o)
                                                  build/mega/production/startup.o
LATBINV                                           /Applications/microchip/mplabc32/v1.11a/bin/../lib/gcc/pic32mx/3.4.4/../../../../pic32mx/lib/./proc/32MX795F512L/processor.o
                                                  /Applications/microchip/mplabc32/v1.11a/bin/../lib/gcc/pic32mx/3.4.4/../../../../pic32mx/lib/libc.a(memcpy.o)
                                                  build/mega/production/startup.o
LATBSET                                           /Applications/microchip/mplabc32/v1.11a/bin/../lib/gcc/pic32mx/3.4.4/../../../../pic32mx/lib/./proc/32MX795F512L/processor.o
                                                  /Applications/microchip/mplabc32/v1.11a/bin/../lib/gcc/pic32mx/3.4.4/../../../../pic32mx/lib/libc.a(memcpy.o)
                                                  build/mega/production/startup.o
LATC                                              /Applications/microchip/mplabc32/v1.11a/bin/../lib/gcc/pic32mx/3.4.4/../../../../pic32mx/lib/./proc/32MX795F512L/processor.o
                                                  /Applications/microchip/mplabc32/v1.11a/bin/../lib/gcc/pic32mx/3.4.4/../../../../pic32mx/lib/libc.a(memcpy.o)
                                                  build/mega/production/startup.o
LATCCLR                                           /Applications/microchip/mplabc32/v1.11a/bin/../lib/gcc/pic32mx/3.4.4/../../../../pic32mx/lib/./proc/32MX795F512L/processor.o
                                                  /Applications/microchip/mplabc32/v1.11a/bin/../lib/gcc/pic32mx/3.4.4/../../../../pic32mx/lib/libc.a(memcpy.o)
                                                  build/mega/production/startup.o
LATCINV                                           /Applications/microchip/mplabc32/v1.11a/bin/../lib/gcc/pic32mx/3.4.4/../../../../pic32mx/lib/./proc/32MX795F512L/processor.o
                                                  /Applications/microchip/mplabc32/v1.11a/bin/../lib/gcc/pic32mx/3.4.4/../../../../pic32mx/lib/libc.a(memcpy.o)
                                                  build/mega/production/startup.o
LATCSET                                           /Applications/microchip/mplabc32/v1.11a/bin/../lib/gcc/pic32mx/3.4.4/../../../../pic32mx/lib/./proc/32MX795F512L/processor.o
                                                  /Applications/microchip/mplabc32/v1.11a/bin/../lib/gcc/pic32mx/3.4.4/../../../../pic32mx/lib/libc.a(memcpy.o)
                                                  build/mega/production/startup.o
LATD                                              /Applications/microchip/mplabc32/v1.11a/bin/../lib/gcc/pic32mx/3.4.4/../../../../pic32mx/lib/./proc/32MX795F512L/processor.o
                                                  /Applications/microchip/mplabc32/v1.11a/bin/../lib/gcc/pic32mx/3.4.4/../../../../pic32mx/lib/libc.a(memcpy.o)
                                                  build/mega/production/startup.o
LATDCLR                                           /Applications/microchip/mplabc32/v1.11a/bin/../lib/gcc/pic32mx/3.4.4/../../../../pic32mx/lib/./proc/32MX795F512L/processor.o
                                                  /Applications/microchip/mplabc32/v1.11a/bin/../lib/gcc/pic32mx/3.4.4/../../../../pic32mx/lib/libc.a(memcpy.o)
                                                  build/mega/production/pic32bootloader.o
                                                  build/mega/production/startup.o
LATDINV                                           /Applications/microchip/mplabc32/v1.11a/bin/../lib/gcc/pic32mx/3.4.4/../../../../pic32mx/lib/./proc/32MX795F512L/processor.o
                                                  /Applications/microchip/mplabc32/v1.11a/bin/../lib/gcc/pic32mx/3.4.4/../../../../pic32mx/lib/libc.a(memcpy.o)
                                                  build/mega/production/pic32bootloader.o
                                                  build/mega/production/startup.o
LATDSET                                           /Applications/microchip/mplabc32/v1.11a/bin/../lib/gcc/pic32mx/3.4.4/../../../../pic32mx/lib/./proc/32MX795F512L/processor.o
                                                  /Applications/microchip/mplabc32/v1.11a/bin/../lib/gcc/pic32mx/3.4.4/../../../../pic32mx/lib/libc.a(memcpy.o)
                                                  build/mega/production/startup.o
LATE                                              /Applications/microchip/mplabc32/v1.11a/bin/../lib/gcc/pic32mx/3.4.4/../../../../pic32mx/lib/./proc/32MX795F512L/processor.o
                                                  /Applications/microchip/mplabc32/v1.11a/bin/../lib/gcc/pic32mx/3.4.4/../../../../pic32mx/lib/libc.a(memcpy.o)
                                                  build/mega/production/startup.o
LATECLR                                           /Applications/microchip/mplabc32/v1.11a/bin/../lib/gcc/pic32mx/3.4.4/../../../../pic32mx/lib/./proc/32MX795F512L/processor.o
                                                  /Applications/microchip/mplabc32/v1.11a/bin/../lib/gcc/pic32mx/3.4.4/../../../../pic32mx/lib/libc.a(memcpy.o)
                                                  build/mega/production/startup.o
LATEINV                                           /Applications/microchip/mplabc32/v1.11a/bin/../lib/gcc/pic32mx/3.4.4/../../../../pic32mx/lib/./proc/32MX795F512L/processor.o
                                                  /Applications/microchip/mplabc32/v1.11a/bin/../lib/gcc/pic32mx/3.4.4/../../../../pic32mx/lib/libc.a(memcpy.o)
                                                  build/mega/production/startup.o
LATESET                                           /Applications/microchip/mplabc32/v1.11a/bin/../lib/gcc/pic32mx/3.4.4/../../../../pic32mx/lib/./proc/32MX795F512L/processor.o
                                                  /Applications/microchip/mplabc32/v1.11a/bin/../lib/gcc/pic32mx/3.4.4/../../../../pic32mx/lib/libc.a(memcpy.o)
                                                  build/mega/production/startup.o
LATF                                              /Applications/microchip/mplabc32/v1.11a/bin/../lib/gcc/pic32mx/3.4.4/../../../../pic32mx/lib/./proc/32MX795F512L/processor.o
                                                  /Applications/microchip/mplabc32/v1.11a/bin/../lib/gcc/pic32mx/3.4.4/../../../../pic32mx/lib/libc.a(memcpy.o)
                                                  build/mega/production/startup.o
LATFCLR                                           /Applications/microchip/mplabc32/v1.11a/bin/../lib/gcc/pic32mx/3.4.4/../../../../pic32mx/lib/./proc/32MX795F512L/processor.o
                                                  /Applications/microchip/mplabc32/v1.11a/bin/../lib/gcc/pic32mx/3.4.4/../../../../pic32mx/lib/libc.a(memcpy.o)
                                                  build/mega/production/startup.o
LATFINV                                           /Applications/microchip/mplabc32/v1.11a/bin/../lib/gcc/pic32mx/3.4.4/../../../../pic32mx/lib/./proc/32MX795F512L/processor.o
                                                  /Applications/microchip/mplabc32/v1.11a/bin/../lib/gcc/pic32mx/3.4.4/../../../../pic32mx/lib/libc.a(memcpy.o)
                                                  build/mega/production/startup.o
LATFSET                                           /Applications/microchip/mplabc32/v1.11a/bin/../lib/gcc/pic32mx/3.4.4/../../../../pic32mx/lib/./proc/32MX795F512L/processor.o
                                                  /Applications/microchip/mplabc32/v1.11a/bin/../lib/gcc/pic32mx/3.4.4/../../../../pic32mx/lib/libc.a(memcpy.o)
                                                  build/mega/production/startup.o
LATG                                              /Applications/microchip/mplabc32/v1.11a/bin/../lib/gcc/pic32mx/3.4.4/../../../../pic32mx/lib/./proc/32MX795F512L/processor.o
                                                  /Applications/microchip/mplabc32/v1.11a/bin/../lib/gcc/pic32mx/3.4.4/../../../../pic32mx/lib/libc.a(memcpy.o)
                                                  build/mega/production/startup.o
LATGCLR                                           /Applications/microchip/mplabc32/v1.11a/bin/../lib/gcc/pic32mx/3.4.4/../../../../pic32mx/lib/./proc/32MX795F512L/processor.o
                                                  /Applications/microchip/mplabc32/v1.11a/bin/../lib/gcc/pic32mx/3.4.4/../../../../pic32mx/lib/libc.a(memcpy.o)
                                                  build/mega/production/startup.o
LATGINV                                           /Applications/microchip/mplabc32/v1.11a/bin/../lib/gcc/pic32mx/3.4.4/../../../../pic32mx/lib/./proc/32MX795F512L/processor.o
                                                  /Applications/microchip/mplabc32/v1.11a/bin/../lib/gcc/pic32mx/3.4.4/../../../../pic32mx/lib/libc.a(memcpy.o)
                                                  build/mega/production/startup.o
LATGSET                                           /Applications/microchip/mplabc32/v1.11a/bin/../lib/gcc/pic32mx/3.4.4/../../../../pic32mx/lib/./proc/32MX795F512L/processor.o
                                                  /Applications/microchip/mplabc32/v1.11a/bin/../lib/gcc/pic32mx/3.4.4/../../../../pic32mx/lib/libc.a(memcpy.o)
                                                  build/mega/production/startup.o
NVMADDR                                           /Applications/microchip/mplabc32/v1.11a/bin/../lib/gcc/pic32mx/3.4.4/../../../../pic32mx/lib/./proc/32MX795F512L/processor.o
                                                  /Applications/microchip/mplabc32/v1.11a/bin/../lib/gcc/pic32mx/3.4.4/../../../../pic32mx/lib/libc.a(memcpy.o)
                                                  /Applications/microchip/mplabc32/v1.11a/bin/../lib/gcc/pic32mx/3.4.4/../../../../pic32mx/lib/libmchp_peripheral_32MX795F512L.a(nvm_erase_page_lib.o)
                                                  /Applications/microchip/mplabc32/v1.11a/bin/../lib/gcc/pic32mx/3.4.4/../../../../pic32mx/lib/libmchp_peripheral_32MX795F512L.a(nvm_write_row_lib.o)
                                                  build/mega/production/startup.o
NVMADDRCLR                                        /Applications/microchip/mplabc32/v1.11a/bin/../lib/gcc/pic32mx/3.4.4/../../../../pic32mx/lib/./proc/32MX795F512L/processor.o
                                                  /Applications/microchip/mplabc32/v1.11a/bin/../lib/gcc/pic32mx/3.4.4/../../../../pic32mx/lib/libc.a(memcpy.o)
                                                  build/mega/production/startup.o
NVMADDRINV                                        /Applications/microchip/mplabc32/v1.11a/bin/../lib/gcc/pic32mx/3.4.4/../../../../pic32mx/lib/./proc/32MX795F512L/processor.o
                                                  /Applications/microchip/mplabc32/v1.11a/bin/../lib/gcc/pic32mx/3.4.4/../../../../pic32mx/lib/libc.a(memcpy.o)
                                                  build/mega/production/startup.o
NVMADDRSET                                        /Applications/microchip/mplabc32/v1.11a/bin/../lib/gcc/pic32mx/3.4.4/../../../../pic32mx/lib/./proc/32MX795F512L/processor.o
                                                  /Applications/microchip/mplabc32/v1.11a/bin/../lib/gcc/pic32mx/3.4.4/../../../../pic32mx/lib/libc.a(memcpy.o)
                                                  build/mega/production/startup.o
NVMCON                                            /Applications/microchip/mplabc32/v1.11a/bin/../lib/gcc/pic32mx/3.4.4/../../../../pic32mx/lib/./proc/32MX795F512L/processor.o
                                                  /Applications/microchip/mplabc32/v1.11a/bin/../lib/gcc/pic32mx/3.4.4/../../../../pic32mx/lib/libc.a(memcpy.o)
                                                  /Applications/microchip/mplabc32/v1.11a/bin/../lib/gcc/pic32mx/3.4.4/../../../../pic32mx/lib/libmchp_peripheral_32MX795F512L.a(nvm_operation_lib.o)
                                                  build/mega/production/startup.o
NVMCONCLR                                         /Applications/microchip/mplabc32/v1.11a/bin/../lib/gcc/pic32mx/3.4.4/../../../../pic32mx/lib/./proc/32MX795F512L/processor.o
                                                  /Applications/microchip/mplabc32/v1.11a/bin/../lib/gcc/pic32mx/3.4.4/../../../../pic32mx/lib/libc.a(memcpy.o)
                                                  /Applications/microchip/mplabc32/v1.11a/bin/../lib/gcc/pic32mx/3.4.4/../../../../pic32mx/lib/libmchp_peripheral_32MX795F512L.a(nvm_operation_lib.o)
                                                  build/mega/production/startup.o
NVMCONINV                                         /Applications/microchip/mplabc32/v1.11a/bin/../lib/gcc/pic32mx/3.4.4/../../../../pic32mx/lib/./proc/32MX795F512L/processor.o
                                                  /Applications/microchip/mplabc32/v1.11a/bin/../lib/gcc/pic32mx/3.4.4/../../../../pic32mx/lib/libc.a(memcpy.o)
                                                  build/mega/production/startup.o
NVMCONSET                                         /Applications/microchip/mplabc32/v1.11a/bin/../lib/gcc/pic32mx/3.4.4/../../../../pic32mx/lib/./proc/32MX795F512L/processor.o
                                                  /Applications/microchip/mplabc32/v1.11a/bin/../lib/gcc/pic32mx/3.4.4/../../../../pic32mx/lib/libc.a(memcpy.o)
                                                  /Applications/microchip/mplabc32/v1.11a/bin/../lib/gcc/pic32mx/3.4.4/../../../../pic32mx/lib/libmchp_peripheral_32MX795F512L.a(nvm_operation_lib.o)
                                                  build/mega/production/startup.o
NVMDATA                                           /Applications/microchip/mplabc32/v1.11a/bin/../lib/gcc/pic32mx/3.4.4/../../../../pic32mx/lib/./proc/32MX795F512L/processor.o
                                                  /Applications/microchip/mplabc32/v1.11a/bin/../lib/gcc/pic32mx/3.4.4/../../../../pic32mx/lib/libc.a(memcpy.o)
                                                  build/mega/production/startup.o
NVMErasePage                                      /Applications/microchip/mplabc32/v1.11a/bin/../lib/gcc/pic32mx/3.4.4/../../../../pic32mx/lib/libmchp_peripheral_32MX795F512L.a(nvm_erase_page_lib.o)
                                                  /Applications/microchip/mplabc32/v1.11a/bin/../lib/gcc/pic32mx/3.4.4/../../../../pic32mx/lib/libmchp_peripheral_32MX795F512L.a(nvm_program_lib.o)
NVMKEY                                            /Applications/microchip/mplabc32/v1.11a/bin/../lib/gcc/pic32mx/3.4.4/../../../../pic32mx/lib/./proc/32MX795F512L/processor.o
                                                  /Applications/microchip/mplabc32/v1.11a/bin/../lib/gcc/pic32mx/3.4.4/../../../../pic32mx/lib/libc.a(memcpy.o)
                                                  /Applications/microchip/mplabc32/v1.11a/bin/../lib/gcc/pic32mx/3.4.4/../../../../pic32mx/lib/libmchp_peripheral_32MX795F512L.a(nvm_operation_lib.o)
                                                  build/mega/production/startup.o
NVMProgram                                        /Applications/microchip/mplabc32/v1.11a/bin/../lib/gcc/pic32mx/3.4.4/../../../../pic32mx/lib/libmchp_peripheral_32MX795F512L.a(nvm_program_lib.o)
                                                  build/mega/production/pic32bootloader.o
NVMSRCADDR                                        /Applications/microchip/mplabc32/v1.11a/bin/../lib/gcc/pic32mx/3.4.4/../../../../pic32mx/lib/./proc/32MX795F512L/processor.o
                                                  /Applications/microchip/mplabc32/v1.11a/bin/../lib/gcc/pic32mx/3.4.4/../../../../pic32mx/lib/libc.a(memcpy.o)
                                                  /Applications/microchip/mplabc32/v1.11a/bin/../lib/gcc/pic32mx/3.4.4/../../../../pic32mx/lib/libmchp_peripheral_32MX795F512L.a(nvm_write_row_lib.o)
                                                  build/mega/production/startup.o
NVMWriteRow                                       /Applications/microchip/mplabc32/v1.11a/bin/../lib/gcc/pic32mx/3.4.4/../../../../pic32mx/lib/libmchp_peripheral_32MX795F512L.a(nvm_write_row_lib.o)
                                                  /Applications/microchip/mplabc32/v1.11a/bin/../lib/gcc/pic32mx/3.4.4/../../../../pic32mx/lib/libmchp_peripheral_32MX795F512L.a(nvm_program_lib.o)
OC1CON                                            /Applications/microchip/mplabc32/v1.11a/bin/../lib/gcc/pic32mx/3.4.4/../../../../pic32mx/lib/./proc/32MX795F512L/processor.o
                                                  /Applications/microchip/mplabc32/v1.11a/bin/../lib/gcc/pic32mx/3.4.4/../../../../pic32mx/lib/libc.a(memcpy.o)
                                                  build/mega/production/startup.o
OC1CONCLR                                         /Applications/microchip/mplabc32/v1.11a/bin/../lib/gcc/pic32mx/3.4.4/../../../../pic32mx/lib/./proc/32MX795F512L/processor.o
                                                  /Applications/microchip/mplabc32/v1.11a/bin/../lib/gcc/pic32mx/3.4.4/../../../../pic32mx/lib/libc.a(memcpy.o)
                                                  build/mega/production/startup.o
OC1CONINV                                         /Applications/microchip/mplabc32/v1.11a/bin/../lib/gcc/pic32mx/3.4.4/../../../../pic32mx/lib/./proc/32MX795F512L/processor.o
                                                  /Applications/microchip/mplabc32/v1.11a/bin/../lib/gcc/pic32mx/3.4.4/../../../../pic32mx/lib/libc.a(memcpy.o)
                                                  build/mega/production/startup.o
OC1CONSET                                         /Applications/microchip/mplabc32/v1.11a/bin/../lib/gcc/pic32mx/3.4.4/../../../../pic32mx/lib/./proc/32MX795F512L/processor.o
                                                  /Applications/microchip/mplabc32/v1.11a/bin/../lib/gcc/pic32mx/3.4.4/../../../../pic32mx/lib/libc.a(memcpy.o)
                                                  build/mega/production/startup.o
OC1R                                              /Applications/microchip/mplabc32/v1.11a/bin/../lib/gcc/pic32mx/3.4.4/../../../../pic32mx/lib/./proc/32MX795F512L/processor.o
                                                  /Applications/microchip/mplabc32/v1.11a/bin/../lib/gcc/pic32mx/3.4.4/../../../../pic32mx/lib/libc.a(memcpy.o)
                                                  build/mega/production/startup.o
OC1RCLR                                           /Applications/microchip/mplabc32/v1.11a/bin/../lib/gcc/pic32mx/3.4.4/../../../../pic32mx/lib/./proc/32MX795F512L/processor.o
                                                  /Applications/microchip/mplabc32/v1.11a/bin/../lib/gcc/pic32mx/3.4.4/../../../../pic32mx/lib/libc.a(memcpy.o)
                                                  build/mega/production/startup.o
OC1RINV                                           /Applications/microchip/mplabc32/v1.11a/bin/../lib/gcc/pic32mx/3.4.4/../../../../pic32mx/lib/./proc/32MX795F512L/processor.o
                                                  /Applications/microchip/mplabc32/v1.11a/bin/../lib/gcc/pic32mx/3.4.4/../../../../pic32mx/lib/libc.a(memcpy.o)
                                                  build/mega/production/startup.o
OC1RS                                             /Applications/microchip/mplabc32/v1.11a/bin/../lib/gcc/pic32mx/3.4.4/../../../../pic32mx/lib/./proc/32MX795F512L/processor.o
                                                  /Applications/microchip/mplabc32/v1.11a/bin/../lib/gcc/pic32mx/3.4.4/../../../../pic32mx/lib/libc.a(memcpy.o)
                                                  build/mega/production/startup.o
OC1RSCLR                                          /Applications/microchip/mplabc32/v1.11a/bin/../lib/gcc/pic32mx/3.4.4/../../../../pic32mx/lib/./proc/32MX795F512L/processor.o
                                                  /Applications/microchip/mplabc32/v1.11a/bin/../lib/gcc/pic32mx/3.4.4/../../../../pic32mx/lib/libc.a(memcpy.o)
                                                  build/mega/production/startup.o
OC1RSET                                           /Applications/microchip/mplabc32/v1.11a/bin/../lib/gcc/pic32mx/3.4.4/../../../../pic32mx/lib/./proc/32MX795F512L/processor.o
                                                  /Applications/microchip/mplabc32/v1.11a/bin/../lib/gcc/pic32mx/3.4.4/../../../../pic32mx/lib/libc.a(memcpy.o)
                                                  build/mega/production/startup.o
OC1RSINV                                          /Applications/microchip/mplabc32/v1.11a/bin/../lib/gcc/pic32mx/3.4.4/../../../../pic32mx/lib/./proc/32MX795F512L/processor.o
                                                  /Applications/microchip/mplabc32/v1.11a/bin/../lib/gcc/pic32mx/3.4.4/../../../../pic32mx/lib/libc.a(memcpy.o)
                                                  build/mega/production/startup.o
OC1RSSET                                          /Applications/microchip/mplabc32/v1.11a/bin/../lib/gcc/pic32mx/3.4.4/../../../../pic32mx/lib/./proc/32MX795F512L/processor.o
                                                  /Applications/microchip/mplabc32/v1.11a/bin/../lib/gcc/pic32mx/3.4.4/../../../../pic32mx/lib/libc.a(memcpy.o)
                                                  build/mega/production/startup.o
OC2CON                                            /Applications/microchip/mplabc32/v1.11a/bin/../lib/gcc/pic32mx/3.4.4/../../../../pic32mx/lib/./proc/32MX795F512L/processor.o
                                                  /Applications/microchip/mplabc32/v1.11a/bin/../lib/gcc/pic32mx/3.4.4/../../../../pic32mx/lib/libc.a(memcpy.o)
                                                  build/mega/production/startup.o
OC2CONCLR                                         /Applications/microchip/mplabc32/v1.11a/bin/../lib/gcc/pic32mx/3.4.4/../../../../pic32mx/lib/./proc/32MX795F512L/processor.o
                                                  /Applications/microchip/mplabc32/v1.11a/bin/../lib/gcc/pic32mx/3.4.4/../../../../pic32mx/lib/libc.a(memcpy.o)
                                                  build/mega/production/startup.o
OC2CONINV                                         /Applications/microchip/mplabc32/v1.11a/bin/../lib/gcc/pic32mx/3.4.4/../../../../pic32mx/lib/./proc/32MX795F512L/processor.o
                                                  /Applications/microchip/mplabc32/v1.11a/bin/../lib/gcc/pic32mx/3.4.4/../../../../pic32mx/lib/libc.a(memcpy.o)
                                                  build/mega/production/startup.o
OC2CONSET                                         /Applications/microchip/mplabc32/v1.11a/bin/../lib/gcc/pic32mx/3.4.4/../../../../pic32mx/lib/./proc/32MX795F512L/processor.o
                                                  /Applications/microchip/mplabc32/v1.11a/bin/../lib/gcc/pic32mx/3.4.4/../../../../pic32mx/lib/libc.a(memcpy.o)
                                                  build/mega/production/startup.o
OC2R                                              /Applications/microchip/mplabc32/v1.11a/bin/../lib/gcc/pic32mx/3.4.4/../../../../pic32mx/lib/./proc/32MX795F512L/processor.o
                                                  /Applications/microchip/mplabc32/v1.11a/bin/../lib/gcc/pic32mx/3.4.4/../../../../pic32mx/lib/libc.a(memcpy.o)
                                                  build/mega/production/startup.o
OC2RCLR                                           /Applications/microchip/mplabc32/v1.11a/bin/../lib/gcc/pic32mx/3.4.4/../../../../pic32mx/lib/./proc/32MX795F512L/processor.o
                                                  /Applications/microchip/mplabc32/v1.11a/bin/../lib/gcc/pic32mx/3.4.4/../../../../pic32mx/lib/libc.a(memcpy.o)
                                                  build/mega/production/startup.o
OC2RINV                                           /Applications/microchip/mplabc32/v1.11a/bin/../lib/gcc/pic32mx/3.4.4/../../../../pic32mx/lib/./proc/32MX795F512L/processor.o
                                                  /Applications/microchip/mplabc32/v1.11a/bin/../lib/gcc/pic32mx/3.4.4/../../../../pic32mx/lib/libc.a(memcpy.o)
                                                  build/mega/production/startup.o
OC2RS                                             /Applications/microchip/mplabc32/v1.11a/bin/../lib/gcc/pic32mx/3.4.4/../../../../pic32mx/lib/./proc/32MX795F512L/processor.o
                                                  /Applications/microchip/mplabc32/v1.11a/bin/../lib/gcc/pic32mx/3.4.4/../../../../pic32mx/lib/libc.a(memcpy.o)
                                                  build/mega/production/startup.o
OC2RSCLR                                          /Applications/microchip/mplabc32/v1.11a/bin/../lib/gcc/pic32mx/3.4.4/../../../../pic32mx/lib/./proc/32MX795F512L/processor.o
                                                  /Applications/microchip/mplabc32/v1.11a/bin/../lib/gcc/pic32mx/3.4.4/../../../../pic32mx/lib/libc.a(memcpy.o)
                                                  build/mega/production/startup.o
OC2RSET                                           /Applications/microchip/mplabc32/v1.11a/bin/../lib/gcc/pic32mx/3.4.4/../../../../pic32mx/lib/./proc/32MX795F512L/processor.o
                                                  /Applications/microchip/mplabc32/v1.11a/bin/../lib/gcc/pic32mx/3.4.4/../../../../pic32mx/lib/libc.a(memcpy.o)
                                                  build/mega/production/startup.o
OC2RSINV                                          /Applications/microchip/mplabc32/v1.11a/bin/../lib/gcc/pic32mx/3.4.4/../../../../pic32mx/lib/./proc/32MX795F512L/processor.o
                                                  /Applications/microchip/mplabc32/v1.11a/bin/../lib/gcc/pic32mx/3.4.4/../../../../pic32mx/lib/libc.a(memcpy.o)
                                                  build/mega/production/startup.o
OC2RSSET                                          /Applications/microchip/mplabc32/v1.11a/bin/../lib/gcc/pic32mx/3.4.4/../../../../pic32mx/lib/./proc/32MX795F512L/processor.o
                                                  /Applications/microchip/mplabc32/v1.11a/bin/../lib/gcc/pic32mx/3.4.4/../../../../pic32mx/lib/libc.a(memcpy.o)
                                                  build/mega/production/startup.o
OC3CON                                            /Applications/microchip/mplabc32/v1.11a/bin/../lib/gcc/pic32mx/3.4.4/../../../../pic32mx/lib/./proc/32MX795F512L/processor.o
                                                  /Applications/microchip/mplabc32/v1.11a/bin/../lib/gcc/pic32mx/3.4.4/../../../../pic32mx/lib/libc.a(memcpy.o)
                                                  build/mega/production/startup.o
OC3CONCLR                                         /Applications/microchip/mplabc32/v1.11a/bin/../lib/gcc/pic32mx/3.4.4/../../../../pic32mx/lib/./proc/32MX795F512L/processor.o
                                                  /Applications/microchip/mplabc32/v1.11a/bin/../lib/gcc/pic32mx/3.4.4/../../../../pic32mx/lib/libc.a(memcpy.o)
                                                  build/mega/production/startup.o
OC3CONINV                                         /Applications/microchip/mplabc32/v1.11a/bin/../lib/gcc/pic32mx/3.4.4/../../../../pic32mx/lib/./proc/32MX795F512L/processor.o
                                                  /Applications/microchip/mplabc32/v1.11a/bin/../lib/gcc/pic32mx/3.4.4/../../../../pic32mx/lib/libc.a(memcpy.o)
                                                  build/mega/production/startup.o
OC3CONSET                                         /Applications/microchip/mplabc32/v1.11a/bin/../lib/gcc/pic32mx/3.4.4/../../../../pic32mx/lib/./proc/32MX795F512L/processor.o
                                                  /Applications/microchip/mplabc32/v1.11a/bin/../lib/gcc/pic32mx/3.4.4/../../../../pic32mx/lib/libc.a(memcpy.o)
                                                  build/mega/production/startup.o
OC3R                                              /Applications/microchip/mplabc32/v1.11a/bin/../lib/gcc/pic32mx/3.4.4/../../../../pic32mx/lib/./proc/32MX795F512L/processor.o
                                                  /Applications/microchip/mplabc32/v1.11a/bin/../lib/gcc/pic32mx/3.4.4/../../../../pic32mx/lib/libc.a(memcpy.o)
                                                  build/mega/production/startup.o
OC3RCLR                                           /Applications/microchip/mplabc32/v1.11a/bin/../lib/gcc/pic32mx/3.4.4/../../../../pic32mx/lib/./proc/32MX795F512L/processor.o
                                                  /Applications/microchip/mplabc32/v1.11a/bin/../lib/gcc/pic32mx/3.4.4/../../../../pic32mx/lib/libc.a(memcpy.o)
                                                  build/mega/production/startup.o
OC3RINV                                           /Applications/microchip/mplabc32/v1.11a/bin/../lib/gcc/pic32mx/3.4.4/../../../../pic32mx/lib/./proc/32MX795F512L/processor.o
                                                  /Applications/microchip/mplabc32/v1.11a/bin/../lib/gcc/pic32mx/3.4.4/../../../../pic32mx/lib/libc.a(memcpy.o)
                                                  build/mega/production/startup.o
OC3RS                                             /Applications/microchip/mplabc32/v1.11a/bin/../lib/gcc/pic32mx/3.4.4/../../../../pic32mx/lib/./proc/32MX795F512L/processor.o
                                                  /Applications/microchip/mplabc32/v1.11a/bin/../lib/gcc/pic32mx/3.4.4/../../../../pic32mx/lib/libc.a(memcpy.o)
                                                  build/mega/production/startup.o
OC3RSCLR                                          /Applications/microchip/mplabc32/v1.11a/bin/../lib/gcc/pic32mx/3.4.4/../../../../pic32mx/lib/./proc/32MX795F512L/processor.o
                                                  /Applications/microchip/mplabc32/v1.11a/bin/../lib/gcc/pic32mx/3.4.4/../../../../pic32mx/lib/libc.a(memcpy.o)
                                                  build/mega/production/startup.o
OC3RSET                                           /Applications/microchip/mplabc32/v1.11a/bin/../lib/gcc/pic32mx/3.4.4/../../../../pic32mx/lib/./proc/32MX795F512L/processor.o
                                                  /Applications/microchip/mplabc32/v1.11a/bin/../lib/gcc/pic32mx/3.4.4/../../../../pic32mx/lib/libc.a(memcpy.o)
                                                  build/mega/production/startup.o
OC3RSINV                                          /Applications/microchip/mplabc32/v1.11a/bin/../lib/gcc/pic32mx/3.4.4/../../../../pic32mx/lib/./proc/32MX795F512L/processor.o
                                                  /Applications/microchip/mplabc32/v1.11a/bin/../lib/gcc/pic32mx/3.4.4/../../../../pic32mx/lib/libc.a(memcpy.o)
                                                  build/mega/production/startup.o
OC3RSSET                                          /Applications/microchip/mplabc32/v1.11a/bin/../lib/gcc/pic32mx/3.4.4/../../../../pic32mx/lib/./proc/32MX795F512L/processor.o
                                                  /Applications/microchip/mplabc32/v1.11a/bin/../lib/gcc/pic32mx/3.4.4/../../../../pic32mx/lib/libc.a(memcpy.o)
                                                  build/mega/production/startup.o
OC4CON                                            /Applications/microchip/mplabc32/v1.11a/bin/../lib/gcc/pic32mx/3.4.4/../../../../pic32mx/lib/./proc/32MX795F512L/processor.o
                                                  /Applications/microchip/mplabc32/v1.11a/bin/../lib/gcc/pic32mx/3.4.4/../../../../pic32mx/lib/libc.a(memcpy.o)
                                                  build/mega/production/startup.o
OC4CONCLR                                         /Applications/microchip/mplabc32/v1.11a/bin/../lib/gcc/pic32mx/3.4.4/../../../../pic32mx/lib/./proc/32MX795F512L/processor.o
                                                  /Applications/microchip/mplabc32/v1.11a/bin/../lib/gcc/pic32mx/3.4.4/../../../../pic32mx/lib/libc.a(memcpy.o)
                                                  build/mega/production/startup.o
OC4CONINV                                         /Applications/microchip/mplabc32/v1.11a/bin/../lib/gcc/pic32mx/3.4.4/../../../../pic32mx/lib/./proc/32MX795F512L/processor.o
                                                  /Applications/microchip/mplabc32/v1.11a/bin/../lib/gcc/pic32mx/3.4.4/../../../../pic32mx/lib/libc.a(memcpy.o)
                                                  build/mega/production/startup.o
OC4CONSET                                         /Applications/microchip/mplabc32/v1.11a/bin/../lib/gcc/pic32mx/3.4.4/../../../../pic32mx/lib/./proc/32MX795F512L/processor.o
                                                  /Applications/microchip/mplabc32/v1.11a/bin/../lib/gcc/pic32mx/3.4.4/../../../../pic32mx/lib/libc.a(memcpy.o)
                                                  build/mega/production/startup.o
OC4R                                              /Applications/microchip/mplabc32/v1.11a/bin/../lib/gcc/pic32mx/3.4.4/../../../../pic32mx/lib/./proc/32MX795F512L/processor.o
                                                  /Applications/microchip/mplabc32/v1.11a/bin/../lib/gcc/pic32mx/3.4.4/../../../../pic32mx/lib/libc.a(memcpy.o)
                                                  build/mega/production/startup.o
OC4RCLR                                           /Applications/microchip/mplabc32/v1.11a/bin/../lib/gcc/pic32mx/3.4.4/../../../../pic32mx/lib/./proc/32MX795F512L/processor.o
                                                  /Applications/microchip/mplabc32/v1.11a/bin/../lib/gcc/pic32mx/3.4.4/../../../../pic32mx/lib/libc.a(memcpy.o)
                                                  build/mega/production/startup.o
OC4RINV                                           /Applications/microchip/mplabc32/v1.11a/bin/../lib/gcc/pic32mx/3.4.4/../../../../pic32mx/lib/./proc/32MX795F512L/processor.o
                                                  /Applications/microchip/mplabc32/v1.11a/bin/../lib/gcc/pic32mx/3.4.4/../../../../pic32mx/lib/libc.a(memcpy.o)
                                                  build/mega/production/startup.o
OC4RS                                             /Applications/microchip/mplabc32/v1.11a/bin/../lib/gcc/pic32mx/3.4.4/../../../../pic32mx/lib/./proc/32MX795F512L/processor.o
                                                  /Applications/microchip/mplabc32/v1.11a/bin/../lib/gcc/pic32mx/3.4.4/../../../../pic32mx/lib/libc.a(memcpy.o)
                                                  build/mega/production/startup.o
OC4RSCLR                                          /Applications/microchip/mplabc32/v1.11a/bin/../lib/gcc/pic32mx/3.4.4/../../../../pic32mx/lib/./proc/32MX795F512L/processor.o
                                                  /Applications/microchip/mplabc32/v1.11a/bin/../lib/gcc/pic32mx/3.4.4/../../../../pic32mx/lib/libc.a(memcpy.o)
                                                  build/mega/production/startup.o
OC4RSET                                           /Applications/microchip/mplabc32/v1.11a/bin/../lib/gcc/pic32mx/3.4.4/../../../../pic32mx/lib/./proc/32MX795F512L/processor.o
                                                  /Applications/microchip/mplabc32/v1.11a/bin/../lib/gcc/pic32mx/3.4.4/../../../../pic32mx/lib/libc.a(memcpy.o)
                                                  build/mega/production/startup.o
OC4RSINV                                          /Applications/microchip/mplabc32/v1.11a/bin/../lib/gcc/pic32mx/3.4.4/../../../../pic32mx/lib/./proc/32MX795F512L/processor.o
                                                  /Applications/microchip/mplabc32/v1.11a/bin/../lib/gcc/pic32mx/3.4.4/../../../../pic32mx/lib/libc.a(memcpy.o)
                                                  build/mega/production/startup.o
OC4RSSET                                          /Applications/microchip/mplabc32/v1.11a/bin/../lib/gcc/pic32mx/3.4.4/../../../../pic32mx/lib/./proc/32MX795F512L/processor.o
                                                  /Applications/microchip/mplabc32/v1.11a/bin/../lib/gcc/pic32mx/3.4.4/../../../../pic32mx/lib/libc.a(memcpy.o)
                                                  build/mega/production/startup.o
OC5CON                                            /Applications/microchip/mplabc32/v1.11a/bin/../lib/gcc/pic32mx/3.4.4/../../../../pic32mx/lib/./proc/32MX795F512L/processor.o
                                                  /Applications/microchip/mplabc32/v1.11a/bin/../lib/gcc/pic32mx/3.4.4/../../../../pic32mx/lib/libc.a(memcpy.o)
                                                  build/mega/production/startup.o
OC5CONCLR                                         /Applications/microchip/mplabc32/v1.11a/bin/../lib/gcc/pic32mx/3.4.4/../../../../pic32mx/lib/./proc/32MX795F512L/processor.o
                                                  /Applications/microchip/mplabc32/v1.11a/bin/../lib/gcc/pic32mx/3.4.4/../../../../pic32mx/lib/libc.a(memcpy.o)
                                                  build/mega/production/startup.o
OC5CONINV                                         /Applications/microchip/mplabc32/v1.11a/bin/../lib/gcc/pic32mx/3.4.4/../../../../pic32mx/lib/./proc/32MX795F512L/processor.o
                                                  /Applications/microchip/mplabc32/v1.11a/bin/../lib/gcc/pic32mx/3.4.4/../../../../pic32mx/lib/libc.a(memcpy.o)
                                                  build/mega/production/startup.o
OC5CONSET                                         /Applications/microchip/mplabc32/v1.11a/bin/../lib/gcc/pic32mx/3.4.4/../../../../pic32mx/lib/./proc/32MX795F512L/processor.o
                                                  /Applications/microchip/mplabc32/v1.11a/bin/../lib/gcc/pic32mx/3.4.4/../../../../pic32mx/lib/libc.a(memcpy.o)
                                                  build/mega/production/startup.o
OC5R                                              /Applications/microchip/mplabc32/v1.11a/bin/../lib/gcc/pic32mx/3.4.4/../../../../pic32mx/lib/./proc/32MX795F512L/processor.o
                                                  /Applications/microchip/mplabc32/v1.11a/bin/../lib/gcc/pic32mx/3.4.4/../../../../pic32mx/lib/libc.a(memcpy.o)
                                                  build/mega/production/startup.o
OC5RCLR                                           /Applications/microchip/mplabc32/v1.11a/bin/../lib/gcc/pic32mx/3.4.4/../../../../pic32mx/lib/./proc/32MX795F512L/processor.o
                                                  /Applications/microchip/mplabc32/v1.11a/bin/../lib/gcc/pic32mx/3.4.4/../../../../pic32mx/lib/libc.a(memcpy.o)
                                                  build/mega/production/startup.o
OC5RINV                                           /Applications/microchip/mplabc32/v1.11a/bin/../lib/gcc/pic32mx/3.4.4/../../../../pic32mx/lib/./proc/32MX795F512L/processor.o
                                                  /Applications/microchip/mplabc32/v1.11a/bin/../lib/gcc/pic32mx/3.4.4/../../../../pic32mx/lib/libc.a(memcpy.o)
                                                  build/mega/production/startup.o
OC5RS                                             /Applications/microchip/mplabc32/v1.11a/bin/../lib/gcc/pic32mx/3.4.4/../../../../pic32mx/lib/./proc/32MX795F512L/processor.o
                                                  /Applications/microchip/mplabc32/v1.11a/bin/../lib/gcc/pic32mx/3.4.4/../../../../pic32mx/lib/libc.a(memcpy.o)
                                                  build/mega/production/startup.o
OC5RSCLR                                          /Applications/microchip/mplabc32/v1.11a/bin/../lib/gcc/pic32mx/3.4.4/../../../../pic32mx/lib/./proc/32MX795F512L/processor.o
                                                  /Applications/microchip/mplabc32/v1.11a/bin/../lib/gcc/pic32mx/3.4.4/../../../../pic32mx/lib/libc.a(memcpy.o)
                                                  build/mega/production/startup.o
OC5RSET                                           /Applications/microchip/mplabc32/v1.11a/bin/../lib/gcc/pic32mx/3.4.4/../../../../pic32mx/lib/./proc/32MX795F512L/processor.o
                                                  /Applications/microchip/mplabc32/v1.11a/bin/../lib/gcc/pic32mx/3.4.4/../../../../pic32mx/lib/libc.a(memcpy.o)
                                                  build/mega/production/startup.o
OC5RSINV                                          /Applications/microchip/mplabc32/v1.11a/bin/../lib/gcc/pic32mx/3.4.4/../../../../pic32mx/lib/./proc/32MX795F512L/processor.o
                                                  /Applications/microchip/mplabc32/v1.11a/bin/../lib/gcc/pic32mx/3.4.4/../../../../pic32mx/lib/libc.a(memcpy.o)
                                                  build/mega/production/startup.o
OC5RSSET                                          /Applications/microchip/mplabc32/v1.11a/bin/../lib/gcc/pic32mx/3.4.4/../../../../pic32mx/lib/./proc/32MX795F512L/processor.o
                                                  /Applications/microchip/mplabc32/v1.11a/bin/../lib/gcc/pic32mx/3.4.4/../../../../pic32mx/lib/libc.a(memcpy.o)
                                                  build/mega/production/startup.o
ODCA                                              /Applications/microchip/mplabc32/v1.11a/bin/../lib/gcc/pic32mx/3.4.4/../../../../pic32mx/lib/./proc/32MX795F512L/processor.o
                                                  /Applications/microchip/mplabc32/v1.11a/bin/../lib/gcc/pic32mx/3.4.4/../../../../pic32mx/lib/libc.a(memcpy.o)
                                                  build/mega/production/startup.o
ODCACLR                                           /Applications/microchip/mplabc32/v1.11a/bin/../lib/gcc/pic32mx/3.4.4/../../../../pic32mx/lib/./proc/32MX795F512L/processor.o
                                                  /Applications/microchip/mplabc32/v1.11a/bin/../lib/gcc/pic32mx/3.4.4/../../../../pic32mx/lib/libc.a(memcpy.o)
                                                  build/mega/production/startup.o
ODCAINV                                           /Applications/microchip/mplabc32/v1.11a/bin/../lib/gcc/pic32mx/3.4.4/../../../../pic32mx/lib/./proc/32MX795F512L/processor.o
                                                  /Applications/microchip/mplabc32/v1.11a/bin/../lib/gcc/pic32mx/3.4.4/../../../../pic32mx/lib/libc.a(memcpy.o)
                                                  build/mega/production/startup.o
ODCASET                                           /Applications/microchip/mplabc32/v1.11a/bin/../lib/gcc/pic32mx/3.4.4/../../../../pic32mx/lib/./proc/32MX795F512L/processor.o
                                                  /Applications/microchip/mplabc32/v1.11a/bin/../lib/gcc/pic32mx/3.4.4/../../../../pic32mx/lib/libc.a(memcpy.o)
                                                  build/mega/production/startup.o
ODCB                                              /Applications/microchip/mplabc32/v1.11a/bin/../lib/gcc/pic32mx/3.4.4/../../../../pic32mx/lib/./proc/32MX795F512L/processor.o
                                                  /Applications/microchip/mplabc32/v1.11a/bin/../lib/gcc/pic32mx/3.4.4/../../../../pic32mx/lib/libc.a(memcpy.o)
                                                  build/mega/production/startup.o
ODCBCLR                                           /Applications/microchip/mplabc32/v1.11a/bin/../lib/gcc/pic32mx/3.4.4/../../../../pic32mx/lib/./proc/32MX795F512L/processor.o
                                                  /Applications/microchip/mplabc32/v1.11a/bin/../lib/gcc/pic32mx/3.4.4/../../../../pic32mx/lib/libc.a(memcpy.o)
                                                  build/mega/production/startup.o
ODCBINV                                           /Applications/microchip/mplabc32/v1.11a/bin/../lib/gcc/pic32mx/3.4.4/../../../../pic32mx/lib/./proc/32MX795F512L/processor.o
                                                  /Applications/microchip/mplabc32/v1.11a/bin/../lib/gcc/pic32mx/3.4.4/../../../../pic32mx/lib/libc.a(memcpy.o)
                                                  build/mega/production/startup.o
ODCBSET                                           /Applications/microchip/mplabc32/v1.11a/bin/../lib/gcc/pic32mx/3.4.4/../../../../pic32mx/lib/./proc/32MX795F512L/processor.o
                                                  /Applications/microchip/mplabc32/v1.11a/bin/../lib/gcc/pic32mx/3.4.4/../../../../pic32mx/lib/libc.a(memcpy.o)
                                                  build/mega/production/startup.o
ODCC                                              /Applications/microchip/mplabc32/v1.11a/bin/../lib/gcc/pic32mx/3.4.4/../../../../pic32mx/lib/./proc/32MX795F512L/processor.o
                                                  /Applications/microchip/mplabc32/v1.11a/bin/../lib/gcc/pic32mx/3.4.4/../../../../pic32mx/lib/libc.a(memcpy.o)
                                                  build/mega/production/startup.o
ODCCCLR                                           /Applications/microchip/mplabc32/v1.11a/bin/../lib/gcc/pic32mx/3.4.4/../../../../pic32mx/lib/./proc/32MX795F512L/processor.o
                                                  /Applications/microchip/mplabc32/v1.11a/bin/../lib/gcc/pic32mx/3.4.4/../../../../pic32mx/lib/libc.a(memcpy.o)
                                                  build/mega/production/startup.o
ODCCINV                                           /Applications/microchip/mplabc32/v1.11a/bin/../lib/gcc/pic32mx/3.4.4/../../../../pic32mx/lib/./proc/32MX795F512L/processor.o
                                                  /Applications/microchip/mplabc32/v1.11a/bin/../lib/gcc/pic32mx/3.4.4/../../../../pic32mx/lib/libc.a(memcpy.o)
                                                  build/mega/production/startup.o
ODCCSET                                           /Applications/microchip/mplabc32/v1.11a/bin/../lib/gcc/pic32mx/3.4.4/../../../../pic32mx/lib/./proc/32MX795F512L/processor.o
                                                  /Applications/microchip/mplabc32/v1.11a/bin/../lib/gcc/pic32mx/3.4.4/../../../../pic32mx/lib/libc.a(memcpy.o)
                                                  build/mega/production/startup.o
ODCD                                              /Applications/microchip/mplabc32/v1.11a/bin/../lib/gcc/pic32mx/3.4.4/../../../../pic32mx/lib/./proc/32MX795F512L/processor.o
                                                  /Applications/microchip/mplabc32/v1.11a/bin/../lib/gcc/pic32mx/3.4.4/../../../../pic32mx/lib/libc.a(memcpy.o)
                                                  build/mega/production/startup.o
ODCDCLR                                           /Applications/microchip/mplabc32/v1.11a/bin/../lib/gcc/pic32mx/3.4.4/../../../../pic32mx/lib/./proc/32MX795F512L/processor.o
                                                  /Applications/microchip/mplabc32/v1.11a/bin/../lib/gcc/pic32mx/3.4.4/../../../../pic32mx/lib/libc.a(memcpy.o)
                                                  build/mega/production/startup.o
ODCDINV                                           /Applications/microchip/mplabc32/v1.11a/bin/../lib/gcc/pic32mx/3.4.4/../../../../pic32mx/lib/./proc/32MX795F512L/processor.o
                                                  /Applications/microchip/mplabc32/v1.11a/bin/../lib/gcc/pic32mx/3.4.4/../../../../pic32mx/lib/libc.a(memcpy.o)
                                                  build/mega/production/startup.o
ODCDSET                                           /Applications/microchip/mplabc32/v1.11a/bin/../lib/gcc/pic32mx/3.4.4/../../../../pic32mx/lib/./proc/32MX795F512L/processor.o
                                                  /Applications/microchip/mplabc32/v1.11a/bin/../lib/gcc/pic32mx/3.4.4/../../../../pic32mx/lib/libc.a(memcpy.o)
                                                  build/mega/production/startup.o
ODCE                                              /Applications/microchip/mplabc32/v1.11a/bin/../lib/gcc/pic32mx/3.4.4/../../../../pic32mx/lib/./proc/32MX795F512L/processor.o
                                                  /Applications/microchip/mplabc32/v1.11a/bin/../lib/gcc/pic32mx/3.4.4/../../../../pic32mx/lib/libc.a(memcpy.o)
                                                  build/mega/production/startup.o
ODCECLR                                           /Applications/microchip/mplabc32/v1.11a/bin/../lib/gcc/pic32mx/3.4.4/../../../../pic32mx/lib/./proc/32MX795F512L/processor.o
                                                  /Applications/microchip/mplabc32/v1.11a/bin/../lib/gcc/pic32mx/3.4.4/../../../../pic32mx/lib/libc.a(memcpy.o)
                                                  build/mega/production/startup.o
ODCEINV                                           /Applications/microchip/mplabc32/v1.11a/bin/../lib/gcc/pic32mx/3.4.4/../../../../pic32mx/lib/./proc/32MX795F512L/processor.o
                                                  /Applications/microchip/mplabc32/v1.11a/bin/../lib/gcc/pic32mx/3.4.4/../../../../pic32mx/lib/libc.a(memcpy.o)
                                                  build/mega/production/startup.o
ODCESET                                           /Applications/microchip/mplabc32/v1.11a/bin/../lib/gcc/pic32mx/3.4.4/../../../../pic32mx/lib/./proc/32MX795F512L/processor.o
                                                  /Applications/microchip/mplabc32/v1.11a/bin/../lib/gcc/pic32mx/3.4.4/../../../../pic32mx/lib/libc.a(memcpy.o)
                                                  build/mega/production/startup.o
ODCF                                              /Applications/microchip/mplabc32/v1.11a/bin/../lib/gcc/pic32mx/3.4.4/../../../../pic32mx/lib/./proc/32MX795F512L/processor.o
                                                  /Applications/microchip/mplabc32/v1.11a/bin/../lib/gcc/pic32mx/3.4.4/../../../../pic32mx/lib/libc.a(memcpy.o)
                                                  build/mega/production/startup.o
ODCFCLR                                           /Applications/microchip/mplabc32/v1.11a/bin/../lib/gcc/pic32mx/3.4.4/../../../../pic32mx/lib/./proc/32MX795F512L/processor.o
                                                  /Applications/microchip/mplabc32/v1.11a/bin/../lib/gcc/pic32mx/3.4.4/../../../../pic32mx/lib/libc.a(memcpy.o)
                                                  build/mega/production/startup.o
ODCFINV                                           /Applications/microchip/mplabc32/v1.11a/bin/../lib/gcc/pic32mx/3.4.4/../../../../pic32mx/lib/./proc/32MX795F512L/processor.o
                                                  /Applications/microchip/mplabc32/v1.11a/bin/../lib/gcc/pic32mx/3.4.4/../../../../pic32mx/lib/libc.a(memcpy.o)
                                                  build/mega/production/startup.o
ODCFSET                                           /Applications/microchip/mplabc32/v1.11a/bin/../lib/gcc/pic32mx/3.4.4/../../../../pic32mx/lib/./proc/32MX795F512L/processor.o
                                                  /Applications/microchip/mplabc32/v1.11a/bin/../lib/gcc/pic32mx/3.4.4/../../../../pic32mx/lib/libc.a(memcpy.o)
                                                  build/mega/production/startup.o
ODCG                                              /Applications/microchip/mplabc32/v1.11a/bin/../lib/gcc/pic32mx/3.4.4/../../../../pic32mx/lib/./proc/32MX795F512L/processor.o
                                                  /Applications/microchip/mplabc32/v1.11a/bin/../lib/gcc/pic32mx/3.4.4/../../../../pic32mx/lib/libc.a(memcpy.o)
                                                  build/mega/production/startup.o
ODCGCLR                                           /Applications/microchip/mplabc32/v1.11a/bin/../lib/gcc/pic32mx/3.4.4/../../../../pic32mx/lib/./proc/32MX795F512L/processor.o
                                                  /Applications/microchip/mplabc32/v1.11a/bin/../lib/gcc/pic32mx/3.4.4/../../../../pic32mx/lib/libc.a(memcpy.o)
                                                  build/mega/production/startup.o
ODCGINV                                           /Applications/microchip/mplabc32/v1.11a/bin/../lib/gcc/pic32mx/3.4.4/../../../../pic32mx/lib/./proc/32MX795F512L/processor.o
                                                  /Applications/microchip/mplabc32/v1.11a/bin/../lib/gcc/pic32mx/3.4.4/../../../../pic32mx/lib/libc.a(memcpy.o)
                                                  build/mega/production/startup.o
ODCGSET                                           /Applications/microchip/mplabc32/v1.11a/bin/../lib/gcc/pic32mx/3.4.4/../../../../pic32mx/lib/./proc/32MX795F512L/processor.o
                                                  /Applications/microchip/mplabc32/v1.11a/bin/../lib/gcc/pic32mx/3.4.4/../../../../pic32mx/lib/libc.a(memcpy.o)
                                                  build/mega/production/startup.o
OSCCON                                            /Applications/microchip/mplabc32/v1.11a/bin/../lib/gcc/pic32mx/3.4.4/../../../../pic32mx/lib/./proc/32MX795F512L/processor.o
                                                  /Applications/microchip/mplabc32/v1.11a/bin/../lib/gcc/pic32mx/3.4.4/../../../../pic32mx/lib/libc.a(memcpy.o)
                                                  build/mega/production/pic32bootloader.o
                                                  build/mega/production/startup.o
OSCCONCLR                                         /Applications/microchip/mplabc32/v1.11a/bin/../lib/gcc/pic32mx/3.4.4/../../../../pic32mx/lib/./proc/32MX795F512L/processor.o
                                                  /Applications/microchip/mplabc32/v1.11a/bin/../lib/gcc/pic32mx/3.4.4/../../../../pic32mx/lib/libc.a(memcpy.o)
                                                  build/mega/production/startup.o
OSCCONINV                                         /Applications/microchip/mplabc32/v1.11a/bin/../lib/gcc/pic32mx/3.4.4/../../../../pic32mx/lib/./proc/32MX795F512L/processor.o
                                                  /Applications/microchip/mplabc32/v1.11a/bin/../lib/gcc/pic32mx/3.4.4/../../../../pic32mx/lib/libc.a(memcpy.o)
                                                  build/mega/production/startup.o
OSCCONSET                                         /Applications/microchip/mplabc32/v1.11a/bin/../lib/gcc/pic32mx/3.4.4/../../../../pic32mx/lib/./proc/32MX795F512L/processor.o
                                                  /Applications/microchip/mplabc32/v1.11a/bin/../lib/gcc/pic32mx/3.4.4/../../../../pic32mx/lib/libc.a(memcpy.o)
                                                  build/mega/production/startup.o
OSCTUN                                            /Applications/microchip/mplabc32/v1.11a/bin/../lib/gcc/pic32mx/3.4.4/../../../../pic32mx/lib/./proc/32MX795F512L/processor.o
                                                  /Applications/microchip/mplabc32/v1.11a/bin/../lib/gcc/pic32mx/3.4.4/../../../../pic32mx/lib/libc.a(memcpy.o)
                                                  build/mega/production/startup.o
OSCTUNCLR                                         /Applications/microchip/mplabc32/v1.11a/bin/../lib/gcc/pic32mx/3.4.4/../../../../pic32mx/lib/./proc/32MX795F512L/processor.o
                                                  /Applications/microchip/mplabc32/v1.11a/bin/../lib/gcc/pic32mx/3.4.4/../../../../pic32mx/lib/libc.a(memcpy.o)
                                                  build/mega/production/startup.o
OSCTUNINV                                         /Applications/microchip/mplabc32/v1.11a/bin/../lib/gcc/pic32mx/3.4.4/../../../../pic32mx/lib/./proc/32MX795F512L/processor.o
                                                  /Applications/microchip/mplabc32/v1.11a/bin/../lib/gcc/pic32mx/3.4.4/../../../../pic32mx/lib/libc.a(memcpy.o)
                                                  build/mega/production/startup.o
OSCTUNSET                                         /Applications/microchip/mplabc32/v1.11a/bin/../lib/gcc/pic32mx/3.4.4/../../../../pic32mx/lib/./proc/32MX795F512L/processor.o
                                                  /Applications/microchip/mplabc32/v1.11a/bin/../lib/gcc/pic32mx/3.4.4/../../../../pic32mx/lib/libc.a(memcpy.o)
                                                  build/mega/production/startup.o
OpenCoreTimer                                     /Applications/microchip/mplabc32/v1.11a/bin/../lib/gcc/pic32mx/3.4.4/../../../../pic32mx/lib/libmchp_peripheral.a(open_core_timer_lib.o)
                                                  build/mega/production/pic32bootloader.o
PMADDR                                            /Applications/microchip/mplabc32/v1.11a/bin/../lib/gcc/pic32mx/3.4.4/../../../../pic32mx/lib/./proc/32MX795F512L/processor.o
                                                  /Applications/microchip/mplabc32/v1.11a/bin/../lib/gcc/pic32mx/3.4.4/../../../../pic32mx/lib/libc.a(memcpy.o)
                                                  build/mega/production/startup.o
PMADDRCLR                                         /Applications/microchip/mplabc32/v1.11a/bin/../lib/gcc/pic32mx/3.4.4/../../../../pic32mx/lib/./proc/32MX795F512L/processor.o
                                                  /Applications/microchip/mplabc32/v1.11a/bin/../lib/gcc/pic32mx/3.4.4/../../../../pic32mx/lib/libc.a(memcpy.o)
                                                  build/mega/production/startup.o
PMADDRINV                                         /Applications/microchip/mplabc32/v1.11a/bin/../lib/gcc/pic32mx/3.4.4/../../../../pic32mx/lib/./proc/32MX795F512L/processor.o
                                                  /Applications/microchip/mplabc32/v1.11a/bin/../lib/gcc/pic32mx/3.4.4/../../../../pic32mx/lib/libc.a(memcpy.o)
                                                  build/mega/production/startup.o
PMADDRSET                                         /Applications/microchip/mplabc32/v1.11a/bin/../lib/gcc/pic32mx/3.4.4/../../../../pic32mx/lib/./proc/32MX795F512L/processor.o
                                                  /Applications/microchip/mplabc32/v1.11a/bin/../lib/gcc/pic32mx/3.4.4/../../../../pic32mx/lib/libc.a(memcpy.o)
                                                  build/mega/production/startup.o
PMAEN                                             /Applications/microchip/mplabc32/v1.11a/bin/../lib/gcc/pic32mx/3.4.4/../../../../pic32mx/lib/./proc/32MX795F512L/processor.o
                                                  /Applications/microchip/mplabc32/v1.11a/bin/../lib/gcc/pic32mx/3.4.4/../../../../pic32mx/lib/libc.a(memcpy.o)
                                                  build/mega/production/startup.o
PMAENCLR                                          /Applications/microchip/mplabc32/v1.11a/bin/../lib/gcc/pic32mx/3.4.4/../../../../pic32mx/lib/./proc/32MX795F512L/processor.o
                                                  /Applications/microchip/mplabc32/v1.11a/bin/../lib/gcc/pic32mx/3.4.4/../../../../pic32mx/lib/libc.a(memcpy.o)
                                                  build/mega/production/startup.o
PMAENINV                                          /Applications/microchip/mplabc32/v1.11a/bin/../lib/gcc/pic32mx/3.4.4/../../../../pic32mx/lib/./proc/32MX795F512L/processor.o
                                                  /Applications/microchip/mplabc32/v1.11a/bin/../lib/gcc/pic32mx/3.4.4/../../../../pic32mx/lib/libc.a(memcpy.o)
                                                  build/mega/production/startup.o
PMAENSET                                          /Applications/microchip/mplabc32/v1.11a/bin/../lib/gcc/pic32mx/3.4.4/../../../../pic32mx/lib/./proc/32MX795F512L/processor.o
                                                  /Applications/microchip/mplabc32/v1.11a/bin/../lib/gcc/pic32mx/3.4.4/../../../../pic32mx/lib/libc.a(memcpy.o)
                                                  build/mega/production/startup.o
PMCON                                             /Applications/microchip/mplabc32/v1.11a/bin/../lib/gcc/pic32mx/3.4.4/../../../../pic32mx/lib/./proc/32MX795F512L/processor.o
                                                  /Applications/microchip/mplabc32/v1.11a/bin/../lib/gcc/pic32mx/3.4.4/../../../../pic32mx/lib/libc.a(memcpy.o)
                                                  build/mega/production/startup.o
PMCONCLR                                          /Applications/microchip/mplabc32/v1.11a/bin/../lib/gcc/pic32mx/3.4.4/../../../../pic32mx/lib/./proc/32MX795F512L/processor.o
                                                  /Applications/microchip/mplabc32/v1.11a/bin/../lib/gcc/pic32mx/3.4.4/../../../../pic32mx/lib/libc.a(memcpy.o)
                                                  build/mega/production/startup.o
PMCONINV                                          /Applications/microchip/mplabc32/v1.11a/bin/../lib/gcc/pic32mx/3.4.4/../../../../pic32mx/lib/./proc/32MX795F512L/processor.o
                                                  /Applications/microchip/mplabc32/v1.11a/bin/../lib/gcc/pic32mx/3.4.4/../../../../pic32mx/lib/libc.a(memcpy.o)
                                                  build/mega/production/startup.o
PMCONSET                                          /Applications/microchip/mplabc32/v1.11a/bin/../lib/gcc/pic32mx/3.4.4/../../../../pic32mx/lib/./proc/32MX795F512L/processor.o
                                                  /Applications/microchip/mplabc32/v1.11a/bin/../lib/gcc/pic32mx/3.4.4/../../../../pic32mx/lib/libc.a(memcpy.o)
                                                  build/mega/production/startup.o
PMDIN                                             /Applications/microchip/mplabc32/v1.11a/bin/../lib/gcc/pic32mx/3.4.4/../../../../pic32mx/lib/./proc/32MX795F512L/processor.o
                                                  /Applications/microchip/mplabc32/v1.11a/bin/../lib/gcc/pic32mx/3.4.4/../../../../pic32mx/lib/libc.a(memcpy.o)
                                                  build/mega/production/startup.o
PMDINCLR                                          /Applications/microchip/mplabc32/v1.11a/bin/../lib/gcc/pic32mx/3.4.4/../../../../pic32mx/lib/./proc/32MX795F512L/processor.o
                                                  /Applications/microchip/mplabc32/v1.11a/bin/../lib/gcc/pic32mx/3.4.4/../../../../pic32mx/lib/libc.a(memcpy.o)
                                                  build/mega/production/startup.o
PMDININV                                          /Applications/microchip/mplabc32/v1.11a/bin/../lib/gcc/pic32mx/3.4.4/../../../../pic32mx/lib/./proc/32MX795F512L/processor.o
                                                  /Applications/microchip/mplabc32/v1.11a/bin/../lib/gcc/pic32mx/3.4.4/../../../../pic32mx/lib/libc.a(memcpy.o)
                                                  build/mega/production/startup.o
PMDINSET                                          /Applications/microchip/mplabc32/v1.11a/bin/../lib/gcc/pic32mx/3.4.4/../../../../pic32mx/lib/./proc/32MX795F512L/processor.o
                                                  /Applications/microchip/mplabc32/v1.11a/bin/../lib/gcc/pic32mx/3.4.4/../../../../pic32mx/lib/libc.a(memcpy.o)
                                                  build/mega/production/startup.o
PMDOUT                                            /Applications/microchip/mplabc32/v1.11a/bin/../lib/gcc/pic32mx/3.4.4/../../../../pic32mx/lib/./proc/32MX795F512L/processor.o
                                                  /Applications/microchip/mplabc32/v1.11a/bin/../lib/gcc/pic32mx/3.4.4/../../../../pic32mx/lib/libc.a(memcpy.o)
                                                  build/mega/production/startup.o
PMDOUTCLR                                         /Applications/microchip/mplabc32/v1.11a/bin/../lib/gcc/pic32mx/3.4.4/../../../../pic32mx/lib/./proc/32MX795F512L/processor.o
                                                  /Applications/microchip/mplabc32/v1.11a/bin/../lib/gcc/pic32mx/3.4.4/../../../../pic32mx/lib/libc.a(memcpy.o)
                                                  build/mega/production/startup.o
PMDOUTINV                                         /Applications/microchip/mplabc32/v1.11a/bin/../lib/gcc/pic32mx/3.4.4/../../../../pic32mx/lib/./proc/32MX795F512L/processor.o
                                                  /Applications/microchip/mplabc32/v1.11a/bin/../lib/gcc/pic32mx/3.4.4/../../../../pic32mx/lib/libc.a(memcpy.o)
                                                  build/mega/production/startup.o
PMDOUTSET                                         /Applications/microchip/mplabc32/v1.11a/bin/../lib/gcc/pic32mx/3.4.4/../../../../pic32mx/lib/./proc/32MX795F512L/processor.o
                                                  /Applications/microchip/mplabc32/v1.11a/bin/../lib/gcc/pic32mx/3.4.4/../../../../pic32mx/lib/libc.a(memcpy.o)
                                                  build/mega/production/startup.o
PMMODE                                            /Applications/microchip/mplabc32/v1.11a/bin/../lib/gcc/pic32mx/3.4.4/../../../../pic32mx/lib/./proc/32MX795F512L/processor.o
                                                  /Applications/microchip/mplabc32/v1.11a/bin/../lib/gcc/pic32mx/3.4.4/../../../../pic32mx/lib/libc.a(memcpy.o)
                                                  build/mega/production/startup.o
PMMODECLR                                         /Applications/microchip/mplabc32/v1.11a/bin/../lib/gcc/pic32mx/3.4.4/../../../../pic32mx/lib/./proc/32MX795F512L/processor.o
                                                  /Applications/microchip/mplabc32/v1.11a/bin/../lib/gcc/pic32mx/3.4.4/../../../../pic32mx/lib/libc.a(memcpy.o)
                                                  build/mega/production/startup.o
PMMODEINV                                         /Applications/microchip/mplabc32/v1.11a/bin/../lib/gcc/pic32mx/3.4.4/../../../../pic32mx/lib/./proc/32MX795F512L/processor.o
                                                  /Applications/microchip/mplabc32/v1.11a/bin/../lib/gcc/pic32mx/3.4.4/../../../../pic32mx/lib/libc.a(memcpy.o)
                                                  build/mega/production/startup.o
PMMODESET                                         /Applications/microchip/mplabc32/v1.11a/bin/../lib/gcc/pic32mx/3.4.4/../../../../pic32mx/lib/./proc/32MX795F512L/processor.o
                                                  /Applications/microchip/mplabc32/v1.11a/bin/../lib/gcc/pic32mx/3.4.4/../../../../pic32mx/lib/libc.a(memcpy.o)
                                                  build/mega/production/startup.o
PMSTAT                                            /Applications/microchip/mplabc32/v1.11a/bin/../lib/gcc/pic32mx/3.4.4/../../../../pic32mx/lib/./proc/32MX795F512L/processor.o
                                                  /Applications/microchip/mplabc32/v1.11a/bin/../lib/gcc/pic32mx/3.4.4/../../../../pic32mx/lib/libc.a(memcpy.o)
                                                  build/mega/production/startup.o
PMSTATCLR                                         /Applications/microchip/mplabc32/v1.11a/bin/../lib/gcc/pic32mx/3.4.4/../../../../pic32mx/lib/./proc/32MX795F512L/processor.o
                                                  /Applications/microchip/mplabc32/v1.11a/bin/../lib/gcc/pic32mx/3.4.4/../../../../pic32mx/lib/libc.a(memcpy.o)
                                                  build/mega/production/startup.o
PMSTATINV                                         /Applications/microchip/mplabc32/v1.11a/bin/../lib/gcc/pic32mx/3.4.4/../../../../pic32mx/lib/./proc/32MX795F512L/processor.o
                                                  /Applications/microchip/mplabc32/v1.11a/bin/../lib/gcc/pic32mx/3.4.4/../../../../pic32mx/lib/libc.a(memcpy.o)
                                                  build/mega/production/startup.o
PMSTATSET                                         /Applications/microchip/mplabc32/v1.11a/bin/../lib/gcc/pic32mx/3.4.4/../../../../pic32mx/lib/./proc/32MX795F512L/processor.o
                                                  /Applications/microchip/mplabc32/v1.11a/bin/../lib/gcc/pic32mx/3.4.4/../../../../pic32mx/lib/libc.a(memcpy.o)
                                                  build/mega/production/startup.o
PORTA                                             /Applications/microchip/mplabc32/v1.11a/bin/../lib/gcc/pic32mx/3.4.4/../../../../pic32mx/lib/./proc/32MX795F512L/processor.o
                                                  /Applications/microchip/mplabc32/v1.11a/bin/../lib/gcc/pic32mx/3.4.4/../../../../pic32mx/lib/libc.a(memcpy.o)
                                                  build/mega/production/pic32bootloader.o
                                                  build/mega/production/startup.o
PORTACLR                                          /Applications/microchip/mplabc32/v1.11a/bin/../lib/gcc/pic32mx/3.4.4/../../../../pic32mx/lib/./proc/32MX795F512L/processor.o
                                                  /Applications/microchip/mplabc32/v1.11a/bin/../lib/gcc/pic32mx/3.4.4/../../../../pic32mx/lib/libc.a(memcpy.o)
                                                  build/mega/production/startup.o
PORTAINV                                          /Applications/microchip/mplabc32/v1.11a/bin/../lib/gcc/pic32mx/3.4.4/../../../../pic32mx/lib/./proc/32MX795F512L/processor.o
                                                  /Applications/microchip/mplabc32/v1.11a/bin/../lib/gcc/pic32mx/3.4.4/../../../../pic32mx/lib/libc.a(memcpy.o)
                                                  build/mega/production/startup.o
PORTASET                                          /Applications/microchip/mplabc32/v1.11a/bin/../lib/gcc/pic32mx/3.4.4/../../../../pic32mx/lib/./proc/32MX795F512L/processor.o
                                                  /Applications/microchip/mplabc32/v1.11a/bin/../lib/gcc/pic32mx/3.4.4/../../../../pic32mx/lib/libc.a(memcpy.o)
                                                  build/mega/production/startup.o
PORTB                                             /Applications/microchip/mplabc32/v1.11a/bin/../lib/gcc/pic32mx/3.4.4/../../../../pic32mx/lib/./proc/32MX795F512L/processor.o
                                                  /Applications/microchip/mplabc32/v1.11a/bin/../lib/gcc/pic32mx/3.4.4/../../../../pic32mx/lib/libc.a(memcpy.o)
                                                  build/mega/production/pic32bootloader.o
                                                  build/mega/production/startup.o
PORTBCLR                                          /Applications/microchip/mplabc32/v1.11a/bin/../lib/gcc/pic32mx/3.4.4/../../../../pic32mx/lib/./proc/32MX795F512L/processor.o
                                                  /Applications/microchip/mplabc32/v1.11a/bin/../lib/gcc/pic32mx/3.4.4/../../../../pic32mx/lib/libc.a(memcpy.o)
                                                  build/mega/production/startup.o
PORTBINV                                          /Applications/microchip/mplabc32/v1.11a/bin/../lib/gcc/pic32mx/3.4.4/../../../../pic32mx/lib/./proc/32MX795F512L/processor.o
                                                  /Applications/microchip/mplabc32/v1.11a/bin/../lib/gcc/pic32mx/3.4.4/../../../../pic32mx/lib/libc.a(memcpy.o)
                                                  build/mega/production/startup.o
PORTBSET                                          /Applications/microchip/mplabc32/v1.11a/bin/../lib/gcc/pic32mx/3.4.4/../../../../pic32mx/lib/./proc/32MX795F512L/processor.o
                                                  /Applications/microchip/mplabc32/v1.11a/bin/../lib/gcc/pic32mx/3.4.4/../../../../pic32mx/lib/libc.a(memcpy.o)
                                                  build/mega/production/startup.o
PORTC                                             /Applications/microchip/mplabc32/v1.11a/bin/../lib/gcc/pic32mx/3.4.4/../../../../pic32mx/lib/./proc/32MX795F512L/processor.o
                                                  /Applications/microchip/mplabc32/v1.11a/bin/../lib/gcc/pic32mx/3.4.4/../../../../pic32mx/lib/libc.a(memcpy.o)
                                                  build/mega/production/pic32bootloader.o
                                                  build/mega/production/startup.o
PORTCCLR                                          /Applications/microchip/mplabc32/v1.11a/bin/../lib/gcc/pic32mx/3.4.4/../../../../pic32mx/lib/./proc/32MX795F512L/processor.o
                                                  /Applications/microchip/mplabc32/v1.11a/bin/../lib/gcc/pic32mx/3.4.4/../../../../pic32mx/lib/libc.a(memcpy.o)
                                                  build/mega/production/startup.o
PORTCINV                                          /Applications/microchip/mplabc32/v1.11a/bin/../lib/gcc/pic32mx/3.4.4/../../../../pic32mx/lib/./proc/32MX795F512L/processor.o
                                                  /Applications/microchip/mplabc32/v1.11a/bin/../lib/gcc/pic32mx/3.4.4/../../../../pic32mx/lib/libc.a(memcpy.o)
                                                  build/mega/production/startup.o
PORTCSET                                          /Applications/microchip/mplabc32/v1.11a/bin/../lib/gcc/pic32mx/3.4.4/../../../../pic32mx/lib/./proc/32MX795F512L/processor.o
                                                  /Applications/microchip/mplabc32/v1.11a/bin/../lib/gcc/pic32mx/3.4.4/../../../../pic32mx/lib/libc.a(memcpy.o)
                                                  build/mega/production/startup.o
PORTD                                             /Applications/microchip/mplabc32/v1.11a/bin/../lib/gcc/pic32mx/3.4.4/../../../../pic32mx/lib/./proc/32MX795F512L/processor.o
                                                  /Applications/microchip/mplabc32/v1.11a/bin/../lib/gcc/pic32mx/3.4.4/../../../../pic32mx/lib/libc.a(memcpy.o)
                                                  build/mega/production/pic32bootloader.o
                                                  build/mega/production/startup.o
PORTDCLR                                          /Applications/microchip/mplabc32/v1.11a/bin/../lib/gcc/pic32mx/3.4.4/../../../../pic32mx/lib/./proc/32MX795F512L/processor.o
                                                  /Applications/microchip/mplabc32/v1.11a/bin/../lib/gcc/pic32mx/3.4.4/../../../../pic32mx/lib/libc.a(memcpy.o)
                                                  build/mega/production/startup.o
PORTDINV                                          /Applications/microchip/mplabc32/v1.11a/bin/../lib/gcc/pic32mx/3.4.4/../../../../pic32mx/lib/./proc/32MX795F512L/processor.o
                                                  /Applications/microchip/mplabc32/v1.11a/bin/../lib/gcc/pic32mx/3.4.4/../../../../pic32mx/lib/libc.a(memcpy.o)
                                                  build/mega/production/startup.o
PORTDSET                                          /Applications/microchip/mplabc32/v1.11a/bin/../lib/gcc/pic32mx/3.4.4/../../../../pic32mx/lib/./proc/32MX795F512L/processor.o
                                                  /Applications/microchip/mplabc32/v1.11a/bin/../lib/gcc/pic32mx/3.4.4/../../../../pic32mx/lib/libc.a(memcpy.o)
                                                  build/mega/production/startup.o
PORTE                                             /Applications/microchip/mplabc32/v1.11a/bin/../lib/gcc/pic32mx/3.4.4/../../../../pic32mx/lib/./proc/32MX795F512L/processor.o
                                                  /Applications/microchip/mplabc32/v1.11a/bin/../lib/gcc/pic32mx/3.4.4/../../../../pic32mx/lib/libc.a(memcpy.o)
                                                  build/mega/production/pic32bootloader.o
                                                  build/mega/production/startup.o
PORTECLR                                          /Applications/microchip/mplabc32/v1.11a/bin/../lib/gcc/pic32mx/3.4.4/../../../../pic32mx/lib/./proc/32MX795F512L/processor.o
                                                  /Applications/microchip/mplabc32/v1.11a/bin/../lib/gcc/pic32mx/3.4.4/../../../../pic32mx/lib/libc.a(memcpy.o)
                                                  build/mega/production/startup.o
PORTEINV                                          /Applications/microchip/mplabc32/v1.11a/bin/../lib/gcc/pic32mx/3.4.4/../../../../pic32mx/lib/./proc/32MX795F512L/processor.o
                                                  /Applications/microchip/mplabc32/v1.11a/bin/../lib/gcc/pic32mx/3.4.4/../../../../pic32mx/lib/libc.a(memcpy.o)
                                                  build/mega/production/startup.o
PORTESET                                          /Applications/microchip/mplabc32/v1.11a/bin/../lib/gcc/pic32mx/3.4.4/../../../../pic32mx/lib/./proc/32MX795F512L/processor.o
                                                  /Applications/microchip/mplabc32/v1.11a/bin/../lib/gcc/pic32mx/3.4.4/../../../../pic32mx/lib/libc.a(memcpy.o)
                                                  build/mega/production/startup.o
PORTF                                             /Applications/microchip/mplabc32/v1.11a/bin/../lib/gcc/pic32mx/3.4.4/../../../../pic32mx/lib/./proc/32MX795F512L/processor.o
                                                  /Applications/microchip/mplabc32/v1.11a/bin/../lib/gcc/pic32mx/3.4.4/../../../../pic32mx/lib/libc.a(memcpy.o)
                                                  build/mega/production/pic32bootloader.o
                                                  build/mega/production/startup.o
PORTFCLR                                          /Applications/microchip/mplabc32/v1.11a/bin/../lib/gcc/pic32mx/3.4.4/../../../../pic32mx/lib/./proc/32MX795F512L/processor.o
                                                  /Applications/microchip/mplabc32/v1.11a/bin/../lib/gcc/pic32mx/3.4.4/../../../../pic32mx/lib/libc.a(memcpy.o)
                                                  build/mega/production/startup.o
PORTFINV                                          /Applications/microchip/mplabc32/v1.11a/bin/../lib/gcc/pic32mx/3.4.4/../../../../pic32mx/lib/./proc/32MX795F512L/processor.o
                                                  /Applications/microchip/mplabc32/v1.11a/bin/../lib/gcc/pic32mx/3.4.4/../../../../pic32mx/lib/libc.a(memcpy.o)
                                                  build/mega/production/startup.o
PORTFSET                                          /Applications/microchip/mplabc32/v1.11a/bin/../lib/gcc/pic32mx/3.4.4/../../../../pic32mx/lib/./proc/32MX795F512L/processor.o
                                                  /Applications/microchip/mplabc32/v1.11a/bin/../lib/gcc/pic32mx/3.4.4/../../../../pic32mx/lib/libc.a(memcpy.o)
                                                  build/mega/production/startup.o
PORTG                                             /Applications/microchip/mplabc32/v1.11a/bin/../lib/gcc/pic32mx/3.4.4/../../../../pic32mx/lib/./proc/32MX795F512L/processor.o
                                                  /Applications/microchip/mplabc32/v1.11a/bin/../lib/gcc/pic32mx/3.4.4/../../../../pic32mx/lib/libc.a(memcpy.o)
                                                  build/mega/production/pic32bootloader.o
                                                  build/mega/production/startup.o
PORTGCLR                                          /Applications/microchip/mplabc32/v1.11a/bin/../lib/gcc/pic32mx/3.4.4/../../../../pic32mx/lib/./proc/32MX795F512L/processor.o
                                                  /Applications/microchip/mplabc32/v1.11a/bin/../lib/gcc/pic32mx/3.4.4/../../../../pic32mx/lib/libc.a(memcpy.o)
                                                  build/mega/production/startup.o
PORTGINV                                          /Applications/microchip/mplabc32/v1.11a/bin/../lib/gcc/pic32mx/3.4.4/../../../../pic32mx/lib/./proc/32MX795F512L/processor.o
                                                  /Applications/microchip/mplabc32/v1.11a/bin/../lib/gcc/pic32mx/3.4.4/../../../../pic32mx/lib/libc.a(memcpy.o)
                                                  build/mega/production/startup.o
PORTGSET                                          /Applications/microchip/mplabc32/v1.11a/bin/../lib/gcc/pic32mx/3.4.4/../../../../pic32mx/lib/./proc/32MX795F512L/processor.o
                                                  /Applications/microchip/mplabc32/v1.11a/bin/../lib/gcc/pic32mx/3.4.4/../../../../pic32mx/lib/libc.a(memcpy.o)
                                                  build/mega/production/startup.o
PR1                                               /Applications/microchip/mplabc32/v1.11a/bin/../lib/gcc/pic32mx/3.4.4/../../../../pic32mx/lib/./proc/32MX795F512L/processor.o
                                                  /Applications/microchip/mplabc32/v1.11a/bin/../lib/gcc/pic32mx/3.4.4/../../../../pic32mx/lib/libc.a(memcpy.o)
                                                  build/mega/production/startup.o
PR1CLR                                            /Applications/microchip/mplabc32/v1.11a/bin/../lib/gcc/pic32mx/3.4.4/../../../../pic32mx/lib/./proc/32MX795F512L/processor.o
                                                  /Applications/microchip/mplabc32/v1.11a/bin/../lib/gcc/pic32mx/3.4.4/../../../../pic32mx/lib/libc.a(memcpy.o)
                                                  build/mega/production/startup.o
PR1INV                                            /Applications/microchip/mplabc32/v1.11a/bin/../lib/gcc/pic32mx/3.4.4/../../../../pic32mx/lib/./proc/32MX795F512L/processor.o
                                                  /Applications/microchip/mplabc32/v1.11a/bin/../lib/gcc/pic32mx/3.4.4/../../../../pic32mx/lib/libc.a(memcpy.o)
                                                  build/mega/production/startup.o
PR1SET                                            /Applications/microchip/mplabc32/v1.11a/bin/../lib/gcc/pic32mx/3.4.4/../../../../pic32mx/lib/./proc/32MX795F512L/processor.o
                                                  /Applications/microchip/mplabc32/v1.11a/bin/../lib/gcc/pic32mx/3.4.4/../../../../pic32mx/lib/libc.a(memcpy.o)
                                                  build/mega/production/startup.o
PR2                                               /Applications/microchip/mplabc32/v1.11a/bin/../lib/gcc/pic32mx/3.4.4/../../../../pic32mx/lib/./proc/32MX795F512L/processor.o
                                                  /Applications/microchip/mplabc32/v1.11a/bin/../lib/gcc/pic32mx/3.4.4/../../../../pic32mx/lib/libc.a(memcpy.o)
                                                  build/mega/production/startup.o
PR23                                              /Applications/microchip/mplabc32/v1.11a/bin/../lib/gcc/pic32mx/3.4.4/../../../../pic32mx/lib/./proc/32MX795F512L/processor.o
                                                  /Applications/microchip/mplabc32/v1.11a/bin/../lib/gcc/pic32mx/3.4.4/../../../../pic32mx/lib/libc.a(memcpy.o)
                                                  build/mega/production/startup.o
PR2CLR                                            /Applications/microchip/mplabc32/v1.11a/bin/../lib/gcc/pic32mx/3.4.4/../../../../pic32mx/lib/./proc/32MX795F512L/processor.o
                                                  /Applications/microchip/mplabc32/v1.11a/bin/../lib/gcc/pic32mx/3.4.4/../../../../pic32mx/lib/libc.a(memcpy.o)
                                                  build/mega/production/startup.o
PR2INV                                            /Applications/microchip/mplabc32/v1.11a/bin/../lib/gcc/pic32mx/3.4.4/../../../../pic32mx/lib/./proc/32MX795F512L/processor.o
                                                  /Applications/microchip/mplabc32/v1.11a/bin/../lib/gcc/pic32mx/3.4.4/../../../../pic32mx/lib/libc.a(memcpy.o)
                                                  build/mega/production/startup.o
PR2SET                                            /Applications/microchip/mplabc32/v1.11a/bin/../lib/gcc/pic32mx/3.4.4/../../../../pic32mx/lib/./proc/32MX795F512L/processor.o
                                                  /Applications/microchip/mplabc32/v1.11a/bin/../lib/gcc/pic32mx/3.4.4/../../../../pic32mx/lib/libc.a(memcpy.o)
                                                  build/mega/production/startup.o
PR3                                               /Applications/microchip/mplabc32/v1.11a/bin/../lib/gcc/pic32mx/3.4.4/../../../../pic32mx/lib/./proc/32MX795F512L/processor.o
                                                  /Applications/microchip/mplabc32/v1.11a/bin/../lib/gcc/pic32mx/3.4.4/../../../../pic32mx/lib/libc.a(memcpy.o)
                                                  build/mega/production/startup.o
PR3CLR                                            /Applications/microchip/mplabc32/v1.11a/bin/../lib/gcc/pic32mx/3.4.4/../../../../pic32mx/lib/./proc/32MX795F512L/processor.o
                                                  /Applications/microchip/mplabc32/v1.11a/bin/../lib/gcc/pic32mx/3.4.4/../../../../pic32mx/lib/libc.a(memcpy.o)
                                                  build/mega/production/startup.o
PR3INV                                            /Applications/microchip/mplabc32/v1.11a/bin/../lib/gcc/pic32mx/3.4.4/../../../../pic32mx/lib/./proc/32MX795F512L/processor.o
                                                  /Applications/microchip/mplabc32/v1.11a/bin/../lib/gcc/pic32mx/3.4.4/../../../../pic32mx/lib/libc.a(memcpy.o)
                                                  build/mega/production/startup.o
PR3SET                                            /Applications/microchip/mplabc32/v1.11a/bin/../lib/gcc/pic32mx/3.4.4/../../../../pic32mx/lib/./proc/32MX795F512L/processor.o
                                                  /Applications/microchip/mplabc32/v1.11a/bin/../lib/gcc/pic32mx/3.4.4/../../../../pic32mx/lib/libc.a(memcpy.o)
                                                  build/mega/production/startup.o
PR4                                               /Applications/microchip/mplabc32/v1.11a/bin/../lib/gcc/pic32mx/3.4.4/../../../../pic32mx/lib/./proc/32MX795F512L/processor.o
                                                  /Applications/microchip/mplabc32/v1.11a/bin/../lib/gcc/pic32mx/3.4.4/../../../../pic32mx/lib/libc.a(memcpy.o)
                                                  build/mega/production/startup.o
PR45                                              /Applications/microchip/mplabc32/v1.11a/bin/../lib/gcc/pic32mx/3.4.4/../../../../pic32mx/lib/./proc/32MX795F512L/processor.o
                                                  /Applications/microchip/mplabc32/v1.11a/bin/../lib/gcc/pic32mx/3.4.4/../../../../pic32mx/lib/libc.a(memcpy.o)
                                                  build/mega/production/startup.o
PR4CLR                                            /Applications/microchip/mplabc32/v1.11a/bin/../lib/gcc/pic32mx/3.4.4/../../../../pic32mx/lib/./proc/32MX795F512L/processor.o
                                                  /Applications/microchip/mplabc32/v1.11a/bin/../lib/gcc/pic32mx/3.4.4/../../../../pic32mx/lib/libc.a(memcpy.o)
                                                  build/mega/production/startup.o
PR4INV                                            /Applications/microchip/mplabc32/v1.11a/bin/../lib/gcc/pic32mx/3.4.4/../../../../pic32mx/lib/./proc/32MX795F512L/processor.o
                                                  /Applications/microchip/mplabc32/v1.11a/bin/../lib/gcc/pic32mx/3.4.4/../../../../pic32mx/lib/libc.a(memcpy.o)
                                                  build/mega/production/startup.o
PR4SET                                            /Applications/microchip/mplabc32/v1.11a/bin/../lib/gcc/pic32mx/3.4.4/../../../../pic32mx/lib/./proc/32MX795F512L/processor.o
                                                  /Applications/microchip/mplabc32/v1.11a/bin/../lib/gcc/pic32mx/3.4.4/../../../../pic32mx/lib/libc.a(memcpy.o)
                                                  build/mega/production/startup.o
PR5                                               /Applications/microchip/mplabc32/v1.11a/bin/../lib/gcc/pic32mx/3.4.4/../../../../pic32mx/lib/./proc/32MX795F512L/processor.o
                                                  /Applications/microchip/mplabc32/v1.11a/bin/../lib/gcc/pic32mx/3.4.4/../../../../pic32mx/lib/libc.a(memcpy.o)
                                                  build/mega/production/startup.o
PR5CLR                                            /Applications/microchip/mplabc32/v1.11a/bin/../lib/gcc/pic32mx/3.4.4/../../../../pic32mx/lib/./proc/32MX795F512L/processor.o
                                                  /Applications/microchip/mplabc32/v1.11a/bin/../lib/gcc/pic32mx/3.4.4/../../../../pic32mx/lib/libc.a(memcpy.o)
                                                  build/mega/production/startup.o
PR5INV                                            /Applications/microchip/mplabc32/v1.11a/bin/../lib/gcc/pic32mx/3.4.4/../../../../pic32mx/lib/./proc/32MX795F512L/processor.o
                                                  /Applications/microchip/mplabc32/v1.11a/bin/../lib/gcc/pic32mx/3.4.4/../../../../pic32mx/lib/libc.a(memcpy.o)
                                                  build/mega/production/startup.o
PR5SET                                            /Applications/microchip/mplabc32/v1.11a/bin/../lib/gcc/pic32mx/3.4.4/../../../../pic32mx/lib/./proc/32MX795F512L/processor.o
                                                  /Applications/microchip/mplabc32/v1.11a/bin/../lib/gcc/pic32mx/3.4.4/../../../../pic32mx/lib/libc.a(memcpy.o)
                                                  build/mega/production/startup.o
RCON                                              /Applications/microchip/mplabc32/v1.11a/bin/../lib/gcc/pic32mx/3.4.4/../../../../pic32mx/lib/./proc/32MX795F512L/processor.o
                                                  /Applications/microchip/mplabc32/v1.11a/bin/../lib/gcc/pic32mx/3.4.4/../../../../pic32mx/lib/libc.a(memcpy.o)
                                                  build/mega/production/startup.o
RCONCLR                                           /Applications/microchip/mplabc32/v1.11a/bin/../lib/gcc/pic32mx/3.4.4/../../../../pic32mx/lib/./proc/32MX795F512L/processor.o
                                                  /Applications/microchip/mplabc32/v1.11a/bin/../lib/gcc/pic32mx/3.4.4/../../../../pic32mx/lib/libc.a(memcpy.o)
                                                  build/mega/production/startup.o
RCONINV                                           /Applications/microchip/mplabc32/v1.11a/bin/../lib/gcc/pic32mx/3.4.4/../../../../pic32mx/lib/./proc/32MX795F512L/processor.o
                                                  /Applications/microchip/mplabc32/v1.11a/bin/../lib/gcc/pic32mx/3.4.4/../../../../pic32mx/lib/libc.a(memcpy.o)
                                                  build/mega/production/startup.o
RCONSET                                           /Applications/microchip/mplabc32/v1.11a/bin/../lib/gcc/pic32mx/3.4.4/../../../../pic32mx/lib/./proc/32MX795F512L/processor.o
                                                  /Applications/microchip/mplabc32/v1.11a/bin/../lib/gcc/pic32mx/3.4.4/../../../../pic32mx/lib/libc.a(memcpy.o)
                                                  build/mega/production/startup.o
RSWRST                                            /Applications/microchip/mplabc32/v1.11a/bin/../lib/gcc/pic32mx/3.4.4/../../../../pic32mx/lib/./proc/32MX795F512L/processor.o
                                                  /Applications/microchip/mplabc32/v1.11a/bin/../lib/gcc/pic32mx/3.4.4/../../../../pic32mx/lib/libc.a(memcpy.o)
                                                  build/mega/production/startup.o
RSWRSTCLR                                         /Applications/microchip/mplabc32/v1.11a/bin/../lib/gcc/pic32mx/3.4.4/../../../../pic32mx/lib/./proc/32MX795F512L/processor.o
                                                  /Applications/microchip/mplabc32/v1.11a/bin/../lib/gcc/pic32mx/3.4.4/../../../../pic32mx/lib/libc.a(memcpy.o)
                                                  build/mega/production/startup.o
RSWRSTINV                                         /Applications/microchip/mplabc32/v1.11a/bin/../lib/gcc/pic32mx/3.4.4/../../../../pic32mx/lib/./proc/32MX795F512L/processor.o
                                                  /Applications/microchip/mplabc32/v1.11a/bin/../lib/gcc/pic32mx/3.4.4/../../../../pic32mx/lib/libc.a(memcpy.o)
                                                  build/mega/production/startup.o
RSWRSTSET                                         /Applications/microchip/mplabc32/v1.11a/bin/../lib/gcc/pic32mx/3.4.4/../../../../pic32mx/lib/./proc/32MX795F512L/processor.o
                                                  /Applications/microchip/mplabc32/v1.11a/bin/../lib/gcc/pic32mx/3.4.4/../../../../pic32mx/lib/libc.a(memcpy.o)
                                                  build/mega/production/startup.o
RTCALRM                                           /Applications/microchip/mplabc32/v1.11a/bin/../lib/gcc/pic32mx/3.4.4/../../../../pic32mx/lib/./proc/32MX795F512L/processor.o
                                                  /Applications/microchip/mplabc32/v1.11a/bin/../lib/gcc/pic32mx/3.4.4/../../../../pic32mx/lib/libc.a(memcpy.o)
                                                  build/mega/production/startup.o
RTCALRMCLR                                        /Applications/microchip/mplabc32/v1.11a/bin/../lib/gcc/pic32mx/3.4.4/../../../../pic32mx/lib/./proc/32MX795F512L/processor.o
                                                  /Applications/microchip/mplabc32/v1.11a/bin/../lib/gcc/pic32mx/3.4.4/../../../../pic32mx/lib/libc.a(memcpy.o)
                                                  build/mega/production/startup.o
RTCALRMINV                                        /Applications/microchip/mplabc32/v1.11a/bin/../lib/gcc/pic32mx/3.4.4/../../../../pic32mx/lib/./proc/32MX795F512L/processor.o
                                                  /Applications/microchip/mplabc32/v1.11a/bin/../lib/gcc/pic32mx/3.4.4/../../../../pic32mx/lib/libc.a(memcpy.o)
                                                  build/mega/production/startup.o
RTCALRMSET                                        /Applications/microchip/mplabc32/v1.11a/bin/../lib/gcc/pic32mx/3.4.4/../../../../pic32mx/lib/./proc/32MX795F512L/processor.o
                                                  /Applications/microchip/mplabc32/v1.11a/bin/../lib/gcc/pic32mx/3.4.4/../../../../pic32mx/lib/libc.a(memcpy.o)
                                                  build/mega/production/startup.o
RTCCON                                            /Applications/microchip/mplabc32/v1.11a/bin/../lib/gcc/pic32mx/3.4.4/../../../../pic32mx/lib/./proc/32MX795F512L/processor.o
                                                  /Applications/microchip/mplabc32/v1.11a/bin/../lib/gcc/pic32mx/3.4.4/../../../../pic32mx/lib/libc.a(memcpy.o)
                                                  build/mega/production/startup.o
RTCCONCLR                                         /Applications/microchip/mplabc32/v1.11a/bin/../lib/gcc/pic32mx/3.4.4/../../../../pic32mx/lib/./proc/32MX795F512L/processor.o
                                                  /Applications/microchip/mplabc32/v1.11a/bin/../lib/gcc/pic32mx/3.4.4/../../../../pic32mx/lib/libc.a(memcpy.o)
                                                  build/mega/production/startup.o
RTCCONINV                                         /Applications/microchip/mplabc32/v1.11a/bin/../lib/gcc/pic32mx/3.4.4/../../../../pic32mx/lib/./proc/32MX795F512L/processor.o
                                                  /Applications/microchip/mplabc32/v1.11a/bin/../lib/gcc/pic32mx/3.4.4/../../../../pic32mx/lib/libc.a(memcpy.o)
                                                  build/mega/production/startup.o
RTCCONSET                                         /Applications/microchip/mplabc32/v1.11a/bin/../lib/gcc/pic32mx/3.4.4/../../../../pic32mx/lib/./proc/32MX795F512L/processor.o
                                                  /Applications/microchip/mplabc32/v1.11a/bin/../lib/gcc/pic32mx/3.4.4/../../../../pic32mx/lib/libc.a(memcpy.o)
                                                  build/mega/production/startup.o
RTCDATE                                           /Applications/microchip/mplabc32/v1.11a/bin/../lib/gcc/pic32mx/3.4.4/../../../../pic32mx/lib/./proc/32MX795F512L/processor.o
                                                  /Applications/microchip/mplabc32/v1.11a/bin/../lib/gcc/pic32mx/3.4.4/../../../../pic32mx/lib/libc.a(memcpy.o)
                                                  build/mega/production/startup.o
RTCDATECLR                                        /Applications/microchip/mplabc32/v1.11a/bin/../lib/gcc/pic32mx/3.4.4/../../../../pic32mx/lib/./proc/32MX795F512L/processor.o
                                                  /Applications/microchip/mplabc32/v1.11a/bin/../lib/gcc/pic32mx/3.4.4/../../../../pic32mx/lib/libc.a(memcpy.o)
                                                  build/mega/production/startup.o
RTCDATEINV                                        /Applications/microchip/mplabc32/v1.11a/bin/../lib/gcc/pic32mx/3.4.4/../../../../pic32mx/lib/./proc/32MX795F512L/processor.o
                                                  /Applications/microchip/mplabc32/v1.11a/bin/../lib/gcc/pic32mx/3.4.4/../../../../pic32mx/lib/libc.a(memcpy.o)
                                                  build/mega/production/startup.o
RTCDATESET                                        /Applications/microchip/mplabc32/v1.11a/bin/../lib/gcc/pic32mx/3.4.4/../../../../pic32mx/lib/./proc/32MX795F512L/processor.o
                                                  /Applications/microchip/mplabc32/v1.11a/bin/../lib/gcc/pic32mx/3.4.4/../../../../pic32mx/lib/libc.a(memcpy.o)
                                                  build/mega/production/startup.o
RTCTIME                                           /Applications/microchip/mplabc32/v1.11a/bin/../lib/gcc/pic32mx/3.4.4/../../../../pic32mx/lib/./proc/32MX795F512L/processor.o
                                                  /Applications/microchip/mplabc32/v1.11a/bin/../lib/gcc/pic32mx/3.4.4/../../../../pic32mx/lib/libc.a(memcpy.o)
                                                  build/mega/production/startup.o
RTCTIMECLR                                        /Applications/microchip/mplabc32/v1.11a/bin/../lib/gcc/pic32mx/3.4.4/../../../../pic32mx/lib/./proc/32MX795F512L/processor.o
                                                  /Applications/microchip/mplabc32/v1.11a/bin/../lib/gcc/pic32mx/3.4.4/../../../../pic32mx/lib/libc.a(memcpy.o)
                                                  build/mega/production/startup.o
RTCTIMEINV                                        /Applications/microchip/mplabc32/v1.11a/bin/../lib/gcc/pic32mx/3.4.4/../../../../pic32mx/lib/./proc/32MX795F512L/processor.o
                                                  /Applications/microchip/mplabc32/v1.11a/bin/../lib/gcc/pic32mx/3.4.4/../../../../pic32mx/lib/libc.a(memcpy.o)
                                                  build/mega/production/startup.o
RTCTIMESET                                        /Applications/microchip/mplabc32/v1.11a/bin/../lib/gcc/pic32mx/3.4.4/../../../../pic32mx/lib/./proc/32MX795F512L/processor.o
                                                  /Applications/microchip/mplabc32/v1.11a/bin/../lib/gcc/pic32mx/3.4.4/../../../../pic32mx/lib/libc.a(memcpy.o)
                                                  build/mega/production/startup.o
SPI1ABRG                                          /Applications/microchip/mplabc32/v1.11a/bin/../lib/gcc/pic32mx/3.4.4/../../../../pic32mx/lib/./proc/32MX795F512L/processor.o
                                                  build/mega/production/startup.o
SPI1ABRGCLR                                       /Applications/microchip/mplabc32/v1.11a/bin/../lib/gcc/pic32mx/3.4.4/../../../../pic32mx/lib/./proc/32MX795F512L/processor.o
                                                  build/mega/production/startup.o
SPI1ABRGINV                                       /Applications/microchip/mplabc32/v1.11a/bin/../lib/gcc/pic32mx/3.4.4/../../../../pic32mx/lib/./proc/32MX795F512L/processor.o
                                                  build/mega/production/startup.o
SPI1ABRGSET                                       /Applications/microchip/mplabc32/v1.11a/bin/../lib/gcc/pic32mx/3.4.4/../../../../pic32mx/lib/./proc/32MX795F512L/processor.o
                                                  build/mega/production/startup.o
SPI1ABUF                                          /Applications/microchip/mplabc32/v1.11a/bin/../lib/gcc/pic32mx/3.4.4/../../../../pic32mx/lib/./proc/32MX795F512L/processor.o
                                                  build/mega/production/startup.o
SPI1ACON                                          /Applications/microchip/mplabc32/v1.11a/bin/../lib/gcc/pic32mx/3.4.4/../../../../pic32mx/lib/./proc/32MX795F512L/processor.o
                                                  build/mega/production/startup.o
SPI1ACONCLR                                       /Applications/microchip/mplabc32/v1.11a/bin/../lib/gcc/pic32mx/3.4.4/../../../../pic32mx/lib/./proc/32MX795F512L/processor.o
                                                  build/mega/production/startup.o
SPI1ACONINV                                       /Applications/microchip/mplabc32/v1.11a/bin/../lib/gcc/pic32mx/3.4.4/../../../../pic32mx/lib/./proc/32MX795F512L/processor.o
                                                  build/mega/production/startup.o
SPI1ACONSET                                       /Applications/microchip/mplabc32/v1.11a/bin/../lib/gcc/pic32mx/3.4.4/../../../../pic32mx/lib/./proc/32MX795F512L/processor.o
                                                  build/mega/production/startup.o
SPI1ASTAT                                         /Applications/microchip/mplabc32/v1.11a/bin/../lib/gcc/pic32mx/3.4.4/../../../../pic32mx/lib/./proc/32MX795F512L/processor.o
                                                  build/mega/production/startup.o
SPI1ASTATCLR                                      /Applications/microchip/mplabc32/v1.11a/bin/../lib/gcc/pic32mx/3.4.4/../../../../pic32mx/lib/./proc/32MX795F512L/processor.o
                                                  build/mega/production/startup.o
SPI1ASTATINV                                      /Applications/microchip/mplabc32/v1.11a/bin/../lib/gcc/pic32mx/3.4.4/../../../../pic32mx/lib/./proc/32MX795F512L/processor.o
                                                  build/mega/production/startup.o
SPI1ASTATSET                                      /Applications/microchip/mplabc32/v1.11a/bin/../lib/gcc/pic32mx/3.4.4/../../../../pic32mx/lib/./proc/32MX795F512L/processor.o
                                                  build/mega/production/startup.o
SPI1BRG                                           /Applications/microchip/mplabc32/v1.11a/bin/../lib/gcc/pic32mx/3.4.4/../../../../pic32mx/lib/./proc/32MX795F512L/processor.o
                                                  /Applications/microchip/mplabc32/v1.11a/bin/../lib/gcc/pic32mx/3.4.4/../../../../pic32mx/lib/libc.a(memcpy.o)
                                                  build/mega/production/startup.o
SPI1BRGCLR                                        /Applications/microchip/mplabc32/v1.11a/bin/../lib/gcc/pic32mx/3.4.4/../../../../pic32mx/lib/./proc/32MX795F512L/processor.o
                                                  /Applications/microchip/mplabc32/v1.11a/bin/../lib/gcc/pic32mx/3.4.4/../../../../pic32mx/lib/libc.a(memcpy.o)
                                                  build/mega/production/startup.o
SPI1BRGINV                                        /Applications/microchip/mplabc32/v1.11a/bin/../lib/gcc/pic32mx/3.4.4/../../../../pic32mx/lib/./proc/32MX795F512L/processor.o
                                                  /Applications/microchip/mplabc32/v1.11a/bin/../lib/gcc/pic32mx/3.4.4/../../../../pic32mx/lib/libc.a(memcpy.o)
                                                  build/mega/production/startup.o
SPI1BRGSET                                        /Applications/microchip/mplabc32/v1.11a/bin/../lib/gcc/pic32mx/3.4.4/../../../../pic32mx/lib/./proc/32MX795F512L/processor.o
                                                  /Applications/microchip/mplabc32/v1.11a/bin/../lib/gcc/pic32mx/3.4.4/../../../../pic32mx/lib/libc.a(memcpy.o)
                                                  build/mega/production/startup.o
SPI1BUF                                           /Applications/microchip/mplabc32/v1.11a/bin/../lib/gcc/pic32mx/3.4.4/../../../../pic32mx/lib/./proc/32MX795F512L/processor.o
                                                  /Applications/microchip/mplabc32/v1.11a/bin/../lib/gcc/pic32mx/3.4.4/../../../../pic32mx/lib/libc.a(memcpy.o)
                                                  build/mega/production/startup.o
SPI1CON                                           /Applications/microchip/mplabc32/v1.11a/bin/../lib/gcc/pic32mx/3.4.4/../../../../pic32mx/lib/./proc/32MX795F512L/processor.o
                                                  /Applications/microchip/mplabc32/v1.11a/bin/../lib/gcc/pic32mx/3.4.4/../../../../pic32mx/lib/libc.a(memcpy.o)
                                                  build/mega/production/startup.o
SPI1CONCLR                                        /Applications/microchip/mplabc32/v1.11a/bin/../lib/gcc/pic32mx/3.4.4/../../../../pic32mx/lib/./proc/32MX795F512L/processor.o
                                                  /Applications/microchip/mplabc32/v1.11a/bin/../lib/gcc/pic32mx/3.4.4/../../../../pic32mx/lib/libc.a(memcpy.o)
                                                  build/mega/production/startup.o
SPI1CONINV                                        /Applications/microchip/mplabc32/v1.11a/bin/../lib/gcc/pic32mx/3.4.4/../../../../pic32mx/lib/./proc/32MX795F512L/processor.o
                                                  /Applications/microchip/mplabc32/v1.11a/bin/../lib/gcc/pic32mx/3.4.4/../../../../pic32mx/lib/libc.a(memcpy.o)
                                                  build/mega/production/startup.o
SPI1CONSET                                        /Applications/microchip/mplabc32/v1.11a/bin/../lib/gcc/pic32mx/3.4.4/../../../../pic32mx/lib/./proc/32MX795F512L/processor.o
                                                  /Applications/microchip/mplabc32/v1.11a/bin/../lib/gcc/pic32mx/3.4.4/../../../../pic32mx/lib/libc.a(memcpy.o)
                                                  build/mega/production/startup.o
SPI1STAT                                          /Applications/microchip/mplabc32/v1.11a/bin/../lib/gcc/pic32mx/3.4.4/../../../../pic32mx/lib/./proc/32MX795F512L/processor.o
                                                  /Applications/microchip/mplabc32/v1.11a/bin/../lib/gcc/pic32mx/3.4.4/../../../../pic32mx/lib/libc.a(memcpy.o)
                                                  build/mega/production/startup.o
SPI1STATCLR                                       /Applications/microchip/mplabc32/v1.11a/bin/../lib/gcc/pic32mx/3.4.4/../../../../pic32mx/lib/./proc/32MX795F512L/processor.o
                                                  /Applications/microchip/mplabc32/v1.11a/bin/../lib/gcc/pic32mx/3.4.4/../../../../pic32mx/lib/libc.a(memcpy.o)
                                                  build/mega/production/startup.o
SPI1STATINV                                       /Applications/microchip/mplabc32/v1.11a/bin/../lib/gcc/pic32mx/3.4.4/../../../../pic32mx/lib/./proc/32MX795F512L/processor.o
                                                  /Applications/microchip/mplabc32/v1.11a/bin/../lib/gcc/pic32mx/3.4.4/../../../../pic32mx/lib/libc.a(memcpy.o)
                                                  build/mega/production/startup.o
SPI1STATSET                                       /Applications/microchip/mplabc32/v1.11a/bin/../lib/gcc/pic32mx/3.4.4/../../../../pic32mx/lib/./proc/32MX795F512L/processor.o
                                                  /Applications/microchip/mplabc32/v1.11a/bin/../lib/gcc/pic32mx/3.4.4/../../../../pic32mx/lib/libc.a(memcpy.o)
                                                  build/mega/production/startup.o
SPI2ABRG                                          /Applications/microchip/mplabc32/v1.11a/bin/../lib/gcc/pic32mx/3.4.4/../../../../pic32mx/lib/./proc/32MX795F512L/processor.o
                                                  build/mega/production/startup.o
SPI2ABRGCLR                                       /Applications/microchip/mplabc32/v1.11a/bin/../lib/gcc/pic32mx/3.4.4/../../../../pic32mx/lib/./proc/32MX795F512L/processor.o
                                                  build/mega/production/startup.o
SPI2ABRGINV                                       /Applications/microchip/mplabc32/v1.11a/bin/../lib/gcc/pic32mx/3.4.4/../../../../pic32mx/lib/./proc/32MX795F512L/processor.o
                                                  build/mega/production/startup.o
SPI2ABRGSET                                       /Applications/microchip/mplabc32/v1.11a/bin/../lib/gcc/pic32mx/3.4.4/../../../../pic32mx/lib/./proc/32MX795F512L/processor.o
                                                  build/mega/production/startup.o
SPI2ABUF                                          /Applications/microchip/mplabc32/v1.11a/bin/../lib/gcc/pic32mx/3.4.4/../../../../pic32mx/lib/./proc/32MX795F512L/processor.o
                                                  build/mega/production/startup.o
SPI2ACON                                          /Applications/microchip/mplabc32/v1.11a/bin/../lib/gcc/pic32mx/3.4.4/../../../../pic32mx/lib/./proc/32MX795F512L/processor.o
                                                  build/mega/production/startup.o
SPI2ACONCLR                                       /Applications/microchip/mplabc32/v1.11a/bin/../lib/gcc/pic32mx/3.4.4/../../../../pic32mx/lib/./proc/32MX795F512L/processor.o
                                                  build/mega/production/startup.o
SPI2ACONINV                                       /Applications/microchip/mplabc32/v1.11a/bin/../lib/gcc/pic32mx/3.4.4/../../../../pic32mx/lib/./proc/32MX795F512L/processor.o
                                                  build/mega/production/startup.o
SPI2ACONSET                                       /Applications/microchip/mplabc32/v1.11a/bin/../lib/gcc/pic32mx/3.4.4/../../../../pic32mx/lib/./proc/32MX795F512L/processor.o
                                                  build/mega/production/startup.o
SPI2ASTAT                                         /Applications/microchip/mplabc32/v1.11a/bin/../lib/gcc/pic32mx/3.4.4/../../../../pic32mx/lib/./proc/32MX795F512L/processor.o
                                                  build/mega/production/startup.o
SPI2ASTATCLR                                      /Applications/microchip/mplabc32/v1.11a/bin/../lib/gcc/pic32mx/3.4.4/../../../../pic32mx/lib/./proc/32MX795F512L/processor.o
                                                  build/mega/production/startup.o
SPI2ASTATINV                                      /Applications/microchip/mplabc32/v1.11a/bin/../lib/gcc/pic32mx/3.4.4/../../../../pic32mx/lib/./proc/32MX795F512L/processor.o
                                                  build/mega/production/startup.o
SPI2ASTATSET                                      /Applications/microchip/mplabc32/v1.11a/bin/../lib/gcc/pic32mx/3.4.4/../../../../pic32mx/lib/./proc/32MX795F512L/processor.o
                                                  build/mega/production/startup.o
SPI2BRG                                           /Applications/microchip/mplabc32/v1.11a/bin/../lib/gcc/pic32mx/3.4.4/../../../../pic32mx/lib/./proc/32MX795F512L/processor.o
                                                  /Applications/microchip/mplabc32/v1.11a/bin/../lib/gcc/pic32mx/3.4.4/../../../../pic32mx/lib/libc.a(memcpy.o)
                                                  build/mega/production/startup.o
SPI2BRGCLR                                        /Applications/microchip/mplabc32/v1.11a/bin/../lib/gcc/pic32mx/3.4.4/../../../../pic32mx/lib/./proc/32MX795F512L/processor.o
                                                  /Applications/microchip/mplabc32/v1.11a/bin/../lib/gcc/pic32mx/3.4.4/../../../../pic32mx/lib/libc.a(memcpy.o)
                                                  build/mega/production/startup.o
SPI2BRGINV                                        /Applications/microchip/mplabc32/v1.11a/bin/../lib/gcc/pic32mx/3.4.4/../../../../pic32mx/lib/./proc/32MX795F512L/processor.o
                                                  /Applications/microchip/mplabc32/v1.11a/bin/../lib/gcc/pic32mx/3.4.4/../../../../pic32mx/lib/libc.a(memcpy.o)
                                                  build/mega/production/startup.o
SPI2BRGSET                                        /Applications/microchip/mplabc32/v1.11a/bin/../lib/gcc/pic32mx/3.4.4/../../../../pic32mx/lib/./proc/32MX795F512L/processor.o
                                                  /Applications/microchip/mplabc32/v1.11a/bin/../lib/gcc/pic32mx/3.4.4/../../../../pic32mx/lib/libc.a(memcpy.o)
                                                  build/mega/production/startup.o
SPI2BUF                                           /Applications/microchip/mplabc32/v1.11a/bin/../lib/gcc/pic32mx/3.4.4/../../../../pic32mx/lib/./proc/32MX795F512L/processor.o
                                                  /Applications/microchip/mplabc32/v1.11a/bin/../lib/gcc/pic32mx/3.4.4/../../../../pic32mx/lib/libc.a(memcpy.o)
                                                  build/mega/production/startup.o
SPI2CON                                           /Applications/microchip/mplabc32/v1.11a/bin/../lib/gcc/pic32mx/3.4.4/../../../../pic32mx/lib/./proc/32MX795F512L/processor.o
                                                  /Applications/microchip/mplabc32/v1.11a/bin/../lib/gcc/pic32mx/3.4.4/../../../../pic32mx/lib/libc.a(memcpy.o)
                                                  build/mega/production/startup.o
SPI2CONCLR                                        /Applications/microchip/mplabc32/v1.11a/bin/../lib/gcc/pic32mx/3.4.4/../../../../pic32mx/lib/./proc/32MX795F512L/processor.o
                                                  /Applications/microchip/mplabc32/v1.11a/bin/../lib/gcc/pic32mx/3.4.4/../../../../pic32mx/lib/libc.a(memcpy.o)
                                                  build/mega/production/startup.o
SPI2CONINV                                        /Applications/microchip/mplabc32/v1.11a/bin/../lib/gcc/pic32mx/3.4.4/../../../../pic32mx/lib/./proc/32MX795F512L/processor.o
                                                  /Applications/microchip/mplabc32/v1.11a/bin/../lib/gcc/pic32mx/3.4.4/../../../../pic32mx/lib/libc.a(memcpy.o)
                                                  build/mega/production/startup.o
SPI2CONSET                                        /Applications/microchip/mplabc32/v1.11a/bin/../lib/gcc/pic32mx/3.4.4/../../../../pic32mx/lib/./proc/32MX795F512L/processor.o
                                                  /Applications/microchip/mplabc32/v1.11a/bin/../lib/gcc/pic32mx/3.4.4/../../../../pic32mx/lib/libc.a(memcpy.o)
                                                  build/mega/production/startup.o
SPI2STAT                                          /Applications/microchip/mplabc32/v1.11a/bin/../lib/gcc/pic32mx/3.4.4/../../../../pic32mx/lib/./proc/32MX795F512L/processor.o
                                                  /Applications/microchip/mplabc32/v1.11a/bin/../lib/gcc/pic32mx/3.4.4/../../../../pic32mx/lib/libc.a(memcpy.o)
                                                  build/mega/production/startup.o
SPI2STATCLR                                       /Applications/microchip/mplabc32/v1.11a/bin/../lib/gcc/pic32mx/3.4.4/../../../../pic32mx/lib/./proc/32MX795F512L/processor.o
                                                  /Applications/microchip/mplabc32/v1.11a/bin/../lib/gcc/pic32mx/3.4.4/../../../../pic32mx/lib/libc.a(memcpy.o)
                                                  build/mega/production/startup.o
SPI2STATINV                                       /Applications/microchip/mplabc32/v1.11a/bin/../lib/gcc/pic32mx/3.4.4/../../../../pic32mx/lib/./proc/32MX795F512L/processor.o
                                                  /Applications/microchip/mplabc32/v1.11a/bin/../lib/gcc/pic32mx/3.4.4/../../../../pic32mx/lib/libc.a(memcpy.o)
                                                  build/mega/production/startup.o
SPI2STATSET                                       /Applications/microchip/mplabc32/v1.11a/bin/../lib/gcc/pic32mx/3.4.4/../../../../pic32mx/lib/./proc/32MX795F512L/processor.o
                                                  /Applications/microchip/mplabc32/v1.11a/bin/../lib/gcc/pic32mx/3.4.4/../../../../pic32mx/lib/libc.a(memcpy.o)
                                                  build/mega/production/startup.o
SPI3ABRG                                          /Applications/microchip/mplabc32/v1.11a/bin/../lib/gcc/pic32mx/3.4.4/../../../../pic32mx/lib/./proc/32MX795F512L/processor.o
                                                  build/mega/production/startup.o
SPI3ABRGCLR                                       /Applications/microchip/mplabc32/v1.11a/bin/../lib/gcc/pic32mx/3.4.4/../../../../pic32mx/lib/./proc/32MX795F512L/processor.o
                                                  build/mega/production/startup.o
SPI3ABRGINV                                       /Applications/microchip/mplabc32/v1.11a/bin/../lib/gcc/pic32mx/3.4.4/../../../../pic32mx/lib/./proc/32MX795F512L/processor.o
                                                  build/mega/production/startup.o
SPI3ABRGSET                                       /Applications/microchip/mplabc32/v1.11a/bin/../lib/gcc/pic32mx/3.4.4/../../../../pic32mx/lib/./proc/32MX795F512L/processor.o
                                                  build/mega/production/startup.o
SPI3ABUF                                          /Applications/microchip/mplabc32/v1.11a/bin/../lib/gcc/pic32mx/3.4.4/../../../../pic32mx/lib/./proc/32MX795F512L/processor.o
                                                  build/mega/production/startup.o
SPI3ACON                                          /Applications/microchip/mplabc32/v1.11a/bin/../lib/gcc/pic32mx/3.4.4/../../../../pic32mx/lib/./proc/32MX795F512L/processor.o
                                                  build/mega/production/startup.o
SPI3ACONCLR                                       /Applications/microchip/mplabc32/v1.11a/bin/../lib/gcc/pic32mx/3.4.4/../../../../pic32mx/lib/./proc/32MX795F512L/processor.o
                                                  build/mega/production/startup.o
SPI3ACONINV                                       /Applications/microchip/mplabc32/v1.11a/bin/../lib/gcc/pic32mx/3.4.4/../../../../pic32mx/lib/./proc/32MX795F512L/processor.o
                                                  build/mega/production/startup.o
SPI3ACONSET                                       /Applications/microchip/mplabc32/v1.11a/bin/../lib/gcc/pic32mx/3.4.4/../../../../pic32mx/lib/./proc/32MX795F512L/processor.o
                                                  build/mega/production/startup.o
SPI3ASTAT                                         /Applications/microchip/mplabc32/v1.11a/bin/../lib/gcc/pic32mx/3.4.4/../../../../pic32mx/lib/./proc/32MX795F512L/processor.o
                                                  build/mega/production/startup.o
SPI3ASTATCLR                                      /Applications/microchip/mplabc32/v1.11a/bin/../lib/gcc/pic32mx/3.4.4/../../../../pic32mx/lib/./proc/32MX795F512L/processor.o
                                                  build/mega/production/startup.o
SPI3ASTATINV                                      /Applications/microchip/mplabc32/v1.11a/bin/../lib/gcc/pic32mx/3.4.4/../../../../pic32mx/lib/./proc/32MX795F512L/processor.o
                                                  build/mega/production/startup.o
SPI3ASTATSET                                      /Applications/microchip/mplabc32/v1.11a/bin/../lib/gcc/pic32mx/3.4.4/../../../../pic32mx/lib/./proc/32MX795F512L/processor.o
                                                  build/mega/production/startup.o
SYSKEY                                            /Applications/microchip/mplabc32/v1.11a/bin/../lib/gcc/pic32mx/3.4.4/../../../../pic32mx/lib/./proc/32MX795F512L/processor.o
                                                  /Applications/microchip/mplabc32/v1.11a/bin/../lib/gcc/pic32mx/3.4.4/../../../../pic32mx/lib/libc.a(memcpy.o)
                                                  build/mega/production/pic32bootloader.o
                                                  build/mega/production/startup.o
T1CON                                             /Applications/microchip/mplabc32/v1.11a/bin/../lib/gcc/pic32mx/3.4.4/../../../../pic32mx/lib/./proc/32MX795F512L/processor.o
                                                  /Applications/microchip/mplabc32/v1.11a/bin/../lib/gcc/pic32mx/3.4.4/../../../../pic32mx/lib/libc.a(memcpy.o)
                                                  build/mega/production/startup.o
T1CONCLR                                          /Applications/microchip/mplabc32/v1.11a/bin/../lib/gcc/pic32mx/3.4.4/../../../../pic32mx/lib/./proc/32MX795F512L/processor.o
                                                  /Applications/microchip/mplabc32/v1.11a/bin/../lib/gcc/pic32mx/3.4.4/../../../../pic32mx/lib/libc.a(memcpy.o)
                                                  build/mega/production/startup.o
T1CONINV                                          /Applications/microchip/mplabc32/v1.11a/bin/../lib/gcc/pic32mx/3.4.4/../../../../pic32mx/lib/./proc/32MX795F512L/processor.o
                                                  /Applications/microchip/mplabc32/v1.11a/bin/../lib/gcc/pic32mx/3.4.4/../../../../pic32mx/lib/libc.a(memcpy.o)
                                                  build/mega/production/startup.o
T1CONSET                                          /Applications/microchip/mplabc32/v1.11a/bin/../lib/gcc/pic32mx/3.4.4/../../../../pic32mx/lib/./proc/32MX795F512L/processor.o
                                                  /Applications/microchip/mplabc32/v1.11a/bin/../lib/gcc/pic32mx/3.4.4/../../../../pic32mx/lib/libc.a(memcpy.o)
                                                  build/mega/production/startup.o
T2CON                                             /Applications/microchip/mplabc32/v1.11a/bin/../lib/gcc/pic32mx/3.4.4/../../../../pic32mx/lib/./proc/32MX795F512L/processor.o
                                                  /Applications/microchip/mplabc32/v1.11a/bin/../lib/gcc/pic32mx/3.4.4/../../../../pic32mx/lib/libc.a(memcpy.o)
                                                  build/mega/production/startup.o
T2CONCLR                                          /Applications/microchip/mplabc32/v1.11a/bin/../lib/gcc/pic32mx/3.4.4/../../../../pic32mx/lib/./proc/32MX795F512L/processor.o
                                                  /Applications/microchip/mplabc32/v1.11a/bin/../lib/gcc/pic32mx/3.4.4/../../../../pic32mx/lib/libc.a(memcpy.o)
                                                  build/mega/production/startup.o
T2CONINV                                          /Applications/microchip/mplabc32/v1.11a/bin/../lib/gcc/pic32mx/3.4.4/../../../../pic32mx/lib/./proc/32MX795F512L/processor.o
                                                  /Applications/microchip/mplabc32/v1.11a/bin/../lib/gcc/pic32mx/3.4.4/../../../../pic32mx/lib/libc.a(memcpy.o)
                                                  build/mega/production/startup.o
T2CONSET                                          /Applications/microchip/mplabc32/v1.11a/bin/../lib/gcc/pic32mx/3.4.4/../../../../pic32mx/lib/./proc/32MX795F512L/processor.o
                                                  /Applications/microchip/mplabc32/v1.11a/bin/../lib/gcc/pic32mx/3.4.4/../../../../pic32mx/lib/libc.a(memcpy.o)
                                                  build/mega/production/startup.o
T3CON                                             /Applications/microchip/mplabc32/v1.11a/bin/../lib/gcc/pic32mx/3.4.4/../../../../pic32mx/lib/./proc/32MX795F512L/processor.o
                                                  /Applications/microchip/mplabc32/v1.11a/bin/../lib/gcc/pic32mx/3.4.4/../../../../pic32mx/lib/libc.a(memcpy.o)
                                                  build/mega/production/startup.o
T3CONCLR                                          /Applications/microchip/mplabc32/v1.11a/bin/../lib/gcc/pic32mx/3.4.4/../../../../pic32mx/lib/./proc/32MX795F512L/processor.o
                                                  /Applications/microchip/mplabc32/v1.11a/bin/../lib/gcc/pic32mx/3.4.4/../../../../pic32mx/lib/libc.a(memcpy.o)
                                                  build/mega/production/startup.o
T3CONINV                                          /Applications/microchip/mplabc32/v1.11a/bin/../lib/gcc/pic32mx/3.4.4/../../../../pic32mx/lib/./proc/32MX795F512L/processor.o
                                                  /Applications/microchip/mplabc32/v1.11a/bin/../lib/gcc/pic32mx/3.4.4/../../../../pic32mx/lib/libc.a(memcpy.o)
                                                  build/mega/production/startup.o
T3CONSET                                          /Applications/microchip/mplabc32/v1.11a/bin/../lib/gcc/pic32mx/3.4.4/../../../../pic32mx/lib/./proc/32MX795F512L/processor.o
                                                  /Applications/microchip/mplabc32/v1.11a/bin/../lib/gcc/pic32mx/3.4.4/../../../../pic32mx/lib/libc.a(memcpy.o)
                                                  build/mega/production/startup.o
T4CON                                             /Applications/microchip/mplabc32/v1.11a/bin/../lib/gcc/pic32mx/3.4.4/../../../../pic32mx/lib/./proc/32MX795F512L/processor.o
                                                  /Applications/microchip/mplabc32/v1.11a/bin/../lib/gcc/pic32mx/3.4.4/../../../../pic32mx/lib/libc.a(memcpy.o)
                                                  build/mega/production/startup.o
T4CONCLR                                          /Applications/microchip/mplabc32/v1.11a/bin/../lib/gcc/pic32mx/3.4.4/../../../../pic32mx/lib/./proc/32MX795F512L/processor.o
                                                  /Applications/microchip/mplabc32/v1.11a/bin/../lib/gcc/pic32mx/3.4.4/../../../../pic32mx/lib/libc.a(memcpy.o)
                                                  build/mega/production/startup.o
T4CONINV                                          /Applications/microchip/mplabc32/v1.11a/bin/../lib/gcc/pic32mx/3.4.4/../../../../pic32mx/lib/./proc/32MX795F512L/processor.o
                                                  /Applications/microchip/mplabc32/v1.11a/bin/../lib/gcc/pic32mx/3.4.4/../../../../pic32mx/lib/libc.a(memcpy.o)
                                                  build/mega/production/startup.o
T4CONSET                                          /Applications/microchip/mplabc32/v1.11a/bin/../lib/gcc/pic32mx/3.4.4/../../../../pic32mx/lib/./proc/32MX795F512L/processor.o
                                                  /Applications/microchip/mplabc32/v1.11a/bin/../lib/gcc/pic32mx/3.4.4/../../../../pic32mx/lib/libc.a(memcpy.o)
                                                  build/mega/production/startup.o
T5CON                                             /Applications/microchip/mplabc32/v1.11a/bin/../lib/gcc/pic32mx/3.4.4/../../../../pic32mx/lib/./proc/32MX795F512L/processor.o
                                                  /Applications/microchip/mplabc32/v1.11a/bin/../lib/gcc/pic32mx/3.4.4/../../../../pic32mx/lib/libc.a(memcpy.o)
                                                  build/mega/production/startup.o
T5CONCLR                                          /Applications/microchip/mplabc32/v1.11a/bin/../lib/gcc/pic32mx/3.4.4/../../../../pic32mx/lib/./proc/32MX795F512L/processor.o
                                                  /Applications/microchip/mplabc32/v1.11a/bin/../lib/gcc/pic32mx/3.4.4/../../../../pic32mx/lib/libc.a(memcpy.o)
                                                  build/mega/production/startup.o
T5CONINV                                          /Applications/microchip/mplabc32/v1.11a/bin/../lib/gcc/pic32mx/3.4.4/../../../../pic32mx/lib/./proc/32MX795F512L/processor.o
                                                  /Applications/microchip/mplabc32/v1.11a/bin/../lib/gcc/pic32mx/3.4.4/../../../../pic32mx/lib/libc.a(memcpy.o)
                                                  build/mega/production/startup.o
T5CONSET                                          /Applications/microchip/mplabc32/v1.11a/bin/../lib/gcc/pic32mx/3.4.4/../../../../pic32mx/lib/./proc/32MX795F512L/processor.o
                                                  /Applications/microchip/mplabc32/v1.11a/bin/../lib/gcc/pic32mx/3.4.4/../../../../pic32mx/lib/libc.a(memcpy.o)
                                                  build/mega/production/startup.o
TMR1                                              /Applications/microchip/mplabc32/v1.11a/bin/../lib/gcc/pic32mx/3.4.4/../../../../pic32mx/lib/./proc/32MX795F512L/processor.o
                                                  /Applications/microchip/mplabc32/v1.11a/bin/../lib/gcc/pic32mx/3.4.4/../../../../pic32mx/lib/libc.a(memcpy.o)
                                                  build/mega/production/startup.o
TMR1CLR                                           /Applications/microchip/mplabc32/v1.11a/bin/../lib/gcc/pic32mx/3.4.4/../../../../pic32mx/lib/./proc/32MX795F512L/processor.o
                                                  /Applications/microchip/mplabc32/v1.11a/bin/../lib/gcc/pic32mx/3.4.4/../../../../pic32mx/lib/libc.a(memcpy.o)
                                                  build/mega/production/startup.o
TMR1INV                                           /Applications/microchip/mplabc32/v1.11a/bin/../lib/gcc/pic32mx/3.4.4/../../../../pic32mx/lib/./proc/32MX795F512L/processor.o
                                                  /Applications/microchip/mplabc32/v1.11a/bin/../lib/gcc/pic32mx/3.4.4/../../../../pic32mx/lib/libc.a(memcpy.o)
                                                  build/mega/production/startup.o
TMR1SET                                           /Applications/microchip/mplabc32/v1.11a/bin/../lib/gcc/pic32mx/3.4.4/../../../../pic32mx/lib/./proc/32MX795F512L/processor.o
                                                  /Applications/microchip/mplabc32/v1.11a/bin/../lib/gcc/pic32mx/3.4.4/../../../../pic32mx/lib/libc.a(memcpy.o)
                                                  build/mega/production/startup.o
TMR2                                              /Applications/microchip/mplabc32/v1.11a/bin/../lib/gcc/pic32mx/3.4.4/../../../../pic32mx/lib/./proc/32MX795F512L/processor.o
                                                  /Applications/microchip/mplabc32/v1.11a/bin/../lib/gcc/pic32mx/3.4.4/../../../../pic32mx/lib/libc.a(memcpy.o)
                                                  build/mega/production/startup.o
TMR23                                             /Applications/microchip/mplabc32/v1.11a/bin/../lib/gcc/pic32mx/3.4.4/../../../../pic32mx/lib/./proc/32MX795F512L/processor.o
                                                  /Applications/microchip/mplabc32/v1.11a/bin/../lib/gcc/pic32mx/3.4.4/../../../../pic32mx/lib/libc.a(memcpy.o)
                                                  build/mega/production/startup.o
TMR2CLR                                           /Applications/microchip/mplabc32/v1.11a/bin/../lib/gcc/pic32mx/3.4.4/../../../../pic32mx/lib/./proc/32MX795F512L/processor.o
                                                  /Applications/microchip/mplabc32/v1.11a/bin/../lib/gcc/pic32mx/3.4.4/../../../../pic32mx/lib/libc.a(memcpy.o)
                                                  build/mega/production/startup.o
TMR2INV                                           /Applications/microchip/mplabc32/v1.11a/bin/../lib/gcc/pic32mx/3.4.4/../../../../pic32mx/lib/./proc/32MX795F512L/processor.o
                                                  /Applications/microchip/mplabc32/v1.11a/bin/../lib/gcc/pic32mx/3.4.4/../../../../pic32mx/lib/libc.a(memcpy.o)
                                                  build/mega/production/startup.o
TMR2SET                                           /Applications/microchip/mplabc32/v1.11a/bin/../lib/gcc/pic32mx/3.4.4/../../../../pic32mx/lib/./proc/32MX795F512L/processor.o
                                                  /Applications/microchip/mplabc32/v1.11a/bin/../lib/gcc/pic32mx/3.4.4/../../../../pic32mx/lib/libc.a(memcpy.o)
                                                  build/mega/production/startup.o
TMR3                                              /Applications/microchip/mplabc32/v1.11a/bin/../lib/gcc/pic32mx/3.4.4/../../../../pic32mx/lib/./proc/32MX795F512L/processor.o
                                                  /Applications/microchip/mplabc32/v1.11a/bin/../lib/gcc/pic32mx/3.4.4/../../../../pic32mx/lib/libc.a(memcpy.o)
                                                  build/mega/production/startup.o
TMR3CLR                                           /Applications/microchip/mplabc32/v1.11a/bin/../lib/gcc/pic32mx/3.4.4/../../../../pic32mx/lib/./proc/32MX795F512L/processor.o
                                                  /Applications/microchip/mplabc32/v1.11a/bin/../lib/gcc/pic32mx/3.4.4/../../../../pic32mx/lib/libc.a(memcpy.o)
                                                  build/mega/production/startup.o
TMR3INV                                           /Applications/microchip/mplabc32/v1.11a/bin/../lib/gcc/pic32mx/3.4.4/../../../../pic32mx/lib/./proc/32MX795F512L/processor.o
                                                  /Applications/microchip/mplabc32/v1.11a/bin/../lib/gcc/pic32mx/3.4.4/../../../../pic32mx/lib/libc.a(memcpy.o)
                                                  build/mega/production/startup.o
TMR3SET                                           /Applications/microchip/mplabc32/v1.11a/bin/../lib/gcc/pic32mx/3.4.4/../../../../pic32mx/lib/./proc/32MX795F512L/processor.o
                                                  /Applications/microchip/mplabc32/v1.11a/bin/../lib/gcc/pic32mx/3.4.4/../../../../pic32mx/lib/libc.a(memcpy.o)
                                                  build/mega/production/startup.o
TMR4                                              /Applications/microchip/mplabc32/v1.11a/bin/../lib/gcc/pic32mx/3.4.4/../../../../pic32mx/lib/./proc/32MX795F512L/processor.o
                                                  /Applications/microchip/mplabc32/v1.11a/bin/../lib/gcc/pic32mx/3.4.4/../../../../pic32mx/lib/libc.a(memcpy.o)
                                                  build/mega/production/startup.o
TMR45                                             /Applications/microchip/mplabc32/v1.11a/bin/../lib/gcc/pic32mx/3.4.4/../../../../pic32mx/lib/./proc/32MX795F512L/processor.o
                                                  /Applications/microchip/mplabc32/v1.11a/bin/../lib/gcc/pic32mx/3.4.4/../../../../pic32mx/lib/libc.a(memcpy.o)
                                                  build/mega/production/startup.o
TMR4CLR                                           /Applications/microchip/mplabc32/v1.11a/bin/../lib/gcc/pic32mx/3.4.4/../../../../pic32mx/lib/./proc/32MX795F512L/processor.o
                                                  /Applications/microchip/mplabc32/v1.11a/bin/../lib/gcc/pic32mx/3.4.4/../../../../pic32mx/lib/libc.a(memcpy.o)
                                                  build/mega/production/startup.o
TMR4INV                                           /Applications/microchip/mplabc32/v1.11a/bin/../lib/gcc/pic32mx/3.4.4/../../../../pic32mx/lib/./proc/32MX795F512L/processor.o
                                                  /Applications/microchip/mplabc32/v1.11a/bin/../lib/gcc/pic32mx/3.4.4/../../../../pic32mx/lib/libc.a(memcpy.o)
                                                  build/mega/production/startup.o
TMR4SET                                           /Applications/microchip/mplabc32/v1.11a/bin/../lib/gcc/pic32mx/3.4.4/../../../../pic32mx/lib/./proc/32MX795F512L/processor.o
                                                  /Applications/microchip/mplabc32/v1.11a/bin/../lib/gcc/pic32mx/3.4.4/../../../../pic32mx/lib/libc.a(memcpy.o)
                                                  build/mega/production/startup.o
TMR5                                              /Applications/microchip/mplabc32/v1.11a/bin/../lib/gcc/pic32mx/3.4.4/../../../../pic32mx/lib/./proc/32MX795F512L/processor.o
                                                  /Applications/microchip/mplabc32/v1.11a/bin/../lib/gcc/pic32mx/3.4.4/../../../../pic32mx/lib/libc.a(memcpy.o)
                                                  build/mega/production/startup.o
TMR5CLR                                           /Applications/microchip/mplabc32/v1.11a/bin/../lib/gcc/pic32mx/3.4.4/../../../../pic32mx/lib/./proc/32MX795F512L/processor.o
                                                  /Applications/microchip/mplabc32/v1.11a/bin/../lib/gcc/pic32mx/3.4.4/../../../../pic32mx/lib/libc.a(memcpy.o)
                                                  build/mega/production/startup.o
TMR5INV                                           /Applications/microchip/mplabc32/v1.11a/bin/../lib/gcc/pic32mx/3.4.4/../../../../pic32mx/lib/./proc/32MX795F512L/processor.o
                                                  /Applications/microchip/mplabc32/v1.11a/bin/../lib/gcc/pic32mx/3.4.4/../../../../pic32mx/lib/libc.a(memcpy.o)
                                                  build/mega/production/startup.o
TMR5SET                                           /Applications/microchip/mplabc32/v1.11a/bin/../lib/gcc/pic32mx/3.4.4/../../../../pic32mx/lib/./proc/32MX795F512L/processor.o
                                                  /Applications/microchip/mplabc32/v1.11a/bin/../lib/gcc/pic32mx/3.4.4/../../../../pic32mx/lib/libc.a(memcpy.o)
                                                  build/mega/production/startup.o
TRISA                                             /Applications/microchip/mplabc32/v1.11a/bin/../lib/gcc/pic32mx/3.4.4/../../../../pic32mx/lib/./proc/32MX795F512L/processor.o
                                                  /Applications/microchip/mplabc32/v1.11a/bin/../lib/gcc/pic32mx/3.4.4/../../../../pic32mx/lib/libc.a(memcpy.o)
                                                  build/mega/production/startup.o
TRISACLR                                          /Applications/microchip/mplabc32/v1.11a/bin/../lib/gcc/pic32mx/3.4.4/../../../../pic32mx/lib/./proc/32MX795F512L/processor.o
                                                  /Applications/microchip/mplabc32/v1.11a/bin/../lib/gcc/pic32mx/3.4.4/../../../../pic32mx/lib/libc.a(memcpy.o)
                                                  build/mega/production/pic32bootloader.o
                                                  build/mega/production/startup.o
TRISAINV                                          /Applications/microchip/mplabc32/v1.11a/bin/../lib/gcc/pic32mx/3.4.4/../../../../pic32mx/lib/./proc/32MX795F512L/processor.o
                                                  /Applications/microchip/mplabc32/v1.11a/bin/../lib/gcc/pic32mx/3.4.4/../../../../pic32mx/lib/libc.a(memcpy.o)
                                                  build/mega/production/startup.o
TRISASET                                          /Applications/microchip/mplabc32/v1.11a/bin/../lib/gcc/pic32mx/3.4.4/../../../../pic32mx/lib/./proc/32MX795F512L/processor.o
                                                  /Applications/microchip/mplabc32/v1.11a/bin/../lib/gcc/pic32mx/3.4.4/../../../../pic32mx/lib/libc.a(memcpy.o)
                                                  build/mega/production/startup.o
TRISB                                             /Applications/microchip/mplabc32/v1.11a/bin/../lib/gcc/pic32mx/3.4.4/../../../../pic32mx/lib/./proc/32MX795F512L/processor.o
                                                  /Applications/microchip/mplabc32/v1.11a/bin/../lib/gcc/pic32mx/3.4.4/../../../../pic32mx/lib/libc.a(memcpy.o)
                                                  build/mega/production/startup.o
TRISBCLR                                          /Applications/microchip/mplabc32/v1.11a/bin/../lib/gcc/pic32mx/3.4.4/../../../../pic32mx/lib/./proc/32MX795F512L/processor.o
                                                  /Applications/microchip/mplabc32/v1.11a/bin/../lib/gcc/pic32mx/3.4.4/../../../../pic32mx/lib/libc.a(memcpy.o)
                                                  build/mega/production/startup.o
TRISBINV                                          /Applications/microchip/mplabc32/v1.11a/bin/../lib/gcc/pic32mx/3.4.4/../../../../pic32mx/lib/./proc/32MX795F512L/processor.o
                                                  /Applications/microchip/mplabc32/v1.11a/bin/../lib/gcc/pic32mx/3.4.4/../../../../pic32mx/lib/libc.a(memcpy.o)
                                                  build/mega/production/startup.o
TRISBSET                                          /Applications/microchip/mplabc32/v1.11a/bin/../lib/gcc/pic32mx/3.4.4/../../../../pic32mx/lib/./proc/32MX795F512L/processor.o
                                                  /Applications/microchip/mplabc32/v1.11a/bin/../lib/gcc/pic32mx/3.4.4/../../../../pic32mx/lib/libc.a(memcpy.o)
                                                  build/mega/production/startup.o
TRISC                                             /Applications/microchip/mplabc32/v1.11a/bin/../lib/gcc/pic32mx/3.4.4/../../../../pic32mx/lib/./proc/32MX795F512L/processor.o
                                                  /Applications/microchip/mplabc32/v1.11a/bin/../lib/gcc/pic32mx/3.4.4/../../../../pic32mx/lib/libc.a(memcpy.o)
                                                  build/mega/production/startup.o
TRISCCLR                                          /Applications/microchip/mplabc32/v1.11a/bin/../lib/gcc/pic32mx/3.4.4/../../../../pic32mx/lib/./proc/32MX795F512L/processor.o
                                                  /Applications/microchip/mplabc32/v1.11a/bin/../lib/gcc/pic32mx/3.4.4/../../../../pic32mx/lib/libc.a(memcpy.o)
                                                  build/mega/production/startup.o
TRISCINV                                          /Applications/microchip/mplabc32/v1.11a/bin/../lib/gcc/pic32mx/3.4.4/../../../../pic32mx/lib/./proc/32MX795F512L/processor.o
                                                  /Applications/microchip/mplabc32/v1.11a/bin/../lib/gcc/pic32mx/3.4.4/../../../../pic32mx/lib/libc.a(memcpy.o)
                                                  build/mega/production/startup.o
TRISCSET                                          /Applications/microchip/mplabc32/v1.11a/bin/../lib/gcc/pic32mx/3.4.4/../../../../pic32mx/lib/./proc/32MX795F512L/processor.o
                                                  /Applications/microchip/mplabc32/v1.11a/bin/../lib/gcc/pic32mx/3.4.4/../../../../pic32mx/lib/libc.a(memcpy.o)
                                                  build/mega/production/startup.o
TRISD                                             /Applications/microchip/mplabc32/v1.11a/bin/../lib/gcc/pic32mx/3.4.4/../../../../pic32mx/lib/./proc/32MX795F512L/processor.o
                                                  /Applications/microchip/mplabc32/v1.11a/bin/../lib/gcc/pic32mx/3.4.4/../../../../pic32mx/lib/libc.a(memcpy.o)
                                                  build/mega/production/startup.o
TRISDCLR                                          /Applications/microchip/mplabc32/v1.11a/bin/../lib/gcc/pic32mx/3.4.4/../../../../pic32mx/lib/./proc/32MX795F512L/processor.o
                                                  /Applications/microchip/mplabc32/v1.11a/bin/../lib/gcc/pic32mx/3.4.4/../../../../pic32mx/lib/libc.a(memcpy.o)
                                                  build/mega/production/startup.o
TRISDINV                                          /Applications/microchip/mplabc32/v1.11a/bin/../lib/gcc/pic32mx/3.4.4/../../../../pic32mx/lib/./proc/32MX795F512L/processor.o
                                                  /Applications/microchip/mplabc32/v1.11a/bin/../lib/gcc/pic32mx/3.4.4/../../../../pic32mx/lib/libc.a(memcpy.o)
                                                  build/mega/production/startup.o
TRISDSET                                          /Applications/microchip/mplabc32/v1.11a/bin/../lib/gcc/pic32mx/3.4.4/../../../../pic32mx/lib/./proc/32MX795F512L/processor.o
                                                  /Applications/microchip/mplabc32/v1.11a/bin/../lib/gcc/pic32mx/3.4.4/../../../../pic32mx/lib/libc.a(memcpy.o)
                                                  build/mega/production/startup.o
TRISE                                             /Applications/microchip/mplabc32/v1.11a/bin/../lib/gcc/pic32mx/3.4.4/../../../../pic32mx/lib/./proc/32MX795F512L/processor.o
                                                  /Applications/microchip/mplabc32/v1.11a/bin/../lib/gcc/pic32mx/3.4.4/../../../../pic32mx/lib/libc.a(memcpy.o)
                                                  build/mega/production/startup.o
TRISECLR                                          /Applications/microchip/mplabc32/v1.11a/bin/../lib/gcc/pic32mx/3.4.4/../../../../pic32mx/lib/./proc/32MX795F512L/processor.o
                                                  /Applications/microchip/mplabc32/v1.11a/bin/../lib/gcc/pic32mx/3.4.4/../../../../pic32mx/lib/libc.a(memcpy.o)
                                                  build/mega/production/startup.o
TRISEINV                                          /Applications/microchip/mplabc32/v1.11a/bin/../lib/gcc/pic32mx/3.4.4/../../../../pic32mx/lib/./proc/32MX795F512L/processor.o
                                                  /Applications/microchip/mplabc32/v1.11a/bin/../lib/gcc/pic32mx/3.4.4/../../../../pic32mx/lib/libc.a(memcpy.o)
                                                  build/mega/production/startup.o
TRISESET                                          /Applications/microchip/mplabc32/v1.11a/bin/../lib/gcc/pic32mx/3.4.4/../../../../pic32mx/lib/./proc/32MX795F512L/processor.o
                                                  /Applications/microchip/mplabc32/v1.11a/bin/../lib/gcc/pic32mx/3.4.4/../../../../pic32mx/lib/libc.a(memcpy.o)
                                                  build/mega/production/startup.o
TRISF                                             /Applications/microchip/mplabc32/v1.11a/bin/../lib/gcc/pic32mx/3.4.4/../../../../pic32mx/lib/./proc/32MX795F512L/processor.o
                                                  /Applications/microchip/mplabc32/v1.11a/bin/../lib/gcc/pic32mx/3.4.4/../../../../pic32mx/lib/libc.a(memcpy.o)
                                                  build/mega/production/startup.o
TRISFCLR                                          /Applications/microchip/mplabc32/v1.11a/bin/../lib/gcc/pic32mx/3.4.4/../../../../pic32mx/lib/./proc/32MX795F512L/processor.o
                                                  /Applications/microchip/mplabc32/v1.11a/bin/../lib/gcc/pic32mx/3.4.4/../../../../pic32mx/lib/libc.a(memcpy.o)
                                                  build/mega/production/startup.o
TRISFINV                                          /Applications/microchip/mplabc32/v1.11a/bin/../lib/gcc/pic32mx/3.4.4/../../../../pic32mx/lib/./proc/32MX795F512L/processor.o
                                                  /Applications/microchip/mplabc32/v1.11a/bin/../lib/gcc/pic32mx/3.4.4/../../../../pic32mx/lib/libc.a(memcpy.o)
                                                  build/mega/production/startup.o
TRISFSET                                          /Applications/microchip/mplabc32/v1.11a/bin/../lib/gcc/pic32mx/3.4.4/../../../../pic32mx/lib/./proc/32MX795F512L/processor.o
                                                  /Applications/microchip/mplabc32/v1.11a/bin/../lib/gcc/pic32mx/3.4.4/../../../../pic32mx/lib/libc.a(memcpy.o)
                                                  build/mega/production/startup.o
TRISG                                             /Applications/microchip/mplabc32/v1.11a/bin/../lib/gcc/pic32mx/3.4.4/../../../../pic32mx/lib/./proc/32MX795F512L/processor.o
                                                  /Applications/microchip/mplabc32/v1.11a/bin/../lib/gcc/pic32mx/3.4.4/../../../../pic32mx/lib/libc.a(memcpy.o)
                                                  build/mega/production/startup.o
TRISGCLR                                          /Applications/microchip/mplabc32/v1.11a/bin/../lib/gcc/pic32mx/3.4.4/../../../../pic32mx/lib/./proc/32MX795F512L/processor.o
                                                  /Applications/microchip/mplabc32/v1.11a/bin/../lib/gcc/pic32mx/3.4.4/../../../../pic32mx/lib/libc.a(memcpy.o)
                                                  build/mega/production/startup.o
TRISGINV                                          /Applications/microchip/mplabc32/v1.11a/bin/../lib/gcc/pic32mx/3.4.4/../../../../pic32mx/lib/./proc/32MX795F512L/processor.o
                                                  /Applications/microchip/mplabc32/v1.11a/bin/../lib/gcc/pic32mx/3.4.4/../../../../pic32mx/lib/libc.a(memcpy.o)
                                                  build/mega/production/startup.o
TRISGSET                                          /Applications/microchip/mplabc32/v1.11a/bin/../lib/gcc/pic32mx/3.4.4/../../../../pic32mx/lib/./proc/32MX795F512L/processor.o
                                                  /Applications/microchip/mplabc32/v1.11a/bin/../lib/gcc/pic32mx/3.4.4/../../../../pic32mx/lib/libc.a(memcpy.o)
                                                  build/mega/production/startup.o
U1ABRG                                            /Applications/microchip/mplabc32/v1.11a/bin/../lib/gcc/pic32mx/3.4.4/../../../../pic32mx/lib/./proc/32MX795F512L/processor.o
                                                  build/mega/production/startup.o
U1ABRGCLR                                         /Applications/microchip/mplabc32/v1.11a/bin/../lib/gcc/pic32mx/3.4.4/../../../../pic32mx/lib/./proc/32MX795F512L/processor.o
                                                  build/mega/production/startup.o
U1ABRGINV                                         /Applications/microchip/mplabc32/v1.11a/bin/../lib/gcc/pic32mx/3.4.4/../../../../pic32mx/lib/./proc/32MX795F512L/processor.o
                                                  build/mega/production/startup.o
U1ABRGSET                                         /Applications/microchip/mplabc32/v1.11a/bin/../lib/gcc/pic32mx/3.4.4/../../../../pic32mx/lib/./proc/32MX795F512L/processor.o
                                                  build/mega/production/startup.o
U1ADDR                                            /Applications/microchip/mplabc32/v1.11a/bin/../lib/gcc/pic32mx/3.4.4/../../../../pic32mx/lib/./proc/32MX795F512L/processor.o
                                                  /Applications/microchip/mplabc32/v1.11a/bin/../lib/gcc/pic32mx/3.4.4/../../../../pic32mx/lib/libc.a(memcpy.o)
                                                  build/mega/production/startup.o
U1ADDRCLR                                         /Applications/microchip/mplabc32/v1.11a/bin/../lib/gcc/pic32mx/3.4.4/../../../../pic32mx/lib/./proc/32MX795F512L/processor.o
                                                  build/mega/production/startup.o
U1ADDRINV                                         /Applications/microchip/mplabc32/v1.11a/bin/../lib/gcc/pic32mx/3.4.4/../../../../pic32mx/lib/./proc/32MX795F512L/processor.o
                                                  build/mega/production/startup.o
U1ADDRSET                                         /Applications/microchip/mplabc32/v1.11a/bin/../lib/gcc/pic32mx/3.4.4/../../../../pic32mx/lib/./proc/32MX795F512L/processor.o
                                                  build/mega/production/startup.o
U1AMODE                                           /Applications/microchip/mplabc32/v1.11a/bin/../lib/gcc/pic32mx/3.4.4/../../../../pic32mx/lib/./proc/32MX795F512L/processor.o
                                                  build/mega/production/startup.o
U1AMODECLR                                        /Applications/microchip/mplabc32/v1.11a/bin/../lib/gcc/pic32mx/3.4.4/../../../../pic32mx/lib/./proc/32MX795F512L/processor.o
                                                  build/mega/production/startup.o
U1AMODEINV                                        /Applications/microchip/mplabc32/v1.11a/bin/../lib/gcc/pic32mx/3.4.4/../../../../pic32mx/lib/./proc/32MX795F512L/processor.o
                                                  build/mega/production/startup.o
U1AMODESET                                        /Applications/microchip/mplabc32/v1.11a/bin/../lib/gcc/pic32mx/3.4.4/../../../../pic32mx/lib/./proc/32MX795F512L/processor.o
                                                  build/mega/production/startup.o
U1ARXREG                                          /Applications/microchip/mplabc32/v1.11a/bin/../lib/gcc/pic32mx/3.4.4/../../../../pic32mx/lib/./proc/32MX795F512L/processor.o
                                                  build/mega/production/startup.o
U1ASTA                                            /Applications/microchip/mplabc32/v1.11a/bin/../lib/gcc/pic32mx/3.4.4/../../../../pic32mx/lib/./proc/32MX795F512L/processor.o
                                                  build/mega/production/startup.o
U1ASTACLR                                         /Applications/microchip/mplabc32/v1.11a/bin/../lib/gcc/pic32mx/3.4.4/../../../../pic32mx/lib/./proc/32MX795F512L/processor.o
                                                  build/mega/production/startup.o
U1ASTAINV                                         /Applications/microchip/mplabc32/v1.11a/bin/../lib/gcc/pic32mx/3.4.4/../../../../pic32mx/lib/./proc/32MX795F512L/processor.o
                                                  build/mega/production/startup.o
U1ASTASET                                         /Applications/microchip/mplabc32/v1.11a/bin/../lib/gcc/pic32mx/3.4.4/../../../../pic32mx/lib/./proc/32MX795F512L/processor.o
                                                  build/mega/production/startup.o
U1ATXREG                                          /Applications/microchip/mplabc32/v1.11a/bin/../lib/gcc/pic32mx/3.4.4/../../../../pic32mx/lib/./proc/32MX795F512L/processor.o
                                                  build/mega/production/startup.o
U1BBRG                                            /Applications/microchip/mplabc32/v1.11a/bin/../lib/gcc/pic32mx/3.4.4/../../../../pic32mx/lib/./proc/32MX795F512L/processor.o
                                                  build/mega/production/startup.o
U1BBRGCLR                                         /Applications/microchip/mplabc32/v1.11a/bin/../lib/gcc/pic32mx/3.4.4/../../../../pic32mx/lib/./proc/32MX795F512L/processor.o
                                                  build/mega/production/startup.o
U1BBRGINV                                         /Applications/microchip/mplabc32/v1.11a/bin/../lib/gcc/pic32mx/3.4.4/../../../../pic32mx/lib/./proc/32MX795F512L/processor.o
                                                  build/mega/production/startup.o
U1BBRGSET                                         /Applications/microchip/mplabc32/v1.11a/bin/../lib/gcc/pic32mx/3.4.4/../../../../pic32mx/lib/./proc/32MX795F512L/processor.o
                                                  build/mega/production/startup.o
U1BDTP1                                           /Applications/microchip/mplabc32/v1.11a/bin/../lib/gcc/pic32mx/3.4.4/../../../../pic32mx/lib/./proc/32MX795F512L/processor.o
                                                  /Applications/microchip/mplabc32/v1.11a/bin/../lib/gcc/pic32mx/3.4.4/../../../../pic32mx/lib/libc.a(memcpy.o)
                                                  build/mega/production/startup.o
U1BDTP1CLR                                        /Applications/microchip/mplabc32/v1.11a/bin/../lib/gcc/pic32mx/3.4.4/../../../../pic32mx/lib/./proc/32MX795F512L/processor.o
                                                  build/mega/production/startup.o
U1BDTP1INV                                        /Applications/microchip/mplabc32/v1.11a/bin/../lib/gcc/pic32mx/3.4.4/../../../../pic32mx/lib/./proc/32MX795F512L/processor.o
                                                  build/mega/production/startup.o
U1BDTP1SET                                        /Applications/microchip/mplabc32/v1.11a/bin/../lib/gcc/pic32mx/3.4.4/../../../../pic32mx/lib/./proc/32MX795F512L/processor.o
                                                  build/mega/production/startup.o
U1BDTP2                                           /Applications/microchip/mplabc32/v1.11a/bin/../lib/gcc/pic32mx/3.4.4/../../../../pic32mx/lib/./proc/32MX795F512L/processor.o
                                                  /Applications/microchip/mplabc32/v1.11a/bin/../lib/gcc/pic32mx/3.4.4/../../../../pic32mx/lib/libc.a(memcpy.o)
                                                  build/mega/production/startup.o
U1BDTP2CLR                                        /Applications/microchip/mplabc32/v1.11a/bin/../lib/gcc/pic32mx/3.4.4/../../../../pic32mx/lib/./proc/32MX795F512L/processor.o
                                                  build/mega/production/startup.o
U1BDTP2INV                                        /Applications/microchip/mplabc32/v1.11a/bin/../lib/gcc/pic32mx/3.4.4/../../../../pic32mx/lib/./proc/32MX795F512L/processor.o
                                                  build/mega/production/startup.o
U1BDTP2SET                                        /Applications/microchip/mplabc32/v1.11a/bin/../lib/gcc/pic32mx/3.4.4/../../../../pic32mx/lib/./proc/32MX795F512L/processor.o
                                                  build/mega/production/startup.o
U1BDTP3                                           /Applications/microchip/mplabc32/v1.11a/bin/../lib/gcc/pic32mx/3.4.4/../../../../pic32mx/lib/./proc/32MX795F512L/processor.o
                                                  /Applications/microchip/mplabc32/v1.11a/bin/../lib/gcc/pic32mx/3.4.4/../../../../pic32mx/lib/libc.a(memcpy.o)
                                                  build/mega/production/startup.o
U1BDTP3CLR                                        /Applications/microchip/mplabc32/v1.11a/bin/../lib/gcc/pic32mx/3.4.4/../../../../pic32mx/lib/./proc/32MX795F512L/processor.o
                                                  build/mega/production/startup.o
U1BDTP3INV                                        /Applications/microchip/mplabc32/v1.11a/bin/../lib/gcc/pic32mx/3.4.4/../../../../pic32mx/lib/./proc/32MX795F512L/processor.o
                                                  build/mega/production/startup.o
U1BDTP3SET                                        /Applications/microchip/mplabc32/v1.11a/bin/../lib/gcc/pic32mx/3.4.4/../../../../pic32mx/lib/./proc/32MX795F512L/processor.o
                                                  build/mega/production/startup.o
U1BMODE                                           /Applications/microchip/mplabc32/v1.11a/bin/../lib/gcc/pic32mx/3.4.4/../../../../pic32mx/lib/./proc/32MX795F512L/processor.o
                                                  build/mega/production/startup.o
U1BMODECLR                                        /Applications/microchip/mplabc32/v1.11a/bin/../lib/gcc/pic32mx/3.4.4/../../../../pic32mx/lib/./proc/32MX795F512L/processor.o
                                                  build/mega/production/startup.o
U1BMODEINV                                        /Applications/microchip/mplabc32/v1.11a/bin/../lib/gcc/pic32mx/3.4.4/../../../../pic32mx/lib/./proc/32MX795F512L/processor.o
                                                  build/mega/production/startup.o
U1BMODESET                                        /Applications/microchip/mplabc32/v1.11a/bin/../lib/gcc/pic32mx/3.4.4/../../../../pic32mx/lib/./proc/32MX795F512L/processor.o
                                                  build/mega/production/startup.o
U1BRG                                             /Applications/microchip/mplabc32/v1.11a/bin/../lib/gcc/pic32mx/3.4.4/../../../../pic32mx/lib/./proc/32MX795F512L/processor.o
                                                  /Applications/microchip/mplabc32/v1.11a/bin/../lib/gcc/pic32mx/3.4.4/../../../../pic32mx/lib/libc.a(memcpy.o)
                                                  build/mega/production/pic32bootloader.o
                                                  build/mega/production/startup.o
U1BRGCLR                                          /Applications/microchip/mplabc32/v1.11a/bin/../lib/gcc/pic32mx/3.4.4/../../../../pic32mx/lib/./proc/32MX795F512L/processor.o
                                                  /Applications/microchip/mplabc32/v1.11a/bin/../lib/gcc/pic32mx/3.4.4/../../../../pic32mx/lib/libc.a(memcpy.o)
                                                  build/mega/production/startup.o
U1BRGINV                                          /Applications/microchip/mplabc32/v1.11a/bin/../lib/gcc/pic32mx/3.4.4/../../../../pic32mx/lib/./proc/32MX795F512L/processor.o
                                                  /Applications/microchip/mplabc32/v1.11a/bin/../lib/gcc/pic32mx/3.4.4/../../../../pic32mx/lib/libc.a(memcpy.o)
                                                  build/mega/production/startup.o
U1BRGSET                                          /Applications/microchip/mplabc32/v1.11a/bin/../lib/gcc/pic32mx/3.4.4/../../../../pic32mx/lib/./proc/32MX795F512L/processor.o
                                                  /Applications/microchip/mplabc32/v1.11a/bin/../lib/gcc/pic32mx/3.4.4/../../../../pic32mx/lib/libc.a(memcpy.o)
                                                  build/mega/production/startup.o
U1BRXREG                                          /Applications/microchip/mplabc32/v1.11a/bin/../lib/gcc/pic32mx/3.4.4/../../../../pic32mx/lib/./proc/32MX795F512L/processor.o
                                                  build/mega/production/startup.o
U1BSTA                                            /Applications/microchip/mplabc32/v1.11a/bin/../lib/gcc/pic32mx/3.4.4/../../../../pic32mx/lib/./proc/32MX795F512L/processor.o
                                                  build/mega/production/startup.o
U1BSTACLR                                         /Applications/microchip/mplabc32/v1.11a/bin/../lib/gcc/pic32mx/3.4.4/../../../../pic32mx/lib/./proc/32MX795F512L/processor.o
                                                  build/mega/production/startup.o
U1BSTAINV                                         /Applications/microchip/mplabc32/v1.11a/bin/../lib/gcc/pic32mx/3.4.4/../../../../pic32mx/lib/./proc/32MX795F512L/processor.o
                                                  build/mega/production/startup.o
U1BSTASET                                         /Applications/microchip/mplabc32/v1.11a/bin/../lib/gcc/pic32mx/3.4.4/../../../../pic32mx/lib/./proc/32MX795F512L/processor.o
                                                  build/mega/production/startup.o
U1BTXREG                                          /Applications/microchip/mplabc32/v1.11a/bin/../lib/gcc/pic32mx/3.4.4/../../../../pic32mx/lib/./proc/32MX795F512L/processor.o
                                                  build/mega/production/startup.o
U1CNFG1                                           /Applications/microchip/mplabc32/v1.11a/bin/../lib/gcc/pic32mx/3.4.4/../../../../pic32mx/lib/./proc/32MX795F512L/processor.o
                                                  /Applications/microchip/mplabc32/v1.11a/bin/../lib/gcc/pic32mx/3.4.4/../../../../pic32mx/lib/libc.a(memcpy.o)
                                                  build/mega/production/startup.o
U1CNFG1CLR                                        /Applications/microchip/mplabc32/v1.11a/bin/../lib/gcc/pic32mx/3.4.4/../../../../pic32mx/lib/./proc/32MX795F512L/processor.o
                                                  build/mega/production/startup.o
U1CNFG1INV                                        /Applications/microchip/mplabc32/v1.11a/bin/../lib/gcc/pic32mx/3.4.4/../../../../pic32mx/lib/./proc/32MX795F512L/processor.o
                                                  build/mega/production/startup.o
U1CNFG1SET                                        /Applications/microchip/mplabc32/v1.11a/bin/../lib/gcc/pic32mx/3.4.4/../../../../pic32mx/lib/./proc/32MX795F512L/processor.o
                                                  build/mega/production/startup.o
U1CON                                             /Applications/microchip/mplabc32/v1.11a/bin/../lib/gcc/pic32mx/3.4.4/../../../../pic32mx/lib/./proc/32MX795F512L/processor.o
                                                  /Applications/microchip/mplabc32/v1.11a/bin/../lib/gcc/pic32mx/3.4.4/../../../../pic32mx/lib/libc.a(memcpy.o)
                                                  build/mega/production/startup.o
U1CONCLR                                          /Applications/microchip/mplabc32/v1.11a/bin/../lib/gcc/pic32mx/3.4.4/../../../../pic32mx/lib/./proc/32MX795F512L/processor.o
                                                  build/mega/production/startup.o
U1CONINV                                          /Applications/microchip/mplabc32/v1.11a/bin/../lib/gcc/pic32mx/3.4.4/../../../../pic32mx/lib/./proc/32MX795F512L/processor.o
                                                  build/mega/production/startup.o
U1CONSET                                          /Applications/microchip/mplabc32/v1.11a/bin/../lib/gcc/pic32mx/3.4.4/../../../../pic32mx/lib/./proc/32MX795F512L/processor.o
                                                  build/mega/production/startup.o
U1EIE                                             /Applications/microchip/mplabc32/v1.11a/bin/../lib/gcc/pic32mx/3.4.4/../../../../pic32mx/lib/./proc/32MX795F512L/processor.o
                                                  /Applications/microchip/mplabc32/v1.11a/bin/../lib/gcc/pic32mx/3.4.4/../../../../pic32mx/lib/libc.a(memcpy.o)
                                                  build/mega/production/startup.o
U1EIECLR                                          /Applications/microchip/mplabc32/v1.11a/bin/../lib/gcc/pic32mx/3.4.4/../../../../pic32mx/lib/./proc/32MX795F512L/processor.o
                                                  build/mega/production/startup.o
U1EIEINV                                          /Applications/microchip/mplabc32/v1.11a/bin/../lib/gcc/pic32mx/3.4.4/../../../../pic32mx/lib/./proc/32MX795F512L/processor.o
                                                  build/mega/production/startup.o
U1EIESET                                          /Applications/microchip/mplabc32/v1.11a/bin/../lib/gcc/pic32mx/3.4.4/../../../../pic32mx/lib/./proc/32MX795F512L/processor.o
                                                  build/mega/production/startup.o
U1EIR                                             /Applications/microchip/mplabc32/v1.11a/bin/../lib/gcc/pic32mx/3.4.4/../../../../pic32mx/lib/./proc/32MX795F512L/processor.o
                                                  /Applications/microchip/mplabc32/v1.11a/bin/../lib/gcc/pic32mx/3.4.4/../../../../pic32mx/lib/libc.a(memcpy.o)
                                                  build/mega/production/startup.o
U1EIRCLR                                          /Applications/microchip/mplabc32/v1.11a/bin/../lib/gcc/pic32mx/3.4.4/../../../../pic32mx/lib/./proc/32MX795F512L/processor.o
                                                  build/mega/production/startup.o
U1EP0                                             /Applications/microchip/mplabc32/v1.11a/bin/../lib/gcc/pic32mx/3.4.4/../../../../pic32mx/lib/./proc/32MX795F512L/processor.o
                                                  /Applications/microchip/mplabc32/v1.11a/bin/../lib/gcc/pic32mx/3.4.4/../../../../pic32mx/lib/libc.a(memcpy.o)
                                                  build/mega/production/startup.o
U1EP0CLR                                          /Applications/microchip/mplabc32/v1.11a/bin/../lib/gcc/pic32mx/3.4.4/../../../../pic32mx/lib/./proc/32MX795F512L/processor.o
                                                  build/mega/production/startup.o
U1EP0INV                                          /Applications/microchip/mplabc32/v1.11a/bin/../lib/gcc/pic32mx/3.4.4/../../../../pic32mx/lib/./proc/32MX795F512L/processor.o
                                                  build/mega/production/startup.o
U1EP0SET                                          /Applications/microchip/mplabc32/v1.11a/bin/../lib/gcc/pic32mx/3.4.4/../../../../pic32mx/lib/./proc/32MX795F512L/processor.o
                                                  build/mega/production/startup.o
U1EP1                                             /Applications/microchip/mplabc32/v1.11a/bin/../lib/gcc/pic32mx/3.4.4/../../../../pic32mx/lib/./proc/32MX795F512L/processor.o
                                                  /Applications/microchip/mplabc32/v1.11a/bin/../lib/gcc/pic32mx/3.4.4/../../../../pic32mx/lib/libc.a(memcpy.o)
                                                  build/mega/production/startup.o
U1EP10                                            /Applications/microchip/mplabc32/v1.11a/bin/../lib/gcc/pic32mx/3.4.4/../../../../pic32mx/lib/./proc/32MX795F512L/processor.o
                                                  /Applications/microchip/mplabc32/v1.11a/bin/../lib/gcc/pic32mx/3.4.4/../../../../pic32mx/lib/libc.a(memcpy.o)
                                                  build/mega/production/startup.o
U1EP10CLR                                         /Applications/microchip/mplabc32/v1.11a/bin/../lib/gcc/pic32mx/3.4.4/../../../../pic32mx/lib/./proc/32MX795F512L/processor.o
                                                  build/mega/production/startup.o
U1EP10INV                                         /Applications/microchip/mplabc32/v1.11a/bin/../lib/gcc/pic32mx/3.4.4/../../../../pic32mx/lib/./proc/32MX795F512L/processor.o
                                                  build/mega/production/startup.o
U1EP10SET                                         /Applications/microchip/mplabc32/v1.11a/bin/../lib/gcc/pic32mx/3.4.4/../../../../pic32mx/lib/./proc/32MX795F512L/processor.o
                                                  build/mega/production/startup.o
U1EP11                                            /Applications/microchip/mplabc32/v1.11a/bin/../lib/gcc/pic32mx/3.4.4/../../../../pic32mx/lib/./proc/32MX795F512L/processor.o
                                                  /Applications/microchip/mplabc32/v1.11a/bin/../lib/gcc/pic32mx/3.4.4/../../../../pic32mx/lib/libc.a(memcpy.o)
                                                  build/mega/production/startup.o
U1EP11CLR                                         /Applications/microchip/mplabc32/v1.11a/bin/../lib/gcc/pic32mx/3.4.4/../../../../pic32mx/lib/./proc/32MX795F512L/processor.o
                                                  build/mega/production/startup.o
U1EP11INV                                         /Applications/microchip/mplabc32/v1.11a/bin/../lib/gcc/pic32mx/3.4.4/../../../../pic32mx/lib/./proc/32MX795F512L/processor.o
                                                  build/mega/production/startup.o
U1EP11SET                                         /Applications/microchip/mplabc32/v1.11a/bin/../lib/gcc/pic32mx/3.4.4/../../../../pic32mx/lib/./proc/32MX795F512L/processor.o
                                                  build/mega/production/startup.o
U1EP12                                            /Applications/microchip/mplabc32/v1.11a/bin/../lib/gcc/pic32mx/3.4.4/../../../../pic32mx/lib/./proc/32MX795F512L/processor.o
                                                  /Applications/microchip/mplabc32/v1.11a/bin/../lib/gcc/pic32mx/3.4.4/../../../../pic32mx/lib/libc.a(memcpy.o)
                                                  build/mega/production/startup.o
U1EP12CLR                                         /Applications/microchip/mplabc32/v1.11a/bin/../lib/gcc/pic32mx/3.4.4/../../../../pic32mx/lib/./proc/32MX795F512L/processor.o
                                                  build/mega/production/startup.o
U1EP12INV                                         /Applications/microchip/mplabc32/v1.11a/bin/../lib/gcc/pic32mx/3.4.4/../../../../pic32mx/lib/./proc/32MX795F512L/processor.o
                                                  build/mega/production/startup.o
U1EP12SET                                         /Applications/microchip/mplabc32/v1.11a/bin/../lib/gcc/pic32mx/3.4.4/../../../../pic32mx/lib/./proc/32MX795F512L/processor.o
                                                  build/mega/production/startup.o
U1EP13                                            /Applications/microchip/mplabc32/v1.11a/bin/../lib/gcc/pic32mx/3.4.4/../../../../pic32mx/lib/./proc/32MX795F512L/processor.o
                                                  /Applications/microchip/mplabc32/v1.11a/bin/../lib/gcc/pic32mx/3.4.4/../../../../pic32mx/lib/libc.a(memcpy.o)
                                                  build/mega/production/startup.o
U1EP13CLR                                         /Applications/microchip/mplabc32/v1.11a/bin/../lib/gcc/pic32mx/3.4.4/../../../../pic32mx/lib/./proc/32MX795F512L/processor.o
                                                  build/mega/production/startup.o
U1EP13INV                                         /Applications/microchip/mplabc32/v1.11a/bin/../lib/gcc/pic32mx/3.4.4/../../../../pic32mx/lib/./proc/32MX795F512L/processor.o
                                                  build/mega/production/startup.o
U1EP13SET                                         /Applications/microchip/mplabc32/v1.11a/bin/../lib/gcc/pic32mx/3.4.4/../../../../pic32mx/lib/./proc/32MX795F512L/processor.o
                                                  build/mega/production/startup.o
U1EP14                                            /Applications/microchip/mplabc32/v1.11a/bin/../lib/gcc/pic32mx/3.4.4/../../../../pic32mx/lib/./proc/32MX795F512L/processor.o
                                                  /Applications/microchip/mplabc32/v1.11a/bin/../lib/gcc/pic32mx/3.4.4/../../../../pic32mx/lib/libc.a(memcpy.o)
                                                  build/mega/production/startup.o
U1EP14CLR                                         /Applications/microchip/mplabc32/v1.11a/bin/../lib/gcc/pic32mx/3.4.4/../../../../pic32mx/lib/./proc/32MX795F512L/processor.o
                                                  build/mega/production/startup.o
U1EP14INV                                         /Applications/microchip/mplabc32/v1.11a/bin/../lib/gcc/pic32mx/3.4.4/../../../../pic32mx/lib/./proc/32MX795F512L/processor.o
                                                  build/mega/production/startup.o
U1EP14SET                                         /Applications/microchip/mplabc32/v1.11a/bin/../lib/gcc/pic32mx/3.4.4/../../../../pic32mx/lib/./proc/32MX795F512L/processor.o
                                                  build/mega/production/startup.o
U1EP15                                            /Applications/microchip/mplabc32/v1.11a/bin/../lib/gcc/pic32mx/3.4.4/../../../../pic32mx/lib/./proc/32MX795F512L/processor.o
                                                  /Applications/microchip/mplabc32/v1.11a/bin/../lib/gcc/pic32mx/3.4.4/../../../../pic32mx/lib/libc.a(memcpy.o)
                                                  build/mega/production/startup.o
U1EP15CLR                                         /Applications/microchip/mplabc32/v1.11a/bin/../lib/gcc/pic32mx/3.4.4/../../../../pic32mx/lib/./proc/32MX795F512L/processor.o
                                                  build/mega/production/startup.o
U1EP15INV                                         /Applications/microchip/mplabc32/v1.11a/bin/../lib/gcc/pic32mx/3.4.4/../../../../pic32mx/lib/./proc/32MX795F512L/processor.o
                                                  build/mega/production/startup.o
U1EP15SET                                         /Applications/microchip/mplabc32/v1.11a/bin/../lib/gcc/pic32mx/3.4.4/../../../../pic32mx/lib/./proc/32MX795F512L/processor.o
                                                  build/mega/production/startup.o
U1EP1CLR                                          /Applications/microchip/mplabc32/v1.11a/bin/../lib/gcc/pic32mx/3.4.4/../../../../pic32mx/lib/./proc/32MX795F512L/processor.o
                                                  build/mega/production/startup.o
U1EP1INV                                          /Applications/microchip/mplabc32/v1.11a/bin/../lib/gcc/pic32mx/3.4.4/../../../../pic32mx/lib/./proc/32MX795F512L/processor.o
                                                  build/mega/production/startup.o
U1EP1SET                                          /Applications/microchip/mplabc32/v1.11a/bin/../lib/gcc/pic32mx/3.4.4/../../../../pic32mx/lib/./proc/32MX795F512L/processor.o
                                                  build/mega/production/startup.o
U1EP2                                             /Applications/microchip/mplabc32/v1.11a/bin/../lib/gcc/pic32mx/3.4.4/../../../../pic32mx/lib/./proc/32MX795F512L/processor.o
                                                  /Applications/microchip/mplabc32/v1.11a/bin/../lib/gcc/pic32mx/3.4.4/../../../../pic32mx/lib/libc.a(memcpy.o)
                                                  build/mega/production/startup.o
U1EP2CLR                                          /Applications/microchip/mplabc32/v1.11a/bin/../lib/gcc/pic32mx/3.4.4/../../../../pic32mx/lib/./proc/32MX795F512L/processor.o
                                                  build/mega/production/startup.o
U1EP2INV                                          /Applications/microchip/mplabc32/v1.11a/bin/../lib/gcc/pic32mx/3.4.4/../../../../pic32mx/lib/./proc/32MX795F512L/processor.o
                                                  build/mega/production/startup.o
U1EP2SET                                          /Applications/microchip/mplabc32/v1.11a/bin/../lib/gcc/pic32mx/3.4.4/../../../../pic32mx/lib/./proc/32MX795F512L/processor.o
                                                  build/mega/production/startup.o
U1EP3                                             /Applications/microchip/mplabc32/v1.11a/bin/../lib/gcc/pic32mx/3.4.4/../../../../pic32mx/lib/./proc/32MX795F512L/processor.o
                                                  /Applications/microchip/mplabc32/v1.11a/bin/../lib/gcc/pic32mx/3.4.4/../../../../pic32mx/lib/libc.a(memcpy.o)
                                                  build/mega/production/startup.o
U1EP3CLR                                          /Applications/microchip/mplabc32/v1.11a/bin/../lib/gcc/pic32mx/3.4.4/../../../../pic32mx/lib/./proc/32MX795F512L/processor.o
                                                  build/mega/production/startup.o
U1EP3INV                                          /Applications/microchip/mplabc32/v1.11a/bin/../lib/gcc/pic32mx/3.4.4/../../../../pic32mx/lib/./proc/32MX795F512L/processor.o
                                                  build/mega/production/startup.o
U1EP3SET                                          /Applications/microchip/mplabc32/v1.11a/bin/../lib/gcc/pic32mx/3.4.4/../../../../pic32mx/lib/./proc/32MX795F512L/processor.o
                                                  build/mega/production/startup.o
U1EP4                                             /Applications/microchip/mplabc32/v1.11a/bin/../lib/gcc/pic32mx/3.4.4/../../../../pic32mx/lib/./proc/32MX795F512L/processor.o
                                                  /Applications/microchip/mplabc32/v1.11a/bin/../lib/gcc/pic32mx/3.4.4/../../../../pic32mx/lib/libc.a(memcpy.o)
                                                  build/mega/production/startup.o
U1EP4CLR                                          /Applications/microchip/mplabc32/v1.11a/bin/../lib/gcc/pic32mx/3.4.4/../../../../pic32mx/lib/./proc/32MX795F512L/processor.o
                                                  build/mega/production/startup.o
U1EP4INV                                          /Applications/microchip/mplabc32/v1.11a/bin/../lib/gcc/pic32mx/3.4.4/../../../../pic32mx/lib/./proc/32MX795F512L/processor.o
                                                  build/mega/production/startup.o
U1EP4SET                                          /Applications/microchip/mplabc32/v1.11a/bin/../lib/gcc/pic32mx/3.4.4/../../../../pic32mx/lib/./proc/32MX795F512L/processor.o
                                                  build/mega/production/startup.o
U1EP5                                             /Applications/microchip/mplabc32/v1.11a/bin/../lib/gcc/pic32mx/3.4.4/../../../../pic32mx/lib/./proc/32MX795F512L/processor.o
                                                  /Applications/microchip/mplabc32/v1.11a/bin/../lib/gcc/pic32mx/3.4.4/../../../../pic32mx/lib/libc.a(memcpy.o)
                                                  build/mega/production/startup.o
U1EP5CLR                                          /Applications/microchip/mplabc32/v1.11a/bin/../lib/gcc/pic32mx/3.4.4/../../../../pic32mx/lib/./proc/32MX795F512L/processor.o
                                                  build/mega/production/startup.o
U1EP5INV                                          /Applications/microchip/mplabc32/v1.11a/bin/../lib/gcc/pic32mx/3.4.4/../../../../pic32mx/lib/./proc/32MX795F512L/processor.o
                                                  build/mega/production/startup.o
U1EP5SET                                          /Applications/microchip/mplabc32/v1.11a/bin/../lib/gcc/pic32mx/3.4.4/../../../../pic32mx/lib/./proc/32MX795F512L/processor.o
                                                  build/mega/production/startup.o
U1EP6                                             /Applications/microchip/mplabc32/v1.11a/bin/../lib/gcc/pic32mx/3.4.4/../../../../pic32mx/lib/./proc/32MX795F512L/processor.o
                                                  /Applications/microchip/mplabc32/v1.11a/bin/../lib/gcc/pic32mx/3.4.4/../../../../pic32mx/lib/libc.a(memcpy.o)
                                                  build/mega/production/startup.o
U1EP6CLR                                          /Applications/microchip/mplabc32/v1.11a/bin/../lib/gcc/pic32mx/3.4.4/../../../../pic32mx/lib/./proc/32MX795F512L/processor.o
                                                  build/mega/production/startup.o
U1EP6INV                                          /Applications/microchip/mplabc32/v1.11a/bin/../lib/gcc/pic32mx/3.4.4/../../../../pic32mx/lib/./proc/32MX795F512L/processor.o
                                                  build/mega/production/startup.o
U1EP6SET                                          /Applications/microchip/mplabc32/v1.11a/bin/../lib/gcc/pic32mx/3.4.4/../../../../pic32mx/lib/./proc/32MX795F512L/processor.o
                                                  build/mega/production/startup.o
U1EP7                                             /Applications/microchip/mplabc32/v1.11a/bin/../lib/gcc/pic32mx/3.4.4/../../../../pic32mx/lib/./proc/32MX795F512L/processor.o
                                                  /Applications/microchip/mplabc32/v1.11a/bin/../lib/gcc/pic32mx/3.4.4/../../../../pic32mx/lib/libc.a(memcpy.o)
                                                  build/mega/production/startup.o
U1EP7CLR                                          /Applications/microchip/mplabc32/v1.11a/bin/../lib/gcc/pic32mx/3.4.4/../../../../pic32mx/lib/./proc/32MX795F512L/processor.o
                                                  build/mega/production/startup.o
U1EP7INV                                          /Applications/microchip/mplabc32/v1.11a/bin/../lib/gcc/pic32mx/3.4.4/../../../../pic32mx/lib/./proc/32MX795F512L/processor.o
                                                  build/mega/production/startup.o
U1EP7SET                                          /Applications/microchip/mplabc32/v1.11a/bin/../lib/gcc/pic32mx/3.4.4/../../../../pic32mx/lib/./proc/32MX795F512L/processor.o
                                                  build/mega/production/startup.o
U1EP8                                             /Applications/microchip/mplabc32/v1.11a/bin/../lib/gcc/pic32mx/3.4.4/../../../../pic32mx/lib/./proc/32MX795F512L/processor.o
                                                  /Applications/microchip/mplabc32/v1.11a/bin/../lib/gcc/pic32mx/3.4.4/../../../../pic32mx/lib/libc.a(memcpy.o)
                                                  build/mega/production/startup.o
U1EP8CLR                                          /Applications/microchip/mplabc32/v1.11a/bin/../lib/gcc/pic32mx/3.4.4/../../../../pic32mx/lib/./proc/32MX795F512L/processor.o
                                                  build/mega/production/startup.o
U1EP8INV                                          /Applications/microchip/mplabc32/v1.11a/bin/../lib/gcc/pic32mx/3.4.4/../../../../pic32mx/lib/./proc/32MX795F512L/processor.o
                                                  build/mega/production/startup.o
U1EP8SET                                          /Applications/microchip/mplabc32/v1.11a/bin/../lib/gcc/pic32mx/3.4.4/../../../../pic32mx/lib/./proc/32MX795F512L/processor.o
                                                  build/mega/production/startup.o
U1EP9                                             /Applications/microchip/mplabc32/v1.11a/bin/../lib/gcc/pic32mx/3.4.4/../../../../pic32mx/lib/./proc/32MX795F512L/processor.o
                                                  /Applications/microchip/mplabc32/v1.11a/bin/../lib/gcc/pic32mx/3.4.4/../../../../pic32mx/lib/libc.a(memcpy.o)
                                                  build/mega/production/startup.o
U1EP9CLR                                          /Applications/microchip/mplabc32/v1.11a/bin/../lib/gcc/pic32mx/3.4.4/../../../../pic32mx/lib/./proc/32MX795F512L/processor.o
                                                  build/mega/production/startup.o
U1EP9INV                                          /Applications/microchip/mplabc32/v1.11a/bin/../lib/gcc/pic32mx/3.4.4/../../../../pic32mx/lib/./proc/32MX795F512L/processor.o
                                                  build/mega/production/startup.o
U1EP9SET                                          /Applications/microchip/mplabc32/v1.11a/bin/../lib/gcc/pic32mx/3.4.4/../../../../pic32mx/lib/./proc/32MX795F512L/processor.o
                                                  build/mega/production/startup.o
U1FRMH                                            /Applications/microchip/mplabc32/v1.11a/bin/../lib/gcc/pic32mx/3.4.4/../../../../pic32mx/lib/./proc/32MX795F512L/processor.o
                                                  /Applications/microchip/mplabc32/v1.11a/bin/../lib/gcc/pic32mx/3.4.4/../../../../pic32mx/lib/libc.a(memcpy.o)
                                                  build/mega/production/startup.o
U1FRMHCLR                                         /Applications/microchip/mplabc32/v1.11a/bin/../lib/gcc/pic32mx/3.4.4/../../../../pic32mx/lib/./proc/32MX795F512L/processor.o
                                                  build/mega/production/startup.o
U1FRMHINV                                         /Applications/microchip/mplabc32/v1.11a/bin/../lib/gcc/pic32mx/3.4.4/../../../../pic32mx/lib/./proc/32MX795F512L/processor.o
                                                  build/mega/production/startup.o
U1FRMHSET                                         /Applications/microchip/mplabc32/v1.11a/bin/../lib/gcc/pic32mx/3.4.4/../../../../pic32mx/lib/./proc/32MX795F512L/processor.o
                                                  build/mega/production/startup.o
U1FRML                                            /Applications/microchip/mplabc32/v1.11a/bin/../lib/gcc/pic32mx/3.4.4/../../../../pic32mx/lib/./proc/32MX795F512L/processor.o
                                                  /Applications/microchip/mplabc32/v1.11a/bin/../lib/gcc/pic32mx/3.4.4/../../../../pic32mx/lib/libc.a(memcpy.o)
                                                  build/mega/production/startup.o
U1FRMLCLR                                         /Applications/microchip/mplabc32/v1.11a/bin/../lib/gcc/pic32mx/3.4.4/../../../../pic32mx/lib/./proc/32MX795F512L/processor.o
                                                  build/mega/production/startup.o
U1FRMLINV                                         /Applications/microchip/mplabc32/v1.11a/bin/../lib/gcc/pic32mx/3.4.4/../../../../pic32mx/lib/./proc/32MX795F512L/processor.o
                                                  build/mega/production/startup.o
U1FRMLSET                                         /Applications/microchip/mplabc32/v1.11a/bin/../lib/gcc/pic32mx/3.4.4/../../../../pic32mx/lib/./proc/32MX795F512L/processor.o
                                                  build/mega/production/startup.o
U1IE                                              /Applications/microchip/mplabc32/v1.11a/bin/../lib/gcc/pic32mx/3.4.4/../../../../pic32mx/lib/./proc/32MX795F512L/processor.o
                                                  /Applications/microchip/mplabc32/v1.11a/bin/../lib/gcc/pic32mx/3.4.4/../../../../pic32mx/lib/libc.a(memcpy.o)
                                                  build/mega/production/startup.o
U1IECLR                                           /Applications/microchip/mplabc32/v1.11a/bin/../lib/gcc/pic32mx/3.4.4/../../../../pic32mx/lib/./proc/32MX795F512L/processor.o
                                                  build/mega/production/startup.o
U1IEINV                                           /Applications/microchip/mplabc32/v1.11a/bin/../lib/gcc/pic32mx/3.4.4/../../../../pic32mx/lib/./proc/32MX795F512L/processor.o
                                                  build/mega/production/startup.o
U1IESET                                           /Applications/microchip/mplabc32/v1.11a/bin/../lib/gcc/pic32mx/3.4.4/../../../../pic32mx/lib/./proc/32MX795F512L/processor.o
                                                  build/mega/production/startup.o
U1IR                                              /Applications/microchip/mplabc32/v1.11a/bin/../lib/gcc/pic32mx/3.4.4/../../../../pic32mx/lib/./proc/32MX795F512L/processor.o
                                                  /Applications/microchip/mplabc32/v1.11a/bin/../lib/gcc/pic32mx/3.4.4/../../../../pic32mx/lib/libc.a(memcpy.o)
                                                  build/mega/production/startup.o
U1IRCLR                                           /Applications/microchip/mplabc32/v1.11a/bin/../lib/gcc/pic32mx/3.4.4/../../../../pic32mx/lib/./proc/32MX795F512L/processor.o
                                                  build/mega/production/startup.o
U1MODE                                            /Applications/microchip/mplabc32/v1.11a/bin/../lib/gcc/pic32mx/3.4.4/../../../../pic32mx/lib/./proc/32MX795F512L/processor.o
                                                  /Applications/microchip/mplabc32/v1.11a/bin/../lib/gcc/pic32mx/3.4.4/../../../../pic32mx/lib/libc.a(memcpy.o)
                                                  build/mega/production/pic32bootloader.o
                                                  build/mega/production/startup.o
U1MODECLR                                         /Applications/microchip/mplabc32/v1.11a/bin/../lib/gcc/pic32mx/3.4.4/../../../../pic32mx/lib/./proc/32MX795F512L/processor.o
                                                  /Applications/microchip/mplabc32/v1.11a/bin/../lib/gcc/pic32mx/3.4.4/../../../../pic32mx/lib/libc.a(memcpy.o)
                                                  build/mega/production/startup.o
U1MODEINV                                         /Applications/microchip/mplabc32/v1.11a/bin/../lib/gcc/pic32mx/3.4.4/../../../../pic32mx/lib/./proc/32MX795F512L/processor.o
                                                  /Applications/microchip/mplabc32/v1.11a/bin/../lib/gcc/pic32mx/3.4.4/../../../../pic32mx/lib/libc.a(memcpy.o)
                                                  build/mega/production/startup.o
U1MODESET                                         /Applications/microchip/mplabc32/v1.11a/bin/../lib/gcc/pic32mx/3.4.4/../../../../pic32mx/lib/./proc/32MX795F512L/processor.o
                                                  /Applications/microchip/mplabc32/v1.11a/bin/../lib/gcc/pic32mx/3.4.4/../../../../pic32mx/lib/libc.a(memcpy.o)
                                                  build/mega/production/startup.o
U1OTGCON                                          /Applications/microchip/mplabc32/v1.11a/bin/../lib/gcc/pic32mx/3.4.4/../../../../pic32mx/lib/./proc/32MX795F512L/processor.o
                                                  /Applications/microchip/mplabc32/v1.11a/bin/../lib/gcc/pic32mx/3.4.4/../../../../pic32mx/lib/libc.a(memcpy.o)
                                                  build/mega/production/startup.o
U1OTGCONCLR                                       /Applications/microchip/mplabc32/v1.11a/bin/../lib/gcc/pic32mx/3.4.4/../../../../pic32mx/lib/./proc/32MX795F512L/processor.o
                                                  build/mega/production/startup.o
U1OTGCONINV                                       /Applications/microchip/mplabc32/v1.11a/bin/../lib/gcc/pic32mx/3.4.4/../../../../pic32mx/lib/./proc/32MX795F512L/processor.o
                                                  build/mega/production/startup.o
U1OTGCONSET                                       /Applications/microchip/mplabc32/v1.11a/bin/../lib/gcc/pic32mx/3.4.4/../../../../pic32mx/lib/./proc/32MX795F512L/processor.o
                                                  build/mega/production/startup.o
U1OTGIE                                           /Applications/microchip/mplabc32/v1.11a/bin/../lib/gcc/pic32mx/3.4.4/../../../../pic32mx/lib/./proc/32MX795F512L/processor.o
                                                  /Applications/microchip/mplabc32/v1.11a/bin/../lib/gcc/pic32mx/3.4.4/../../../../pic32mx/lib/libc.a(memcpy.o)
                                                  build/mega/production/startup.o
U1OTGIECLR                                        /Applications/microchip/mplabc32/v1.11a/bin/../lib/gcc/pic32mx/3.4.4/../../../../pic32mx/lib/./proc/32MX795F512L/processor.o
                                                  build/mega/production/startup.o
U1OTGIEINV                                        /Applications/microchip/mplabc32/v1.11a/bin/../lib/gcc/pic32mx/3.4.4/../../../../pic32mx/lib/./proc/32MX795F512L/processor.o
                                                  build/mega/production/startup.o
U1OTGIESET                                        /Applications/microchip/mplabc32/v1.11a/bin/../lib/gcc/pic32mx/3.4.4/../../../../pic32mx/lib/./proc/32MX795F512L/processor.o
                                                  build/mega/production/startup.o
U1OTGIR                                           /Applications/microchip/mplabc32/v1.11a/bin/../lib/gcc/pic32mx/3.4.4/../../../../pic32mx/lib/./proc/32MX795F512L/processor.o
                                                  /Applications/microchip/mplabc32/v1.11a/bin/../lib/gcc/pic32mx/3.4.4/../../../../pic32mx/lib/libc.a(memcpy.o)
                                                  build/mega/production/startup.o
U1OTGIRCLR                                        /Applications/microchip/mplabc32/v1.11a/bin/../lib/gcc/pic32mx/3.4.4/../../../../pic32mx/lib/./proc/32MX795F512L/processor.o
                                                  build/mega/production/startup.o
U1OTGSTAT                                         /Applications/microchip/mplabc32/v1.11a/bin/../lib/gcc/pic32mx/3.4.4/../../../../pic32mx/lib/./proc/32MX795F512L/processor.o
                                                  /Applications/microchip/mplabc32/v1.11a/bin/../lib/gcc/pic32mx/3.4.4/../../../../pic32mx/lib/libc.a(memcpy.o)
                                                  build/mega/production/startup.o
U1PWRC                                            /Applications/microchip/mplabc32/v1.11a/bin/../lib/gcc/pic32mx/3.4.4/../../../../pic32mx/lib/./proc/32MX795F512L/processor.o
                                                  /Applications/microchip/mplabc32/v1.11a/bin/../lib/gcc/pic32mx/3.4.4/../../../../pic32mx/lib/libc.a(memcpy.o)
                                                  build/mega/production/startup.o
U1PWRCCLR                                         /Applications/microchip/mplabc32/v1.11a/bin/../lib/gcc/pic32mx/3.4.4/../../../../pic32mx/lib/./proc/32MX795F512L/processor.o
                                                  build/mega/production/startup.o
U1PWRCINV                                         /Applications/microchip/mplabc32/v1.11a/bin/../lib/gcc/pic32mx/3.4.4/../../../../pic32mx/lib/./proc/32MX795F512L/processor.o
                                                  build/mega/production/startup.o
U1PWRCSET                                         /Applications/microchip/mplabc32/v1.11a/bin/../lib/gcc/pic32mx/3.4.4/../../../../pic32mx/lib/./proc/32MX795F512L/processor.o
                                                  build/mega/production/startup.o
U1RXREG                                           /Applications/microchip/mplabc32/v1.11a/bin/../lib/gcc/pic32mx/3.4.4/../../../../pic32mx/lib/./proc/32MX795F512L/processor.o
                                                  /Applications/microchip/mplabc32/v1.11a/bin/../lib/gcc/pic32mx/3.4.4/../../../../pic32mx/lib/libc.a(memcpy.o)
                                                  build/mega/production/pic32bootloader.o
                                                  build/mega/production/startup.o
U1SOF                                             /Applications/microchip/mplabc32/v1.11a/bin/../lib/gcc/pic32mx/3.4.4/../../../../pic32mx/lib/./proc/32MX795F512L/processor.o
                                                  /Applications/microchip/mplabc32/v1.11a/bin/../lib/gcc/pic32mx/3.4.4/../../../../pic32mx/lib/libc.a(memcpy.o)
                                                  build/mega/production/startup.o
U1SOFCLR                                          /Applications/microchip/mplabc32/v1.11a/bin/../lib/gcc/pic32mx/3.4.4/../../../../pic32mx/lib/./proc/32MX795F512L/processor.o
                                                  build/mega/production/startup.o
U1SOFINV                                          /Applications/microchip/mplabc32/v1.11a/bin/../lib/gcc/pic32mx/3.4.4/../../../../pic32mx/lib/./proc/32MX795F512L/processor.o
                                                  build/mega/production/startup.o
U1SOFSET                                          /Applications/microchip/mplabc32/v1.11a/bin/../lib/gcc/pic32mx/3.4.4/../../../../pic32mx/lib/./proc/32MX795F512L/processor.o
                                                  build/mega/production/startup.o
U1STA                                             /Applications/microchip/mplabc32/v1.11a/bin/../lib/gcc/pic32mx/3.4.4/../../../../pic32mx/lib/./proc/32MX795F512L/processor.o
                                                  /Applications/microchip/mplabc32/v1.11a/bin/../lib/gcc/pic32mx/3.4.4/../../../../pic32mx/lib/libc.a(memcpy.o)
                                                  build/mega/production/pic32bootloader.o
                                                  build/mega/production/startup.o
U1STACLR                                          /Applications/microchip/mplabc32/v1.11a/bin/../lib/gcc/pic32mx/3.4.4/../../../../pic32mx/lib/./proc/32MX795F512L/processor.o
                                                  /Applications/microchip/mplabc32/v1.11a/bin/../lib/gcc/pic32mx/3.4.4/../../../../pic32mx/lib/libc.a(memcpy.o)
                                                  build/mega/production/startup.o
U1STAINV                                          /Applications/microchip/mplabc32/v1.11a/bin/../lib/gcc/pic32mx/3.4.4/../../../../pic32mx/lib/./proc/32MX795F512L/processor.o
                                                  /Applications/microchip/mplabc32/v1.11a/bin/../lib/gcc/pic32mx/3.4.4/../../../../pic32mx/lib/libc.a(memcpy.o)
                                                  build/mega/production/startup.o
U1STASET                                          /Applications/microchip/mplabc32/v1.11a/bin/../lib/gcc/pic32mx/3.4.4/../../../../pic32mx/lib/./proc/32MX795F512L/processor.o
                                                  /Applications/microchip/mplabc32/v1.11a/bin/../lib/gcc/pic32mx/3.4.4/../../../../pic32mx/lib/libc.a(memcpy.o)
                                                  build/mega/production/startup.o
U1STAT                                            /Applications/microchip/mplabc32/v1.11a/bin/../lib/gcc/pic32mx/3.4.4/../../../../pic32mx/lib/./proc/32MX795F512L/processor.o
                                                  /Applications/microchip/mplabc32/v1.11a/bin/../lib/gcc/pic32mx/3.4.4/../../../../pic32mx/lib/libc.a(memcpy.o)
                                                  build/mega/production/startup.o
U1STATCLR                                         /Applications/microchip/mplabc32/v1.11a/bin/../lib/gcc/pic32mx/3.4.4/../../../../pic32mx/lib/./proc/32MX795F512L/processor.o
                                                  build/mega/production/startup.o
U1STATINV                                         /Applications/microchip/mplabc32/v1.11a/bin/../lib/gcc/pic32mx/3.4.4/../../../../pic32mx/lib/./proc/32MX795F512L/processor.o
                                                  build/mega/production/startup.o
U1STATSET                                         /Applications/microchip/mplabc32/v1.11a/bin/../lib/gcc/pic32mx/3.4.4/../../../../pic32mx/lib/./proc/32MX795F512L/processor.o
                                                  build/mega/production/startup.o
U1TOK                                             /Applications/microchip/mplabc32/v1.11a/bin/../lib/gcc/pic32mx/3.4.4/../../../../pic32mx/lib/./proc/32MX795F512L/processor.o
                                                  /Applications/microchip/mplabc32/v1.11a/bin/../lib/gcc/pic32mx/3.4.4/../../../../pic32mx/lib/libc.a(memcpy.o)
                                                  build/mega/production/startup.o
U1TOKCLR                                          /Applications/microchip/mplabc32/v1.11a/bin/../lib/gcc/pic32mx/3.4.4/../../../../pic32mx/lib/./proc/32MX795F512L/processor.o
                                                  build/mega/production/startup.o
U1TOKINV                                          /Applications/microchip/mplabc32/v1.11a/bin/../lib/gcc/pic32mx/3.4.4/../../../../pic32mx/lib/./proc/32MX795F512L/processor.o
                                                  build/mega/production/startup.o
U1TOKSET                                          /Applications/microchip/mplabc32/v1.11a/bin/../lib/gcc/pic32mx/3.4.4/../../../../pic32mx/lib/./proc/32MX795F512L/processor.o
                                                  build/mega/production/startup.o
U1TXREG                                           /Applications/microchip/mplabc32/v1.11a/bin/../lib/gcc/pic32mx/3.4.4/../../../../pic32mx/lib/./proc/32MX795F512L/processor.o
                                                  /Applications/microchip/mplabc32/v1.11a/bin/../lib/gcc/pic32mx/3.4.4/../../../../pic32mx/lib/libc.a(memcpy.o)
                                                  build/mega/production/pic32bootloader.o
                                                  build/mega/production/startup.o
U2ABRG                                            /Applications/microchip/mplabc32/v1.11a/bin/../lib/gcc/pic32mx/3.4.4/../../../../pic32mx/lib/./proc/32MX795F512L/processor.o
                                                  build/mega/production/startup.o
U2ABRGCLR                                         /Applications/microchip/mplabc32/v1.11a/bin/../lib/gcc/pic32mx/3.4.4/../../../../pic32mx/lib/./proc/32MX795F512L/processor.o
                                                  build/mega/production/startup.o
U2ABRGINV                                         /Applications/microchip/mplabc32/v1.11a/bin/../lib/gcc/pic32mx/3.4.4/../../../../pic32mx/lib/./proc/32MX795F512L/processor.o
                                                  build/mega/production/startup.o
U2ABRGSET                                         /Applications/microchip/mplabc32/v1.11a/bin/../lib/gcc/pic32mx/3.4.4/../../../../pic32mx/lib/./proc/32MX795F512L/processor.o
                                                  build/mega/production/startup.o
U2AMODE                                           /Applications/microchip/mplabc32/v1.11a/bin/../lib/gcc/pic32mx/3.4.4/../../../../pic32mx/lib/./proc/32MX795F512L/processor.o
                                                  build/mega/production/startup.o
U2AMODECLR                                        /Applications/microchip/mplabc32/v1.11a/bin/../lib/gcc/pic32mx/3.4.4/../../../../pic32mx/lib/./proc/32MX795F512L/processor.o
                                                  build/mega/production/startup.o
U2AMODEINV                                        /Applications/microchip/mplabc32/v1.11a/bin/../lib/gcc/pic32mx/3.4.4/../../../../pic32mx/lib/./proc/32MX795F512L/processor.o
                                                  build/mega/production/startup.o
U2AMODESET                                        /Applications/microchip/mplabc32/v1.11a/bin/../lib/gcc/pic32mx/3.4.4/../../../../pic32mx/lib/./proc/32MX795F512L/processor.o
                                                  build/mega/production/startup.o
U2ARXREG                                          /Applications/microchip/mplabc32/v1.11a/bin/../lib/gcc/pic32mx/3.4.4/../../../../pic32mx/lib/./proc/32MX795F512L/processor.o
                                                  build/mega/production/startup.o
U2ASTA                                            /Applications/microchip/mplabc32/v1.11a/bin/../lib/gcc/pic32mx/3.4.4/../../../../pic32mx/lib/./proc/32MX795F512L/processor.o
                                                  build/mega/production/startup.o
U2ASTACLR                                         /Applications/microchip/mplabc32/v1.11a/bin/../lib/gcc/pic32mx/3.4.4/../../../../pic32mx/lib/./proc/32MX795F512L/processor.o
                                                  build/mega/production/startup.o
U2ASTAINV                                         /Applications/microchip/mplabc32/v1.11a/bin/../lib/gcc/pic32mx/3.4.4/../../../../pic32mx/lib/./proc/32MX795F512L/processor.o
                                                  build/mega/production/startup.o
U2ASTASET                                         /Applications/microchip/mplabc32/v1.11a/bin/../lib/gcc/pic32mx/3.4.4/../../../../pic32mx/lib/./proc/32MX795F512L/processor.o
                                                  build/mega/production/startup.o
U2ATXREG                                          /Applications/microchip/mplabc32/v1.11a/bin/../lib/gcc/pic32mx/3.4.4/../../../../pic32mx/lib/./proc/32MX795F512L/processor.o
                                                  build/mega/production/startup.o
U2BBRG                                            /Applications/microchip/mplabc32/v1.11a/bin/../lib/gcc/pic32mx/3.4.4/../../../../pic32mx/lib/./proc/32MX795F512L/processor.o
                                                  build/mega/production/startup.o
U2BBRGCLR                                         /Applications/microchip/mplabc32/v1.11a/bin/../lib/gcc/pic32mx/3.4.4/../../../../pic32mx/lib/./proc/32MX795F512L/processor.o
                                                  build/mega/production/startup.o
U2BBRGINV                                         /Applications/microchip/mplabc32/v1.11a/bin/../lib/gcc/pic32mx/3.4.4/../../../../pic32mx/lib/./proc/32MX795F512L/processor.o
                                                  build/mega/production/startup.o
U2BBRGSET                                         /Applications/microchip/mplabc32/v1.11a/bin/../lib/gcc/pic32mx/3.4.4/../../../../pic32mx/lib/./proc/32MX795F512L/processor.o
                                                  build/mega/production/startup.o
U2BMODE                                           /Applications/microchip/mplabc32/v1.11a/bin/../lib/gcc/pic32mx/3.4.4/../../../../pic32mx/lib/./proc/32MX795F512L/processor.o
                                                  build/mega/production/startup.o
U2BMODECLR                                        /Applications/microchip/mplabc32/v1.11a/bin/../lib/gcc/pic32mx/3.4.4/../../../../pic32mx/lib/./proc/32MX795F512L/processor.o
                                                  build/mega/production/startup.o
U2BMODEINV                                        /Applications/microchip/mplabc32/v1.11a/bin/../lib/gcc/pic32mx/3.4.4/../../../../pic32mx/lib/./proc/32MX795F512L/processor.o
                                                  build/mega/production/startup.o
U2BMODESET                                        /Applications/microchip/mplabc32/v1.11a/bin/../lib/gcc/pic32mx/3.4.4/../../../../pic32mx/lib/./proc/32MX795F512L/processor.o
                                                  build/mega/production/startup.o
U2BRG                                             /Applications/microchip/mplabc32/v1.11a/bin/../lib/gcc/pic32mx/3.4.4/../../../../pic32mx/lib/./proc/32MX795F512L/processor.o
                                                  /Applications/microchip/mplabc32/v1.11a/bin/../lib/gcc/pic32mx/3.4.4/../../../../pic32mx/lib/libc.a(memcpy.o)
                                                  build/mega/production/startup.o
U2BRGCLR                                          /Applications/microchip/mplabc32/v1.11a/bin/../lib/gcc/pic32mx/3.4.4/../../../../pic32mx/lib/./proc/32MX795F512L/processor.o
                                                  /Applications/microchip/mplabc32/v1.11a/bin/../lib/gcc/pic32mx/3.4.4/../../../../pic32mx/lib/libc.a(memcpy.o)
                                                  build/mega/production/startup.o
U2BRGINV                                          /Applications/microchip/mplabc32/v1.11a/bin/../lib/gcc/pic32mx/3.4.4/../../../../pic32mx/lib/./proc/32MX795F512L/processor.o
                                                  /Applications/microchip/mplabc32/v1.11a/bin/../lib/gcc/pic32mx/3.4.4/../../../../pic32mx/lib/libc.a(memcpy.o)
                                                  build/mega/production/startup.o
U2BRGSET                                          /Applications/microchip/mplabc32/v1.11a/bin/../lib/gcc/pic32mx/3.4.4/../../../../pic32mx/lib/./proc/32MX795F512L/processor.o
                                                  /Applications/microchip/mplabc32/v1.11a/bin/../lib/gcc/pic32mx/3.4.4/../../../../pic32mx/lib/libc.a(memcpy.o)
                                                  build/mega/production/startup.o
U2BRXREG                                          /Applications/microchip/mplabc32/v1.11a/bin/../lib/gcc/pic32mx/3.4.4/../../../../pic32mx/lib/./proc/32MX795F512L/processor.o
                                                  build/mega/production/startup.o
U2BSTA                                            /Applications/microchip/mplabc32/v1.11a/bin/../lib/gcc/pic32mx/3.4.4/../../../../pic32mx/lib/./proc/32MX795F512L/processor.o
                                                  build/mega/production/startup.o
U2BSTACLR                                         /Applications/microchip/mplabc32/v1.11a/bin/../lib/gcc/pic32mx/3.4.4/../../../../pic32mx/lib/./proc/32MX795F512L/processor.o
                                                  build/mega/production/startup.o
U2BSTAINV                                         /Applications/microchip/mplabc32/v1.11a/bin/../lib/gcc/pic32mx/3.4.4/../../../../pic32mx/lib/./proc/32MX795F512L/processor.o
                                                  build/mega/production/startup.o
U2BSTASET                                         /Applications/microchip/mplabc32/v1.11a/bin/../lib/gcc/pic32mx/3.4.4/../../../../pic32mx/lib/./proc/32MX795F512L/processor.o
                                                  build/mega/production/startup.o
U2BTXREG                                          /Applications/microchip/mplabc32/v1.11a/bin/../lib/gcc/pic32mx/3.4.4/../../../../pic32mx/lib/./proc/32MX795F512L/processor.o
                                                  build/mega/production/startup.o
U2MODE                                            /Applications/microchip/mplabc32/v1.11a/bin/../lib/gcc/pic32mx/3.4.4/../../../../pic32mx/lib/./proc/32MX795F512L/processor.o
                                                  /Applications/microchip/mplabc32/v1.11a/bin/../lib/gcc/pic32mx/3.4.4/../../../../pic32mx/lib/libc.a(memcpy.o)
                                                  build/mega/production/startup.o
U2MODECLR                                         /Applications/microchip/mplabc32/v1.11a/bin/../lib/gcc/pic32mx/3.4.4/../../../../pic32mx/lib/./proc/32MX795F512L/processor.o
                                                  /Applications/microchip/mplabc32/v1.11a/bin/../lib/gcc/pic32mx/3.4.4/../../../../pic32mx/lib/libc.a(memcpy.o)
                                                  build/mega/production/startup.o
U2MODEINV                                         /Applications/microchip/mplabc32/v1.11a/bin/../lib/gcc/pic32mx/3.4.4/../../../../pic32mx/lib/./proc/32MX795F512L/processor.o
                                                  /Applications/microchip/mplabc32/v1.11a/bin/../lib/gcc/pic32mx/3.4.4/../../../../pic32mx/lib/libc.a(memcpy.o)
                                                  build/mega/production/startup.o
U2MODESET                                         /Applications/microchip/mplabc32/v1.11a/bin/../lib/gcc/pic32mx/3.4.4/../../../../pic32mx/lib/./proc/32MX795F512L/processor.o
                                                  /Applications/microchip/mplabc32/v1.11a/bin/../lib/gcc/pic32mx/3.4.4/../../../../pic32mx/lib/libc.a(memcpy.o)
                                                  build/mega/production/startup.o
U2RXREG                                           /Applications/microchip/mplabc32/v1.11a/bin/../lib/gcc/pic32mx/3.4.4/../../../../pic32mx/lib/./proc/32MX795F512L/processor.o
                                                  /Applications/microchip/mplabc32/v1.11a/bin/../lib/gcc/pic32mx/3.4.4/../../../../pic32mx/lib/libc.a(memcpy.o)
                                                  build/mega/production/startup.o
U2STA                                             /Applications/microchip/mplabc32/v1.11a/bin/../lib/gcc/pic32mx/3.4.4/../../../../pic32mx/lib/./proc/32MX795F512L/processor.o
                                                  /Applications/microchip/mplabc32/v1.11a/bin/../lib/gcc/pic32mx/3.4.4/../../../../pic32mx/lib/libc.a(memcpy.o)
                                                  build/mega/production/startup.o
U2STACLR                                          /Applications/microchip/mplabc32/v1.11a/bin/../lib/gcc/pic32mx/3.4.4/../../../../pic32mx/lib/./proc/32MX795F512L/processor.o
                                                  /Applications/microchip/mplabc32/v1.11a/bin/../lib/gcc/pic32mx/3.4.4/../../../../pic32mx/lib/libc.a(memcpy.o)
                                                  build/mega/production/startup.o
U2STAINV                                          /Applications/microchip/mplabc32/v1.11a/bin/../lib/gcc/pic32mx/3.4.4/../../../../pic32mx/lib/./proc/32MX795F512L/processor.o
                                                  /Applications/microchip/mplabc32/v1.11a/bin/../lib/gcc/pic32mx/3.4.4/../../../../pic32mx/lib/libc.a(memcpy.o)
                                                  build/mega/production/startup.o
U2STASET                                          /Applications/microchip/mplabc32/v1.11a/bin/../lib/gcc/pic32mx/3.4.4/../../../../pic32mx/lib/./proc/32MX795F512L/processor.o
                                                  /Applications/microchip/mplabc32/v1.11a/bin/../lib/gcc/pic32mx/3.4.4/../../../../pic32mx/lib/libc.a(memcpy.o)
                                                  build/mega/production/startup.o
U2TXREG                                           /Applications/microchip/mplabc32/v1.11a/bin/../lib/gcc/pic32mx/3.4.4/../../../../pic32mx/lib/./proc/32MX795F512L/processor.o
                                                  /Applications/microchip/mplabc32/v1.11a/bin/../lib/gcc/pic32mx/3.4.4/../../../../pic32mx/lib/libc.a(memcpy.o)
                                                  build/mega/production/startup.o
U3ABRG                                            /Applications/microchip/mplabc32/v1.11a/bin/../lib/gcc/pic32mx/3.4.4/../../../../pic32mx/lib/./proc/32MX795F512L/processor.o
                                                  build/mega/production/startup.o
U3ABRGCLR                                         /Applications/microchip/mplabc32/v1.11a/bin/../lib/gcc/pic32mx/3.4.4/../../../../pic32mx/lib/./proc/32MX795F512L/processor.o
                                                  build/mega/production/startup.o
U3ABRGINV                                         /Applications/microchip/mplabc32/v1.11a/bin/../lib/gcc/pic32mx/3.4.4/../../../../pic32mx/lib/./proc/32MX795F512L/processor.o
                                                  build/mega/production/startup.o
U3ABRGSET                                         /Applications/microchip/mplabc32/v1.11a/bin/../lib/gcc/pic32mx/3.4.4/../../../../pic32mx/lib/./proc/32MX795F512L/processor.o
                                                  build/mega/production/startup.o
U3AMODE                                           /Applications/microchip/mplabc32/v1.11a/bin/../lib/gcc/pic32mx/3.4.4/../../../../pic32mx/lib/./proc/32MX795F512L/processor.o
                                                  build/mega/production/startup.o
U3AMODECLR                                        /Applications/microchip/mplabc32/v1.11a/bin/../lib/gcc/pic32mx/3.4.4/../../../../pic32mx/lib/./proc/32MX795F512L/processor.o
                                                  build/mega/production/startup.o
U3AMODEINV                                        /Applications/microchip/mplabc32/v1.11a/bin/../lib/gcc/pic32mx/3.4.4/../../../../pic32mx/lib/./proc/32MX795F512L/processor.o
                                                  build/mega/production/startup.o
U3AMODESET                                        /Applications/microchip/mplabc32/v1.11a/bin/../lib/gcc/pic32mx/3.4.4/../../../../pic32mx/lib/./proc/32MX795F512L/processor.o
                                                  build/mega/production/startup.o
U3ARXREG                                          /Applications/microchip/mplabc32/v1.11a/bin/../lib/gcc/pic32mx/3.4.4/../../../../pic32mx/lib/./proc/32MX795F512L/processor.o
                                                  build/mega/production/startup.o
U3ASTA                                            /Applications/microchip/mplabc32/v1.11a/bin/../lib/gcc/pic32mx/3.4.4/../../../../pic32mx/lib/./proc/32MX795F512L/processor.o
                                                  build/mega/production/startup.o
U3ASTACLR                                         /Applications/microchip/mplabc32/v1.11a/bin/../lib/gcc/pic32mx/3.4.4/../../../../pic32mx/lib/./proc/32MX795F512L/processor.o
                                                  build/mega/production/startup.o
U3ASTAINV                                         /Applications/microchip/mplabc32/v1.11a/bin/../lib/gcc/pic32mx/3.4.4/../../../../pic32mx/lib/./proc/32MX795F512L/processor.o
                                                  build/mega/production/startup.o
U3ASTASET                                         /Applications/microchip/mplabc32/v1.11a/bin/../lib/gcc/pic32mx/3.4.4/../../../../pic32mx/lib/./proc/32MX795F512L/processor.o
                                                  build/mega/production/startup.o
U3ATXREG                                          /Applications/microchip/mplabc32/v1.11a/bin/../lib/gcc/pic32mx/3.4.4/../../../../pic32mx/lib/./proc/32MX795F512L/processor.o
                                                  build/mega/production/startup.o
U3BBRG                                            /Applications/microchip/mplabc32/v1.11a/bin/../lib/gcc/pic32mx/3.4.4/../../../../pic32mx/lib/./proc/32MX795F512L/processor.o
                                                  build/mega/production/startup.o
U3BBRGCLR                                         /Applications/microchip/mplabc32/v1.11a/bin/../lib/gcc/pic32mx/3.4.4/../../../../pic32mx/lib/./proc/32MX795F512L/processor.o
                                                  build/mega/production/startup.o
U3BBRGINV                                         /Applications/microchip/mplabc32/v1.11a/bin/../lib/gcc/pic32mx/3.4.4/../../../../pic32mx/lib/./proc/32MX795F512L/processor.o
                                                  build/mega/production/startup.o
U3BBRGSET                                         /Applications/microchip/mplabc32/v1.11a/bin/../lib/gcc/pic32mx/3.4.4/../../../../pic32mx/lib/./proc/32MX795F512L/processor.o
                                                  build/mega/production/startup.o
U3BMODE                                           /Applications/microchip/mplabc32/v1.11a/bin/../lib/gcc/pic32mx/3.4.4/../../../../pic32mx/lib/./proc/32MX795F512L/processor.o
                                                  build/mega/production/startup.o
U3BMODECLR                                        /Applications/microchip/mplabc32/v1.11a/bin/../lib/gcc/pic32mx/3.4.4/../../../../pic32mx/lib/./proc/32MX795F512L/processor.o
                                                  build/mega/production/startup.o
U3BMODEINV                                        /Applications/microchip/mplabc32/v1.11a/bin/../lib/gcc/pic32mx/3.4.4/../../../../pic32mx/lib/./proc/32MX795F512L/processor.o
                                                  build/mega/production/startup.o
U3BMODESET                                        /Applications/microchip/mplabc32/v1.11a/bin/../lib/gcc/pic32mx/3.4.4/../../../../pic32mx/lib/./proc/32MX795F512L/processor.o
                                                  build/mega/production/startup.o
U3BRXREG                                          /Applications/microchip/mplabc32/v1.11a/bin/../lib/gcc/pic32mx/3.4.4/../../../../pic32mx/lib/./proc/32MX795F512L/processor.o
                                                  build/mega/production/startup.o
U3BSTA                                            /Applications/microchip/mplabc32/v1.11a/bin/../lib/gcc/pic32mx/3.4.4/../../../../pic32mx/lib/./proc/32MX795F512L/processor.o
                                                  build/mega/production/startup.o
U3BSTACLR                                         /Applications/microchip/mplabc32/v1.11a/bin/../lib/gcc/pic32mx/3.4.4/../../../../pic32mx/lib/./proc/32MX795F512L/processor.o
                                                  build/mega/production/startup.o
U3BSTAINV                                         /Applications/microchip/mplabc32/v1.11a/bin/../lib/gcc/pic32mx/3.4.4/../../../../pic32mx/lib/./proc/32MX795F512L/processor.o
                                                  build/mega/production/startup.o
U3BSTASET                                         /Applications/microchip/mplabc32/v1.11a/bin/../lib/gcc/pic32mx/3.4.4/../../../../pic32mx/lib/./proc/32MX795F512L/processor.o
                                                  build/mega/production/startup.o
U3BTXREG                                          /Applications/microchip/mplabc32/v1.11a/bin/../lib/gcc/pic32mx/3.4.4/../../../../pic32mx/lib/./proc/32MX795F512L/processor.o
                                                  build/mega/production/startup.o
WDTCON                                            /Applications/microchip/mplabc32/v1.11a/bin/../lib/gcc/pic32mx/3.4.4/../../../../pic32mx/lib/./proc/32MX795F512L/processor.o
                                                  /Applications/microchip/mplabc32/v1.11a/bin/../lib/gcc/pic32mx/3.4.4/../../../../pic32mx/lib/libc.a(memcpy.o)
                                                  build/mega/production/startup.o
WDTCONCLR                                         /Applications/microchip/mplabc32/v1.11a/bin/../lib/gcc/pic32mx/3.4.4/../../../../pic32mx/lib/./proc/32MX795F512L/processor.o
                                                  /Applications/microchip/mplabc32/v1.11a/bin/../lib/gcc/pic32mx/3.4.4/../../../../pic32mx/lib/libc.a(memcpy.o)
                                                  build/mega/production/startup.o
WDTCONINV                                         /Applications/microchip/mplabc32/v1.11a/bin/../lib/gcc/pic32mx/3.4.4/../../../../pic32mx/lib/./proc/32MX795F512L/processor.o
                                                  /Applications/microchip/mplabc32/v1.11a/bin/../lib/gcc/pic32mx/3.4.4/../../../../pic32mx/lib/libc.a(memcpy.o)
                                                  build/mega/production/startup.o
WDTCONSET                                         /Applications/microchip/mplabc32/v1.11a/bin/../lib/gcc/pic32mx/3.4.4/../../../../pic32mx/lib/./proc/32MX795F512L/processor.o
                                                  /Applications/microchip/mplabc32/v1.11a/bin/../lib/gcc/pic32mx/3.4.4/../../../../pic32mx/lib/libc.a(memcpy.o)
                                                  build/mega/production/startup.o
_APPI                                             /Applications/microchip/mplabc32/v1.11a/bin/../lib/gcc/pic32mx/3.4.4/../../../../pic32mx/lib/./proc/32MX795F512L/processor.o
                                                  /Applications/microchip/mplabc32/v1.11a/bin/../lib/gcc/pic32mx/3.4.4/../../../../pic32mx/lib/libc.a(memcpy.o)
                                                  build/mega/production/startup.o
_APPO                                             /Applications/microchip/mplabc32/v1.11a/bin/../lib/gcc/pic32mx/3.4.4/../../../../pic32mx/lib/./proc/32MX795F512L/processor.o
                                                  /Applications/microchip/mplabc32/v1.11a/bin/../lib/gcc/pic32mx/3.4.4/../../../../pic32mx/lib/libc.a(memcpy.o)
                                                  build/mega/production/startup.o
_APPOCLR                                          /Applications/microchip/mplabc32/v1.11a/bin/../lib/gcc/pic32mx/3.4.4/../../../../pic32mx/lib/./proc/32MX795F512L/processor.o
                                                  /Applications/microchip/mplabc32/v1.11a/bin/../lib/gcc/pic32mx/3.4.4/../../../../pic32mx/lib/libc.a(memcpy.o)
                                                  build/mega/production/startup.o
_APPOINV                                          /Applications/microchip/mplabc32/v1.11a/bin/../lib/gcc/pic32mx/3.4.4/../../../../pic32mx/lib/./proc/32MX795F512L/processor.o
                                                  /Applications/microchip/mplabc32/v1.11a/bin/../lib/gcc/pic32mx/3.4.4/../../../../pic32mx/lib/libc.a(memcpy.o)
                                                  build/mega/production/startup.o
_APPOSET                                          /Applications/microchip/mplabc32/v1.11a/bin/../lib/gcc/pic32mx/3.4.4/../../../../pic32mx/lib/./proc/32MX795F512L/processor.o
                                                  /Applications/microchip/mplabc32/v1.11a/bin/../lib/gcc/pic32mx/3.4.4/../../../../pic32mx/lib/libc.a(memcpy.o)
                                                  build/mega/production/startup.o
_DDPSTAT                                          /Applications/microchip/mplabc32/v1.11a/bin/../lib/gcc/pic32mx/3.4.4/../../../../pic32mx/lib/./proc/32MX795F512L/processor.o
                                                  /Applications/microchip/mplabc32/v1.11a/bin/../lib/gcc/pic32mx/3.4.4/../../../../pic32mx/lib/libc.a(memcpy.o)
                                                  build/mega/production/startup.o
_NVMOperation                                     /Applications/microchip/mplabc32/v1.11a/bin/../lib/gcc/pic32mx/3.4.4/../../../../pic32mx/lib/libmchp_peripheral_32MX795F512L.a(nvm_operation_lib.o)
                                                  /Applications/microchip/mplabc32/v1.11a/bin/../lib/gcc/pic32mx/3.4.4/../../../../pic32mx/lib/libmchp_peripheral_32MX795F512L.a(nvm_erase_page_lib.o)
                                                  /Applications/microchip/mplabc32/v1.11a/bin/../lib/gcc/pic32mx/3.4.4/../../../../pic32mx/lib/libmchp_peripheral_32MX795F512L.a(nvm_write_row_lib.o)
_STRO                                             /Applications/microchip/mplabc32/v1.11a/bin/../lib/gcc/pic32mx/3.4.4/../../../../pic32mx/lib/./proc/32MX795F512L/processor.o
                                                  /Applications/microchip/mplabc32/v1.11a/bin/../lib/gcc/pic32mx/3.4.4/../../../../pic32mx/lib/libc.a(memcpy.o)
                                                  build/mega/production/startup.o
_STROCLR                                          /Applications/microchip/mplabc32/v1.11a/bin/../lib/gcc/pic32mx/3.4.4/../../../../pic32mx/lib/./proc/32MX795F512L/processor.o
                                                  /Applications/microchip/mplabc32/v1.11a/bin/../lib/gcc/pic32mx/3.4.4/../../../../pic32mx/lib/libc.a(memcpy.o)
                                                  build/mega/production/startup.o
_STROINV                                          /Applications/microchip/mplabc32/v1.11a/bin/../lib/gcc/pic32mx/3.4.4/../../../../pic32mx/lib/./proc/32MX795F512L/processor.o
                                                  /Applications/microchip/mplabc32/v1.11a/bin/../lib/gcc/pic32mx/3.4.4/../../../../pic32mx/lib/libc.a(memcpy.o)
                                                  build/mega/production/startup.o
_STROSET                                          /Applications/microchip/mplabc32/v1.11a/bin/../lib/gcc/pic32mx/3.4.4/../../../../pic32mx/lib/./proc/32MX795F512L/processor.o
                                                  /Applications/microchip/mplabc32/v1.11a/bin/../lib/gcc/pic32mx/3.4.4/../../../../pic32mx/lib/libc.a(memcpy.o)
                                                  build/mega/production/startup.o
__PIC32_pbClk                                     build/mega/production/pic32bootloader.o
__crt0_exit                                       build/mega/production/startup.o
_ebase_address                                    build/mega/production/startup.o
_gp                                               build/mega/production/startup.o
_reset                                            build/mega/production/startup.o
_vector_spacing                                   build/mega/production/startup.o
gEBASEptr                                         build/mega/production/pic32bootloader.o
gEepromIndex                                      build/mega/production/pic32bootloader.o
gFlashDataBuffer                                  build/mega/production/pic32bootloader.o
gFlashIndex                                       build/mega/production/pic32bootloader.o
gFlashPtr                                         build/mega/production/pic32bootloader.o
gPageBuffer                                       build/mega/production/pic32bootloader.o
gRamIndex                                         build/mega/production/pic32bootloader.o
gRamPtr                                           build/mega/production/pic32bootloader.o
gTextMsg_COMPILED_ON                              build/mega/production/pic32bootloader.o
gTextMsg_CPU_Name                                 build/mega/production/pic32bootloader.o
gTextMsg_CPU_Type                                 build/mega/production/pic32bootloader.o
gTextMsg_DEVID                                    build/mega/production/pic32bootloader.o
gTextMsg_Explorer                                 build/mega/production/pic32bootloader.o
gTextMsg_GCC_DATE_STR                             build/mega/production/pic32bootloader.o
gTextMsg_GCC_VERSION                              build/mega/production/pic32bootloader.o
gTextMsg_GCC_VERSION_STR                          build/mega/production/pic32bootloader.o
gTextMsg_HELP_MSG_0                               build/mega/production/pic32bootloader.o
gTextMsg_HELP_MSG_B                               build/mega/production/pic32bootloader.o
gTextMsg_HELP_MSG_F                               build/mega/production/pic32bootloader.o
gTextMsg_HELP_MSG_H                               build/mega/production/pic32bootloader.o
gTextMsg_HELP_MSG_L                               build/mega/production/pic32bootloader.o
gTextMsg_HELP_MSG_Q                               build/mega/production/pic32bootloader.o
gTextMsg_HELP_MSG_QM                              build/mega/production/pic32bootloader.o
gTextMsg_HELP_MSG_R                               build/mega/production/pic32bootloader.o
gTextMsg_HUH                                      build/mega/production/pic32bootloader.o
gTextMsg_Prompt                                   build/mega/production/pic32bootloader.o
main                                              build/mega/production/pic32bootloader.o
                                                  build/mega/production/startup.o
memcpy                                            /Applications/microchip/mplabc32/v1.11a/bin/../lib/gcc/pic32mx/3.4.4/../../../../pic32mx/lib/libc.a(memcpy.o)
                                                  /Applications/microchip/mplabc32/v1.11a/bin/../lib/gcc/pic32mx/3.4.4/../../../../pic32mx/lib/libmchp_peripheral_32MX795F512L.a(nvm_program_lib.o)
