Archive member included because of file (symbol)

/Applications/microchip/mplabc32/v1.11a/bin/../lib/gcc/pic32mx/3.4.4/../../../../pic32mx/lib/libmchp_peripheral.a(open_core_timer_lib.o)
                              build/uno/production/pic32bootloader.o (OpenCoreTimer)
/Applications/microchip/mplabc32/v1.11a/bin/../lib/gcc/pic32mx/3.4.4/../../../../pic32mx/lib/libmchp_peripheral_32MX320F064H.a(pcache.o)
                              build/uno/production/pic32bootloader.o (CheKseg0CacheOn)
/Applications/microchip/mplabc32/v1.11a/bin/../lib/gcc/pic32mx/3.4.4/../../../../pic32mx/lib/libmchp_peripheral_32MX320F064H.a(int_disable_interrupts_lib.o)
                              build/uno/production/pic32bootloader.o (INTDisableInterrupts)
/Applications/microchip/mplabc32/v1.11a/bin/../lib/gcc/pic32mx/3.4.4/../../../../pic32mx/lib/libmchp_peripheral_32MX320F064H.a(int_restore_interrupts_lib.o)
                              build/uno/production/pic32bootloader.o (INTRestoreInterrupts)
/Applications/microchip/mplabc32/v1.11a/bin/../lib/gcc/pic32mx/3.4.4/../../../../pic32mx/lib/libmchp_peripheral_32MX320F064H.a(nvm_program_lib.o)
                              build/uno/production/pic32bootloader.o (NVMProgram)
/Applications/microchip/mplabc32/v1.11a/bin/../lib/gcc/pic32mx/3.4.4/../../../../pic32mx/lib/libmchp_peripheral_32MX320F064H.a(nvm_write_row_lib.o)
                              /Applications/microchip/mplabc32/v1.11a/bin/../lib/gcc/pic32mx/3.4.4/../../../../pic32mx/lib/libmchp_peripheral_32MX320F064H.a(nvm_program_lib.o) (NVMWriteRow)
/Applications/microchip/mplabc32/v1.11a/bin/../lib/gcc/pic32mx/3.4.4/../../../../pic32mx/lib/libmchp_peripheral_32MX320F064H.a(nvm_erase_page_lib.o)
                              /Applications/microchip/mplabc32/v1.11a/bin/../lib/gcc/pic32mx/3.4.4/../../../../pic32mx/lib/libmchp_peripheral_32MX320F064H.a(nvm_program_lib.o) (NVMErasePage)
/Applications/microchip/mplabc32/v1.11a/bin/../lib/gcc/pic32mx/3.4.4/../../../../pic32mx/lib/libmchp_peripheral_32MX320F064H.a(nvm_operation_lib.o)
                              /Applications/microchip/mplabc32/v1.11a/bin/../lib/gcc/pic32mx/3.4.4/../../../../pic32mx/lib/libmchp_peripheral_32MX320F064H.a(nvm_write_row_lib.o) (_NVMOperation)
/Applications/microchip/mplabc32/v1.11a/bin/../lib/gcc/pic32mx/3.4.4/../../../../pic32mx/lib/libc.a(memcpy.o)
                              /Applications/microchip/mplabc32/v1.11a/bin/../lib/gcc/pic32mx/3.4.4/../../../../pic32mx/lib/libmchp_peripheral_32MX320F064H.a(nvm_program_lib.o) (memcpy)

Microchip PIC32 Memory-Usage Report

kseg0 Program-Memory Usage
section                    address  length [bytes]      (dec)  Description
-------                 ----------  -------------------------  -----------
      Total kseg0_program_mem used  :           0           0  

kseg0 Boot-Memory Usage
section                    address  length [bytes]      (dec)  Description
-------                 ----------  -------------------------  -----------
.startup                0x9fc00490           0xbc         188  C startup code 
.text                   0x9fc0054c         0x17a4        6052  Application's executable code 
.rodata                 0x9fc01cf0          0x204         516  Read-only constant data 
         Total kseg0_boot_mem used  :      0x1a64        6756  96.2% of 0x1b70

Exception-Memory Usage 
section                    address  length [bytes]      (dec)  Description
-------                 ----------  -------------------------  -----------
          Total exception_mem used  :           0           0  

kseg1 Boot-Memory Usage
section                    address  length [bytes]      (dec)  Description
-------                 ----------  -------------------------  -----------
.reset                  0xbfc00000           0x10          16  Reset handler 
         Total kseg1_boot_mem used  :        0x10          16  1.4% of 0x490
        --------------------------------------------------------------------------
         Total Program Memory used  :      0x1a74        6772  82.7% of 0x2000
        --------------------------------------------------------------------------


kseg1 Data-Memory Usage
section                    address  length [bytes]      (dec)  Description
-------                 ----------  -------------------------  -----------
.sbss                   0xa0000004           0x1c          28  Small uninitialized data 
.bss                    0xa0000020          0x600        1536  Uninitialized data 
.stack                  0xa0000620          0x400        1024  Minimum space reserved for stack 
         Total kseg1_data_mem used  :       0xa1c        2588  7.9% of 0x7ffc
        --------------------------------------------------------------------------
            Total Data Memory used  :       0xa1c        2588  7.9% of 0x7ffc
        --------------------------------------------------------------------------

Discarded input sections

 .data          0x0000000000000000        0x0 build/uno/production/startup.o
 .bss           0x0000000000000000        0x0 build/uno/production/startup.o
 .reginfo       0x0000000000000000       0x18 build/uno/production/startup.o
 .pdr           0x0000000000000000       0x60 build/uno/production/startup.o
 .text          0x0000000000000000        0x0 build/uno/production/pic32bootloader.o
 .data          0x0000000000000000        0x0 build/uno/production/pic32bootloader.o
 .bss           0x0000000000000000        0x0 build/uno/production/pic32bootloader.o
 .reginfo       0x0000000000000000       0x18 build/uno/production/pic32bootloader.o
 .pdr           0x0000000000000000      0x300 build/uno/production/pic32bootloader.o
 .text.delay_ms
                0x0000000000000000       0x48 build/uno/production/pic32bootloader.o
 .text.DebugTimeOut
                0x0000000000000000       0x8c build/uno/production/pic32bootloader.o
 .text.PrintDecInt
                0x0000000000000000       0xe0 build/uno/production/pic32bootloader.o
 .text          0x0000000000000000        0x0 /Applications/microchip/mplabc32/v1.11a/bin/../lib/gcc/pic32mx/3.4.4/../../../../pic32mx/lib/./proc/32MX320F064H/processor.o
 .data          0x0000000000000000        0x0 /Applications/microchip/mplabc32/v1.11a/bin/../lib/gcc/pic32mx/3.4.4/../../../../pic32mx/lib/./proc/32MX320F064H/processor.o
 .bss           0x0000000000000000        0x0 /Applications/microchip/mplabc32/v1.11a/bin/../lib/gcc/pic32mx/3.4.4/../../../../pic32mx/lib/./proc/32MX320F064H/processor.o
 .reginfo       0x0000000000000000       0x18 /Applications/microchip/mplabc32/v1.11a/bin/../lib/gcc/pic32mx/3.4.4/../../../../pic32mx/lib/./proc/32MX320F064H/processor.o
 .pdr           0x0000000000000000        0x0 /Applications/microchip/mplabc32/v1.11a/bin/../lib/gcc/pic32mx/3.4.4/../../../../pic32mx/lib/./proc/32MX320F064H/processor.o
 .text          0x0000000000000000        0x0 /Applications/microchip/mplabc32/v1.11a/bin/../lib/gcc/pic32mx/3.4.4/../../../../pic32mx/lib/libmchp_peripheral.a(open_core_timer_lib.o)
 .data          0x0000000000000000        0x0 /Applications/microchip/mplabc32/v1.11a/bin/../lib/gcc/pic32mx/3.4.4/../../../../pic32mx/lib/libmchp_peripheral.a(open_core_timer_lib.o)
 .bss           0x0000000000000000        0x0 /Applications/microchip/mplabc32/v1.11a/bin/../lib/gcc/pic32mx/3.4.4/../../../../pic32mx/lib/libmchp_peripheral.a(open_core_timer_lib.o)
 .reginfo       0x0000000000000000       0x18 /Applications/microchip/mplabc32/v1.11a/bin/../lib/gcc/pic32mx/3.4.4/../../../../pic32mx/lib/libmchp_peripheral.a(open_core_timer_lib.o)
 .pdr           0x0000000000000000       0x20 /Applications/microchip/mplabc32/v1.11a/bin/../lib/gcc/pic32mx/3.4.4/../../../../pic32mx/lib/libmchp_peripheral.a(open_core_timer_lib.o)
 .text          0x0000000000000000        0x0 /Applications/microchip/mplabc32/v1.11a/bin/../lib/gcc/pic32mx/3.4.4/../../../../pic32mx/lib/libmchp_peripheral_32MX320F064H.a(pcache.o)
 .data          0x0000000000000000        0x0 /Applications/microchip/mplabc32/v1.11a/bin/../lib/gcc/pic32mx/3.4.4/../../../../pic32mx/lib/libmchp_peripheral_32MX320F064H.a(pcache.o)
 .bss           0x0000000000000000        0x0 /Applications/microchip/mplabc32/v1.11a/bin/../lib/gcc/pic32mx/3.4.4/../../../../pic32mx/lib/libmchp_peripheral_32MX320F064H.a(pcache.o)
 .reginfo       0x0000000000000000       0x18 /Applications/microchip/mplabc32/v1.11a/bin/../lib/gcc/pic32mx/3.4.4/../../../../pic32mx/lib/libmchp_peripheral_32MX320F064H.a(pcache.o)
 .pdr           0x0000000000000000       0x40 /Applications/microchip/mplabc32/v1.11a/bin/../lib/gcc/pic32mx/3.4.4/../../../../pic32mx/lib/libmchp_peripheral_32MX320F064H.a(pcache.o)
 .text.CheKseg0CacheOff
                0x0000000000000000       0x18 /Applications/microchip/mplabc32/v1.11a/bin/../lib/gcc/pic32mx/3.4.4/../../../../pic32mx/lib/libmchp_peripheral_32MX320F064H.a(pcache.o)
 .text          0x0000000000000000        0x0 /Applications/microchip/mplabc32/v1.11a/bin/../lib/gcc/pic32mx/3.4.4/../../../../pic32mx/lib/libmchp_peripheral_32MX320F064H.a(int_disable_interrupts_lib.o)
 .data          0x0000000000000000        0x0 /Applications/microchip/mplabc32/v1.11a/bin/../lib/gcc/pic32mx/3.4.4/../../../../pic32mx/lib/libmchp_peripheral_32MX320F064H.a(int_disable_interrupts_lib.o)
 .bss           0x0000000000000000        0x0 /Applications/microchip/mplabc32/v1.11a/bin/../lib/gcc/pic32mx/3.4.4/../../../../pic32mx/lib/libmchp_peripheral_32MX320F064H.a(int_disable_interrupts_lib.o)
 .reginfo       0x0000000000000000       0x18 /Applications/microchip/mplabc32/v1.11a/bin/../lib/gcc/pic32mx/3.4.4/../../../../pic32mx/lib/libmchp_peripheral_32MX320F064H.a(int_disable_interrupts_lib.o)
 .pdr           0x0000000000000000       0x20 /Applications/microchip/mplabc32/v1.11a/bin/../lib/gcc/pic32mx/3.4.4/../../../../pic32mx/lib/libmchp_peripheral_32MX320F064H.a(int_disable_interrupts_lib.o)
 .text          0x0000000000000000        0x0 /Applications/microchip/mplabc32/v1.11a/bin/../lib/gcc/pic32mx/3.4.4/../../../../pic32mx/lib/libmchp_peripheral_32MX320F064H.a(int_restore_interrupts_lib.o)
 .data          0x0000000000000000        0x0 /Applications/microchip/mplabc32/v1.11a/bin/../lib/gcc/pic32mx/3.4.4/../../../../pic32mx/lib/libmchp_peripheral_32MX320F064H.a(int_restore_interrupts_lib.o)
 .bss           0x0000000000000000        0x0 /Applications/microchip/mplabc32/v1.11a/bin/../lib/gcc/pic32mx/3.4.4/../../../../pic32mx/lib/libmchp_peripheral_32MX320F064H.a(int_restore_interrupts_lib.o)
 .reginfo       0x0000000000000000       0x18 /Applications/microchip/mplabc32/v1.11a/bin/../lib/gcc/pic32mx/3.4.4/../../../../pic32mx/lib/libmchp_peripheral_32MX320F064H.a(int_restore_interrupts_lib.o)
 .pdr           0x0000000000000000       0x20 /Applications/microchip/mplabc32/v1.11a/bin/../lib/gcc/pic32mx/3.4.4/../../../../pic32mx/lib/libmchp_peripheral_32MX320F064H.a(int_restore_interrupts_lib.o)
 .text          0x0000000000000000        0x0 /Applications/microchip/mplabc32/v1.11a/bin/../lib/gcc/pic32mx/3.4.4/../../../../pic32mx/lib/libmchp_peripheral_32MX320F064H.a(nvm_program_lib.o)
 .data          0x0000000000000000        0x0 /Applications/microchip/mplabc32/v1.11a/bin/../lib/gcc/pic32mx/3.4.4/../../../../pic32mx/lib/libmchp_peripheral_32MX320F064H.a(nvm_program_lib.o)
 .bss           0x0000000000000000        0x0 /Applications/microchip/mplabc32/v1.11a/bin/../lib/gcc/pic32mx/3.4.4/../../../../pic32mx/lib/libmchp_peripheral_32MX320F064H.a(nvm_program_lib.o)
 .reginfo       0x0000000000000000       0x18 /Applications/microchip/mplabc32/v1.11a/bin/../lib/gcc/pic32mx/3.4.4/../../../../pic32mx/lib/libmchp_peripheral_32MX320F064H.a(nvm_program_lib.o)
 .pdr           0x0000000000000000       0x20 /Applications/microchip/mplabc32/v1.11a/bin/../lib/gcc/pic32mx/3.4.4/../../../../pic32mx/lib/libmchp_peripheral_32MX320F064H.a(nvm_program_lib.o)
 .text          0x0000000000000000        0x0 /Applications/microchip/mplabc32/v1.11a/bin/../lib/gcc/pic32mx/3.4.4/../../../../pic32mx/lib/libmchp_peripheral_32MX320F064H.a(nvm_write_row_lib.o)
 .data          0x0000000000000000        0x0 /Applications/microchip/mplabc32/v1.11a/bin/../lib/gcc/pic32mx/3.4.4/../../../../pic32mx/lib/libmchp_peripheral_32MX320F064H.a(nvm_write_row_lib.o)
 .bss           0x0000000000000000        0x0 /Applications/microchip/mplabc32/v1.11a/bin/../lib/gcc/pic32mx/3.4.4/../../../../pic32mx/lib/libmchp_peripheral_32MX320F064H.a(nvm_write_row_lib.o)
 .reginfo       0x0000000000000000       0x18 /Applications/microchip/mplabc32/v1.11a/bin/../lib/gcc/pic32mx/3.4.4/../../../../pic32mx/lib/libmchp_peripheral_32MX320F064H.a(nvm_write_row_lib.o)
 .pdr           0x0000000000000000       0x20 /Applications/microchip/mplabc32/v1.11a/bin/../lib/gcc/pic32mx/3.4.4/../../../../pic32mx/lib/libmchp_peripheral_32MX320F064H.a(nvm_write_row_lib.o)
 .text          0x0000000000000000        0x0 /Applications/microchip/mplabc32/v1.11a/bin/../lib/gcc/pic32mx/3.4.4/../../../../pic32mx/lib/libmchp_peripheral_32MX320F064H.a(nvm_erase_page_lib.o)
 .data          0x0000000000000000        0x0 /Applications/microchip/mplabc32/v1.11a/bin/../lib/gcc/pic32mx/3.4.4/../../../../pic32mx/lib/libmchp_peripheral_32MX320F064H.a(nvm_erase_page_lib.o)
 .bss           0x0000000000000000        0x0 /Applications/microchip/mplabc32/v1.11a/bin/../lib/gcc/pic32mx/3.4.4/../../../../pic32mx/lib/libmchp_peripheral_32MX320F064H.a(nvm_erase_page_lib.o)
 .reginfo       0x0000000000000000       0x18 /Applications/microchip/mplabc32/v1.11a/bin/../lib/gcc/pic32mx/3.4.4/../../../../pic32mx/lib/libmchp_peripheral_32MX320F064H.a(nvm_erase_page_lib.o)
 .pdr           0x0000000000000000       0x20 /Applications/microchip/mplabc32/v1.11a/bin/../lib/gcc/pic32mx/3.4.4/../../../../pic32mx/lib/libmchp_peripheral_32MX320F064H.a(nvm_erase_page_lib.o)
 .text          0x0000000000000000        0x0 /Applications/microchip/mplabc32/v1.11a/bin/../lib/gcc/pic32mx/3.4.4/../../../../pic32mx/lib/libmchp_peripheral_32MX320F064H.a(nvm_operation_lib.o)
 .data          0x0000000000000000        0x0 /Applications/microchip/mplabc32/v1.11a/bin/../lib/gcc/pic32mx/3.4.4/../../../../pic32mx/lib/libmchp_peripheral_32MX320F064H.a(nvm_operation_lib.o)
 .bss           0x0000000000000000        0x0 /Applications/microchip/mplabc32/v1.11a/bin/../lib/gcc/pic32mx/3.4.4/../../../../pic32mx/lib/libmchp_peripheral_32MX320F064H.a(nvm_operation_lib.o)
 .reginfo       0x0000000000000000       0x18 /Applications/microchip/mplabc32/v1.11a/bin/../lib/gcc/pic32mx/3.4.4/../../../../pic32mx/lib/libmchp_peripheral_32MX320F064H.a(nvm_operation_lib.o)
 .pdr           0x0000000000000000       0x20 /Applications/microchip/mplabc32/v1.11a/bin/../lib/gcc/pic32mx/3.4.4/../../../../pic32mx/lib/libmchp_peripheral_32MX320F064H.a(nvm_operation_lib.o)
 .data          0x0000000000000000        0x0 /Applications/microchip/mplabc32/v1.11a/bin/../lib/gcc/pic32mx/3.4.4/../../../../pic32mx/lib/libc.a(memcpy.o)
 .bss           0x0000000000000000        0x0 /Applications/microchip/mplabc32/v1.11a/bin/../lib/gcc/pic32mx/3.4.4/../../../../pic32mx/lib/libc.a(memcpy.o)
 .reginfo       0x0000000000000000       0x18 /Applications/microchip/mplabc32/v1.11a/bin/../lib/gcc/pic32mx/3.4.4/../../../../pic32mx/lib/libc.a(memcpy.o)
 .pdr           0x0000000000000000       0x20 /Applications/microchip/mplabc32/v1.11a/bin/../lib/gcc/pic32mx/3.4.4/../../../../pic32mx/lib/libc.a(memcpy.o)

Memory Configuration

Name             Origin             Length             Attributes
kseg0_program_mem 0x000000009d000000 0x0000000000000000 xr
//kseg0_boot_mem 0x000000009fc00490 0x0000000000000970 xr
//exception_mem  0x000000009fc01180 0x0000000000000090
//kseg0_boot_memB 0x000000009fc01210 0x0000000000000df0 xr
kseg0_boot_mem   0x000000009fc00490 0x0000000000001b70 xr
exception_mem    0x000000009fc00000 0x0000000000000000
kseg1_boot_mem   0x00000000bfc00000 0x0000000000000490
debug_exec_mem   0x00000000bfc02000 0x0000000000000ff0
config3          0x00000000bfc02ff0 0x0000000000000004
config2          0x00000000bfc02ff4 0x0000000000000004
config1          0x00000000bfc02ff8 0x0000000000000004
config0          0x00000000bfc02ffc 0x0000000000000004
boot_software_key 0x00000000a0000000 0x0000000000000004
kseg1_data_mem   0x00000000a0000004 0x0000000000007ffc w !x
sfrs             0x00000000bf800000 0x0000000000100000
*default*        0x0000000000000000 0xffffffffffffffff

Linker script and memory map

LOAD build/uno/production/startup.o
LOAD build/uno/production/pic32bootloader.o
                0x0000000000000001                __MPLAB_BUILD = 0x1
                0x0000000000000400                PROVIDE (_min_stack_size, 0x400)
                0x0000000000000000                PROVIDE (_min_heap_size, 0x0)
LOAD /Applications/microchip/mplabc32/v1.11a/bin/../lib/gcc/pic32mx/3.4.4/../../../../pic32mx/lib/./proc/32MX320F064H/processor.o
                0x0000000000000001                PROVIDE (_vector_spacing, 0x1)
                0x000000009fc01000                //_ebase_address = 0x9fc01000
                0x0000000000000000                _ebase_address = 0x0
                0x00000000bfc00000                //_general_exception_context = 0xbfc00000
                0x00000000bfc00000                //_on_bootstrap = 0xbfc00000
                0x00000000bfc00000                _RESET_ADDR = 0xbfc00000
                0x00000000bfc00380                _BEV_EXCPT_ADDR = 0xbfc00380
                0x00000000bfc00480                _DBG_EXCPT_ADDR = 0xbfc00480
                0x00000000bfc02000                _DBG_CODE_ADDR = 0xbfc02000
                0x0000000000000180                _GEN_EXCPT_ADDR = (_ebase_address + 0x180)

.boot_software_key_sec
 *(.boot_software_key_sec)

.config_BFC02FF0
 *(.config_BFC02FF0)

.config_BFC02FF4
                0x00000000bfc02ff4        0x4
 *(.config_BFC02FF4)
 .config_BFC02FF4
                0x00000000bfc02ff4        0x4 build/uno/production/pic32bootloader.o

.config_BFC02FF8
                0x00000000bfc02ff8        0x4
 *(.config_BFC02FF8)
 .config_BFC02FF8
                0x00000000bfc02ff8        0x4 build/uno/production/pic32bootloader.o

.config_BFC02FFC
                0x00000000bfc02ffc        0x4
 *(.config_BFC02FFC)
 .config_BFC02FFC
                0x00000000bfc02ffc        0x4 build/uno/production/pic32bootloader.o

.reset          0x00000000bfc00000       0x10
 *(.reset)
 .reset         0x00000000bfc00000       0x10 build/uno/production/startup.o
                0x00000000bfc00000                _reset

.dbg_excpt      0x00000000bfc00480        0x0
                0x00000000bfc00480                . = (. + DEFINED (_DEBUGGER)?0x8:0x0)

.dbg_code       0x00000000bfc02000        0x0
                0x00000000bfc02000                . = (. + DEFINED (_DEBUGGER)?0xff0:0x0)

/DISCARD/
 *(.gen_handler)
 *(.vector_0)
 *(.pdr)
 *(.reginfo)
 *(.rel.dyn)
 *(.note.GNU-stack)

.startup        0x000000009fc00490       0xbc
 *(.startup)
 .startup       0x000000009fc00490       0xbc build/uno/production/startup.o

.text           0x000000009fc0054c     0x17a4
                0x000000009fc0054c                _text_begin = .
 *(.text .stub .text.* .gnu.linkonce.t.*)
 .text          0x000000009fc0054c       0x10 build/uno/production/startup.o
                0x000000009fc00554                __crt0_exit
 .text.Serial_print
                0x000000009fc0055c       0x40 build/uno/production/pic32bootloader.o
 .text.Serial_println
                0x000000009fc0059c       0x40 build/uno/production/pic32bootloader.o
 .text.JumpToApp
                0x000000009fc005dc       0x34 build/uno/production/pic32bootloader.o
 .text.Serial_read_timeout
                0x000000009fc00610       0xa0 build/uno/production/pic32bootloader.o
 .text.delay_microSeconds
                0x000000009fc006b0       0x50 build/uno/production/pic32bootloader.o
 .text.InitFlashBuffer
                0x000000009fc00700       0x2c build/uno/production/pic32bootloader.o
 .text.boot_page_write
                0x000000009fc0072c       0x34 build/uno/production/pic32bootloader.o
 .text.boot_page_fill
                0x000000009fc00760       0x34 build/uno/production/pic32bootloader.o
 .text.pgm_read_word_far
                0x000000009fc00794       0x1c build/uno/production/pic32bootloader.o
 .text.main     0x000000009fc007b0      0x8a8 build/uno/production/pic32bootloader.o
                0x000000009fc007b0                main
 .text.PrintFromPROGMEM
                0x000000009fc01058       0x48 build/uno/production/pic32bootloader.o
 .text.PrintFromPROGMEMln
                0x000000009fc010a0       0x24 build/uno/production/pic32bootloader.o
 .text.PrintHexByte
                0x000000009fc010c4       0x84 build/uno/production/pic32bootloader.o
 .text.PrintHexLong
                0x000000009fc01148       0x40 build/uno/production/pic32bootloader.o
 .text.PrintCPUstats
                0x000000009fc01188       0xa8 build/uno/production/pic32bootloader.o
 .text.BlinkLED
                0x000000009fc01230       0x80 build/uno/production/pic32bootloader.o
 .text.DumpHex  0x000000009fc012b0      0x204 build/uno/production/pic32bootloader.o
 .text.PrintAvailablePort
                0x000000009fc014b4       0x78 build/uno/production/pic32bootloader.o
 .text.ListAvailablePorts
                0x000000009fc0152c       0x8c build/uno/production/pic32bootloader.o
 .text.PrintHelp
                0x000000009fc015b8       0x94 build/uno/production/pic32bootloader.o
 .text.RunMonitor
                0x000000009fc0164c      0x2c4 build/uno/production/pic32bootloader.o
 .text.OpenCoreTimer
                0x000000009fc01910        0xc /Applications/microchip/mplabc32/v1.11a/bin/../lib/gcc/pic32mx/3.4.4/../../../../pic32mx/lib/libmchp_peripheral.a(open_core_timer_lib.o)
                0x000000009fc01910                OpenCoreTimer
 .text.CheKseg0CacheOn
                0x000000009fc0191c       0x18 /Applications/microchip/mplabc32/v1.11a/bin/../lib/gcc/pic32mx/3.4.4/../../../../pic32mx/lib/libmchp_peripheral_32MX320F064H.a(pcache.o)
                0x000000009fc0191c                CheKseg0CacheOn
 .text.INTDisableInterrupts
                0x000000009fc01934        0x8 /Applications/microchip/mplabc32/v1.11a/bin/../lib/gcc/pic32mx/3.4.4/../../../../pic32mx/lib/libmchp_peripheral_32MX320F064H.a(int_disable_interrupts_lib.o)
                0x000000009fc01934                INTDisableInterrupts
 .text.INTRestoreInterrupts
                0x000000009fc0193c       0x1c /Applications/microchip/mplabc32/v1.11a/bin/../lib/gcc/pic32mx/3.4.4/../../../../pic32mx/lib/libmchp_peripheral_32MX320F064H.a(int_restore_interrupts_lib.o)
                0x000000009fc0193c                INTRestoreInterrupts
 .text.NVMProgram
                0x000000009fc01958      0x12c /Applications/microchip/mplabc32/v1.11a/bin/../lib/gcc/pic32mx/3.4.4/../../../../pic32mx/lib/libmchp_peripheral_32MX320F064H.a(nvm_program_lib.o)
                0x000000009fc01958                NVMProgram
 .text.NVMWriteRow
                0x000000009fc01a84       0x40 /Applications/microchip/mplabc32/v1.11a/bin/../lib/gcc/pic32mx/3.4.4/../../../../pic32mx/lib/libmchp_peripheral_32MX320F064H.a(nvm_write_row_lib.o)
                0x000000009fc01a84                NVMWriteRow
 .text.NVMErasePage
                0x000000009fc01ac4       0x34 /Applications/microchip/mplabc32/v1.11a/bin/../lib/gcc/pic32mx/3.4.4/../../../../pic32mx/lib/libmchp_peripheral_32MX320F064H.a(nvm_erase_page_lib.o)
                0x000000009fc01ac4                NVMErasePage
 .text._NVMOperation
                0x000000009fc01af8       0x90 /Applications/microchip/mplabc32/v1.11a/bin/../lib/gcc/pic32mx/3.4.4/../../../../pic32mx/lib/libmchp_peripheral_32MX320F064H.a(nvm_operation_lib.o)
                0x000000009fc01af8                _NVMOperation
 .text          0x000000009fc01b88      0x168 /Applications/microchip/mplabc32/v1.11a/bin/../lib/gcc/pic32mx/3.4.4/../../../../pic32mx/lib/libc.a(memcpy.o)
                0x000000009fc01b88                memcpy
 *(.text.*personality*)
 *(.gnu.warning)
 *(.mips16.fn.*)
 *(.mips16.call.*)
                0x000000009fc01cf0                _text_end = .

.rodata         0x000000009fc01cf0      0x204
 *(.rodata .rodata.* .gnu.linkonce.r.*)
 .rodata.str1.4
                0x000000009fc01cf0       0x24 build/uno/production/pic32bootloader.o
 .rodata        0x000000009fc01d14       0x90 build/uno/production/pic32bootloader.o
 .rodata.gTextMsg_CPU_Name
                0x000000009fc01da4       0x10 build/uno/production/pic32bootloader.o
                0x000000009fc01da4                gTextMsg_CPU_Name
 .rodata.gTextMsg_Explorer
                0x000000009fc01db4       0x1c build/uno/production/pic32bootloader.o
                0x000000009fc01db4                gTextMsg_Explorer
 .rodata.gTextMsg_Prompt
                0x000000009fc01dd0        0xc build/uno/production/pic32bootloader.o
                0x000000009fc01dd0                gTextMsg_Prompt
 .rodata.gTextMsg_HUH
                0x000000009fc01ddc        0x8 build/uno/production/pic32bootloader.o
                0x000000009fc01ddc                gTextMsg_HUH
 .rodata.gTextMsg_COMPILED_ON
                0x000000009fc01de4       0x10 build/uno/production/pic32bootloader.o
                0x000000009fc01de4                gTextMsg_COMPILED_ON
 .rodata.gTextMsg_GCC_DATE_STR
                0x000000009fc01df4        0xc build/uno/production/pic32bootloader.o
                0x000000009fc01df4                gTextMsg_GCC_DATE_STR
 .rodata.gTextMsg_CPU_Type
                0x000000009fc01e00       0x10 build/uno/production/pic32bootloader.o
                0x000000009fc01e00                gTextMsg_CPU_Type
 .rodata.gTextMsg_DEVID
                0x000000009fc01e10       0x10 build/uno/production/pic32bootloader.o
                0x000000009fc01e10                gTextMsg_DEVID
 .rodata.gTextMsg_GCC_VERSION
                0x000000009fc01e20       0x10 build/uno/production/pic32bootloader.o
                0x000000009fc01e20                gTextMsg_GCC_VERSION
 .rodata.gTextMsg_GCC_VERSION_STR
                0x000000009fc01e30       0x44 build/uno/production/pic32bootloader.o
                0x000000009fc01e30                gTextMsg_GCC_VERSION_STR
 .rodata.gTextMsg_HELP_MSG_0
                0x000000009fc01e74       0x14 build/uno/production/pic32bootloader.o
                0x000000009fc01e74                gTextMsg_HELP_MSG_0
 .rodata.gTextMsg_HELP_MSG_QM
                0x000000009fc01e88        0xc build/uno/production/pic32bootloader.o
                0x000000009fc01e88                gTextMsg_HELP_MSG_QM
 .rodata.gTextMsg_HELP_MSG_B
                0x000000009fc01e94        0xc build/uno/production/pic32bootloader.o
                0x000000009fc01e94                gTextMsg_HELP_MSG_B
 .rodata.gTextMsg_HELP_MSG_F
                0x000000009fc01ea0       0x10 build/uno/production/pic32bootloader.o
                0x000000009fc01ea0                gTextMsg_HELP_MSG_F
 .rodata.gTextMsg_HELP_MSG_H
                0x000000009fc01eb0        0x8 build/uno/production/pic32bootloader.o
                0x000000009fc01eb0                gTextMsg_HELP_MSG_H
 .rodata.gTextMsg_HELP_MSG_L
                0x000000009fc01eb8       0x14 build/uno/production/pic32bootloader.o
                0x000000009fc01eb8                gTextMsg_HELP_MSG_L
 .rodata.gTextMsg_HELP_MSG_Q
                0x000000009fc01ecc       0x1c build/uno/production/pic32bootloader.o
                0x000000009fc01ecc                gTextMsg_HELP_MSG_Q
 .rodata.gTextMsg_HELP_MSG_R
                0x000000009fc01ee8        0xc build/uno/production/pic32bootloader.o
                0x000000009fc01ee8                gTextMsg_HELP_MSG_R
 *(.rodata1)
                0x000000009fc01ef4                . = ALIGN (0x4)

.sdata2         0x000000009fc01ef4        0x0
 *(.sdata2 .sdata2.* .gnu.linkonce.s2.*)
                0x000000009fc01ef4                . = ALIGN (0x4)

.sbss2          0x000000009fc01ef4        0x0
 *(.sbss2 .sbss2.* .gnu.linkonce.sb2.*)
                0x000000009fc01ef4                . = ALIGN (0x4)

.eh_frame_hdr
 *(.eh_frame_hdr)

.eh_frame
 *(.eh_frame)

.dbg_data       0x00000000a0000004        0x0
                0x00000000a0000004                . = (. + DEFINED (_DEBUGGER)?0x200:0x0)

.data           0x00000000a0000004        0x0 load address 0x000000009fc01ef4
                0x00000000a0000004                _data_begin = .
 *(.data .data.* .gnu.linkonce.d.*)
 *(.gnu.linkonce.d.*personality*)
 *(.data1)
                0x000000009fc01ef4                _data_image_begin = LOADADDR (.data)

.eh_frame
 *(.eh_frame)
                0x00000000a0000004                . = .
                0x00000000a0008000                _gp = (ALIGN (0x10) + 0x7ff0)

.got
 *(.got.plt)
 *(.got)

.sdata          0x00000000a0000004        0x0 load address 0x000000009fc01ef4
                0x00000000a0000004                _sdata_begin = .
 *(.sdata .sdata.* .gnu.linkonce.s.*)
                0x00000000a0000004                _sdata_end = .

.lit8
 *(.lit8)

.lit4
 *(.lit4)
                0x00000000a0000004                . = ALIGN (0x4)
                0x00000000a0000004                _data_end = .
                0x00000000a0000004                _bss_begin = .

.sbss           0x00000000a0000004       0x1c load address 0x000000009fc01ef4
                0x00000000a0000004                _sbss_begin = .
 *(.dynsbss)
 *(.sbss .sbss.* .gnu.linkonce.sb.*)
 .sbss.gFlashPtr
                0x00000000a0000004        0x4 build/uno/production/pic32bootloader.o
                0x00000000a0000004                gFlashPtr
 .sbss.gEBASEptr
                0x00000000a0000008        0x4 build/uno/production/pic32bootloader.o
                0x00000000a0000008                gEBASEptr
 .sbss.__PIC32_pbClk
                0x00000000a000000c        0x4 build/uno/production/pic32bootloader.o
                0x00000000a000000c                __PIC32_pbClk
 .sbss.gRamPtr  0x00000000a0000010        0x4 build/uno/production/pic32bootloader.o
                0x00000000a0000010                gRamPtr
 .sbss.gRamIndex
                0x00000000a0000014        0x4 build/uno/production/pic32bootloader.o
                0x00000000a0000014                gRamIndex
 .sbss.gFlashIndex
                0x00000000a0000018        0x4 build/uno/production/pic32bootloader.o
                0x00000000a0000018                gFlashIndex
 .sbss.gEepromIndex
                0x00000000a000001c        0x4 build/uno/production/pic32bootloader.o
                0x00000000a000001c                gEepromIndex
 *(.scommon)
                0x00000000a0000020                _sbss_end = .

.bss            0x00000000a0000020      0x600 load address 0x000000009fc01ef4
 *(.dynbss)
 *(.bss .bss.* .gnu.linkonce.b.*)
 .bss.gFlashDataBuffer
                0x00000000a0000020      0x200 build/uno/production/pic32bootloader.o
                0x00000000a0000020                gFlashDataBuffer
 .bss.gPageBuffer
                0x00000000a0000220      0x400 build/uno/production/pic32bootloader.o
                0x00000000a0000220                gPageBuffer
 *(COMMON)
                0x00000000a0000620                . = ALIGN (0x4)
                0x00000000a0000620                . = ALIGN (0x4)
                0x00000000a0000620                _end = .
                0x00000000a0000620                _bss_end = .

.heap           0x00000000a0000620        0x0 load address 0x000000009fc01ef4
                0x00000000a0000620                _heap = .
                0x00000000a0000620                . = (. + _min_heap_size)
                0x00000000a0000620                . = ALIGN (0x8)

.stack          0x00000000a0000620      0x400 load address 0x000000009fc01ef4
                0x00000000a0000620                _splim = .
                0x00000000a0000620                _SPLIM = .
                0x00000000a0000a20                . = (. + _min_stack_size)
 *fill*         0x00000000a0000620      0x400 00
                0x00000000a0000a20                . = ALIGN (0x8)

.ramfunc        0x00000000a0001000        0x0 load address 0x000000009fc01ef4
                0x00000000a0001000                _ramfunc_begin = .
 *(.ramfunc .ramfunc.*)
                0x00000000a0001000                . = ALIGN (0x4)
                0x00000000a0001000                _ramfunc_end = .
                0x000000009fc01ef4                _ramfunc_image_begin = LOADADDR (.ramfunc)
                0x0000000000000000                _ramfunc_length = SIZEOF (.ramfunc)
                0x0000000000000ffc                _bmxdkpba_address = (_ramfunc_begin - 0xa0000004)
                0x0000000000007ffc                _bmxdudba_address = 0x7ffc
                0x0000000000007ffc                _bmxdupba_address = 0x7ffc
                0x00000000a0008000                _stack = (_ramfunc_length > 0x0)?(_ramfunc_begin - 0x8):0xa0008000
                0x0000000000000001                ASSERT (((_min_stack_size + _min_heap_size) <= (_stack - _heap)), Not enough space to allocate both stack and heap.  Reduce heap and/or stack size.)

.stab
 *(.stab)

.stabstr
 *(.stabstr)

.stab.excl
 *(.stab.excl)

.stab.exclstr
 *(.stab.exclstr)

.stab.index
 *(.stab.index)

.stab.indexstr
 *(.stab.indexstr)

.mdebug.abi32   0x0000000000000000        0x0
 .mdebug.abi32  0x0000000000000000        0x0 build/uno/production/pic32bootloader.o
 .mdebug.abi32  0x0000000000000000        0x0 /Applications/microchip/mplabc32/v1.11a/bin/../lib/gcc/pic32mx/3.4.4/../../../../pic32mx/lib/libmchp_peripheral.a(open_core_timer_lib.o)
 .mdebug.abi32  0x0000000000000000        0x0 /Applications/microchip/mplabc32/v1.11a/bin/../lib/gcc/pic32mx/3.4.4/../../../../pic32mx/lib/libmchp_peripheral_32MX320F064H.a(pcache.o)
 .mdebug.abi32  0x0000000000000000        0x0 /Applications/microchip/mplabc32/v1.11a/bin/../lib/gcc/pic32mx/3.4.4/../../../../pic32mx/lib/libmchp_peripheral_32MX320F064H.a(int_disable_interrupts_lib.o)
 .mdebug.abi32  0x0000000000000000        0x0 /Applications/microchip/mplabc32/v1.11a/bin/../lib/gcc/pic32mx/3.4.4/../../../../pic32mx/lib/libmchp_peripheral_32MX320F064H.a(int_restore_interrupts_lib.o)
 .mdebug.abi32  0x0000000000000000        0x0 /Applications/microchip/mplabc32/v1.11a/bin/../lib/gcc/pic32mx/3.4.4/../../../../pic32mx/lib/libmchp_peripheral_32MX320F064H.a(nvm_program_lib.o)
 .mdebug.abi32  0x0000000000000000        0x0 /Applications/microchip/mplabc32/v1.11a/bin/../lib/gcc/pic32mx/3.4.4/../../../../pic32mx/lib/libmchp_peripheral_32MX320F064H.a(nvm_write_row_lib.o)
 .mdebug.abi32  0x0000000000000000        0x0 /Applications/microchip/mplabc32/v1.11a/bin/../lib/gcc/pic32mx/3.4.4/../../../../pic32mx/lib/libmchp_peripheral_32MX320F064H.a(nvm_erase_page_lib.o)
 .mdebug.abi32  0x0000000000000000        0x0 /Applications/microchip/mplabc32/v1.11a/bin/../lib/gcc/pic32mx/3.4.4/../../../../pic32mx/lib/libmchp_peripheral_32MX320F064H.a(nvm_operation_lib.o)

.comment        0x0000000000000000      0x2d0
 *(.comment)
 .comment       0x0000000000000000       0x50 build/uno/production/pic32bootloader.o
 .comment       0x0000000000000050       0x50 /Applications/microchip/mplabc32/v1.11a/bin/../lib/gcc/pic32mx/3.4.4/../../../../pic32mx/lib/libmchp_peripheral.a(open_core_timer_lib.o)
 .comment       0x00000000000000a0       0x50 /Applications/microchip/mplabc32/v1.11a/bin/../lib/gcc/pic32mx/3.4.4/../../../../pic32mx/lib/libmchp_peripheral_32MX320F064H.a(pcache.o)
 .comment       0x00000000000000f0       0x50 /Applications/microchip/mplabc32/v1.11a/bin/../lib/gcc/pic32mx/3.4.4/../../../../pic32mx/lib/libmchp_peripheral_32MX320F064H.a(int_disable_interrupts_lib.o)
 .comment       0x0000000000000140       0x50 /Applications/microchip/mplabc32/v1.11a/bin/../lib/gcc/pic32mx/3.4.4/../../../../pic32mx/lib/libmchp_peripheral_32MX320F064H.a(int_restore_interrupts_lib.o)
 .comment       0x0000000000000190       0x50 /Applications/microchip/mplabc32/v1.11a/bin/../lib/gcc/pic32mx/3.4.4/../../../../pic32mx/lib/libmchp_peripheral_32MX320F064H.a(nvm_program_lib.o)
 .comment       0x00000000000001e0       0x50 /Applications/microchip/mplabc32/v1.11a/bin/../lib/gcc/pic32mx/3.4.4/../../../../pic32mx/lib/libmchp_peripheral_32MX320F064H.a(nvm_write_row_lib.o)
 .comment       0x0000000000000230       0x50 /Applications/microchip/mplabc32/v1.11a/bin/../lib/gcc/pic32mx/3.4.4/../../../../pic32mx/lib/libmchp_peripheral_32MX320F064H.a(nvm_erase_page_lib.o)
 .comment       0x0000000000000280       0x50 /Applications/microchip/mplabc32/v1.11a/bin/../lib/gcc/pic32mx/3.4.4/../../../../pic32mx/lib/libmchp_peripheral_32MX320F064H.a(nvm_operation_lib.o)

.debug
 *(.debug)

.line
 *(.line)

.debug_srcinfo
 *(.debug_srcinfo)

.debug_sfnames
 *(.debug_sfnames)

.debug_aranges  0x0000000000000000      0x148
 *(.debug_aranges)
 .debug_aranges
                0x0000000000000000       0x28 /Applications/microchip/mplabc32/v1.11a/bin/../lib/gcc/pic32mx/3.4.4/../../../../pic32mx/lib/libmchp_peripheral.a(open_core_timer_lib.o)
 .debug_aranges
                0x0000000000000028       0x30 /Applications/microchip/mplabc32/v1.11a/bin/../lib/gcc/pic32mx/3.4.4/../../../../pic32mx/lib/libmchp_peripheral_32MX320F064H.a(pcache.o)
 .debug_aranges
                0x0000000000000058       0x28 /Applications/microchip/mplabc32/v1.11a/bin/../lib/gcc/pic32mx/3.4.4/../../../../pic32mx/lib/libmchp_peripheral_32MX320F064H.a(int_disable_interrupts_lib.o)
 .debug_aranges
                0x0000000000000080       0x28 /Applications/microchip/mplabc32/v1.11a/bin/../lib/gcc/pic32mx/3.4.4/../../../../pic32mx/lib/libmchp_peripheral_32MX320F064H.a(int_restore_interrupts_lib.o)
 .debug_aranges
                0x00000000000000a8       0x28 /Applications/microchip/mplabc32/v1.11a/bin/../lib/gcc/pic32mx/3.4.4/../../../../pic32mx/lib/libmchp_peripheral_32MX320F064H.a(nvm_program_lib.o)
 .debug_aranges
                0x00000000000000d0       0x28 /Applications/microchip/mplabc32/v1.11a/bin/../lib/gcc/pic32mx/3.4.4/../../../../pic32mx/lib/libmchp_peripheral_32MX320F064H.a(nvm_write_row_lib.o)
 .debug_aranges
                0x00000000000000f8       0x28 /Applications/microchip/mplabc32/v1.11a/bin/../lib/gcc/pic32mx/3.4.4/../../../../pic32mx/lib/libmchp_peripheral_32MX320F064H.a(nvm_erase_page_lib.o)
 .debug_aranges
                0x0000000000000120       0x28 /Applications/microchip/mplabc32/v1.11a/bin/../lib/gcc/pic32mx/3.4.4/../../../../pic32mx/lib/libmchp_peripheral_32MX320F064H.a(nvm_operation_lib.o)

.debug_pubnames
                0x0000000000000000      0x13f
 *(.debug_pubnames)
 .debug_pubnames
                0x0000000000000000       0x24 /Applications/microchip/mplabc32/v1.11a/bin/../lib/gcc/pic32mx/3.4.4/../../../../pic32mx/lib/libmchp_peripheral.a(open_core_timer_lib.o)
 .debug_pubnames
                0x0000000000000024       0x3b /Applications/microchip/mplabc32/v1.11a/bin/../lib/gcc/pic32mx/3.4.4/../../../../pic32mx/lib/libmchp_peripheral_32MX320F064H.a(pcache.o)
 .debug_pubnames
                0x000000000000005f       0x2b /Applications/microchip/mplabc32/v1.11a/bin/../lib/gcc/pic32mx/3.4.4/../../../../pic32mx/lib/libmchp_peripheral_32MX320F064H.a(int_disable_interrupts_lib.o)
 .debug_pubnames
                0x000000000000008a       0x2b /Applications/microchip/mplabc32/v1.11a/bin/../lib/gcc/pic32mx/3.4.4/../../../../pic32mx/lib/libmchp_peripheral_32MX320F064H.a(int_restore_interrupts_lib.o)
 .debug_pubnames
                0x00000000000000b5       0x21 /Applications/microchip/mplabc32/v1.11a/bin/../lib/gcc/pic32mx/3.4.4/../../../../pic32mx/lib/libmchp_peripheral_32MX320F064H.a(nvm_program_lib.o)
 .debug_pubnames
                0x00000000000000d6       0x22 /Applications/microchip/mplabc32/v1.11a/bin/../lib/gcc/pic32mx/3.4.4/../../../../pic32mx/lib/libmchp_peripheral_32MX320F064H.a(nvm_write_row_lib.o)
 .debug_pubnames
                0x00000000000000f8       0x23 /Applications/microchip/mplabc32/v1.11a/bin/../lib/gcc/pic32mx/3.4.4/../../../../pic32mx/lib/libmchp_peripheral_32MX320F064H.a(nvm_erase_page_lib.o)
 .debug_pubnames
                0x000000000000011b       0x24 /Applications/microchip/mplabc32/v1.11a/bin/../lib/gcc/pic32mx/3.4.4/../../../../pic32mx/lib/libmchp_peripheral_32MX320F064H.a(nvm_operation_lib.o)

.debug_info     0x0000000000000000      0x192
 *(.debug_info .gnu.linkonce.wi.*)
 .debug_info    0x0000000000000000       0x30 /Applications/microchip/mplabc32/v1.11a/bin/../lib/gcc/pic32mx/3.4.4/../../../../pic32mx/lib/libmchp_peripheral.a(open_core_timer_lib.o)
 .debug_info    0x0000000000000030       0x42 /Applications/microchip/mplabc32/v1.11a/bin/../lib/gcc/pic32mx/3.4.4/../../../../pic32mx/lib/libmchp_peripheral_32MX320F064H.a(pcache.o)
 .debug_info    0x0000000000000072       0x30 /Applications/microchip/mplabc32/v1.11a/bin/../lib/gcc/pic32mx/3.4.4/../../../../pic32mx/lib/libmchp_peripheral_32MX320F064H.a(int_disable_interrupts_lib.o)
 .debug_info    0x00000000000000a2       0x30 /Applications/microchip/mplabc32/v1.11a/bin/../lib/gcc/pic32mx/3.4.4/../../../../pic32mx/lib/libmchp_peripheral_32MX320F064H.a(int_restore_interrupts_lib.o)
 .debug_info    0x00000000000000d2       0x30 /Applications/microchip/mplabc32/v1.11a/bin/../lib/gcc/pic32mx/3.4.4/../../../../pic32mx/lib/libmchp_peripheral_32MX320F064H.a(nvm_program_lib.o)
 .debug_info    0x0000000000000102       0x30 /Applications/microchip/mplabc32/v1.11a/bin/../lib/gcc/pic32mx/3.4.4/../../../../pic32mx/lib/libmchp_peripheral_32MX320F064H.a(nvm_write_row_lib.o)
 .debug_info    0x0000000000000132       0x30 /Applications/microchip/mplabc32/v1.11a/bin/../lib/gcc/pic32mx/3.4.4/../../../../pic32mx/lib/libmchp_peripheral_32MX320F064H.a(nvm_erase_page_lib.o)
 .debug_info    0x0000000000000162       0x30 /Applications/microchip/mplabc32/v1.11a/bin/../lib/gcc/pic32mx/3.4.4/../../../../pic32mx/lib/libmchp_peripheral_32MX320F064H.a(nvm_operation_lib.o)

.debug_abbrev   0x0000000000000000      0x118
 *(.debug_abbrev)
 .debug_abbrev  0x0000000000000000       0x23 /Applications/microchip/mplabc32/v1.11a/bin/../lib/gcc/pic32mx/3.4.4/../../../../pic32mx/lib/libmchp_peripheral.a(open_core_timer_lib.o)
 .debug_abbrev  0x0000000000000023       0x23 /Applications/microchip/mplabc32/v1.11a/bin/../lib/gcc/pic32mx/3.4.4/../../../../pic32mx/lib/libmchp_peripheral_32MX320F064H.a(pcache.o)
 .debug_abbrev  0x0000000000000046       0x23 /Applications/microchip/mplabc32/v1.11a/bin/../lib/gcc/pic32mx/3.4.4/../../../../pic32mx/lib/libmchp_peripheral_32MX320F064H.a(int_disable_interrupts_lib.o)
 .debug_abbrev  0x0000000000000069       0x23 /Applications/microchip/mplabc32/v1.11a/bin/../lib/gcc/pic32mx/3.4.4/../../../../pic32mx/lib/libmchp_peripheral_32MX320F064H.a(int_restore_interrupts_lib.o)
 .debug_abbrev  0x000000000000008c       0x23 /Applications/microchip/mplabc32/v1.11a/bin/../lib/gcc/pic32mx/3.4.4/../../../../pic32mx/lib/libmchp_peripheral_32MX320F064H.a(nvm_program_lib.o)
 .debug_abbrev  0x00000000000000af       0x23 /Applications/microchip/mplabc32/v1.11a/bin/../lib/gcc/pic32mx/3.4.4/../../../../pic32mx/lib/libmchp_peripheral_32MX320F064H.a(nvm_write_row_lib.o)
 .debug_abbrev  0x00000000000000d2       0x23 /Applications/microchip/mplabc32/v1.11a/bin/../lib/gcc/pic32mx/3.4.4/../../../../pic32mx/lib/libmchp_peripheral_32MX320F064H.a(nvm_erase_page_lib.o)
 .debug_abbrev  0x00000000000000f5       0x23 /Applications/microchip/mplabc32/v1.11a/bin/../lib/gcc/pic32mx/3.4.4/../../../../pic32mx/lib/libmchp_peripheral_32MX320F064H.a(nvm_operation_lib.o)

.debug_line     0x0000000000000000      0x4c5
 *(.debug_line)
 .debug_line    0x0000000000000000       0x9b /Applications/microchip/mplabc32/v1.11a/bin/../lib/gcc/pic32mx/3.4.4/../../../../pic32mx/lib/libmchp_peripheral.a(open_core_timer_lib.o)
 .debug_line    0x000000000000009b       0x8f /Applications/microchip/mplabc32/v1.11a/bin/../lib/gcc/pic32mx/3.4.4/../../../../pic32mx/lib/libmchp_peripheral_32MX320F064H.a(pcache.o)
 .debug_line    0x000000000000012a       0xa0 /Applications/microchip/mplabc32/v1.11a/bin/../lib/gcc/pic32mx/3.4.4/../../../../pic32mx/lib/libmchp_peripheral_32MX320F064H.a(int_disable_interrupts_lib.o)
 .debug_line    0x00000000000001ca       0xa0 /Applications/microchip/mplabc32/v1.11a/bin/../lib/gcc/pic32mx/3.4.4/../../../../pic32mx/lib/libmchp_peripheral_32MX320F064H.a(int_restore_interrupts_lib.o)
 .debug_line    0x000000000000026a       0x95 /Applications/microchip/mplabc32/v1.11a/bin/../lib/gcc/pic32mx/3.4.4/../../../../pic32mx/lib/libmchp_peripheral_32MX320F064H.a(nvm_program_lib.o)
 .debug_line    0x00000000000002ff       0x97 /Applications/microchip/mplabc32/v1.11a/bin/../lib/gcc/pic32mx/3.4.4/../../../../pic32mx/lib/libmchp_peripheral_32MX320F064H.a(nvm_write_row_lib.o)
 .debug_line    0x0000000000000396       0x98 /Applications/microchip/mplabc32/v1.11a/bin/../lib/gcc/pic32mx/3.4.4/../../../../pic32mx/lib/libmchp_peripheral_32MX320F064H.a(nvm_erase_page_lib.o)
 .debug_line    0x000000000000042e       0x97 /Applications/microchip/mplabc32/v1.11a/bin/../lib/gcc/pic32mx/3.4.4/../../../../pic32mx/lib/libmchp_peripheral_32MX320F064H.a(nvm_operation_lib.o)

.debug_frame    0x0000000000000000      0x14c
 *(.debug_frame)
 .debug_frame   0x0000000000000000       0x20 /Applications/microchip/mplabc32/v1.11a/bin/../lib/gcc/pic32mx/3.4.4/../../../../pic32mx/lib/libmchp_peripheral.a(open_core_timer_lib.o)
 .debug_frame   0x0000000000000020       0x30 /Applications/microchip/mplabc32/v1.11a/bin/../lib/gcc/pic32mx/3.4.4/../../../../pic32mx/lib/libmchp_peripheral_32MX320F064H.a(pcache.o)
 .debug_frame   0x0000000000000050       0x20 /Applications/microchip/mplabc32/v1.11a/bin/../lib/gcc/pic32mx/3.4.4/../../../../pic32mx/lib/libmchp_peripheral_32MX320F064H.a(int_disable_interrupts_lib.o)
 .debug_frame   0x0000000000000070       0x20 /Applications/microchip/mplabc32/v1.11a/bin/../lib/gcc/pic32mx/3.4.4/../../../../pic32mx/lib/libmchp_peripheral_32MX320F064H.a(int_restore_interrupts_lib.o)
 .debug_frame   0x0000000000000090       0x3c /Applications/microchip/mplabc32/v1.11a/bin/../lib/gcc/pic32mx/3.4.4/../../../../pic32mx/lib/libmchp_peripheral_32MX320F064H.a(nvm_program_lib.o)
 .debug_frame   0x00000000000000cc       0x28 /Applications/microchip/mplabc32/v1.11a/bin/../lib/gcc/pic32mx/3.4.4/../../../../pic32mx/lib/libmchp_peripheral_32MX320F064H.a(nvm_write_row_lib.o)
 .debug_frame   0x00000000000000f4       0x28 /Applications/microchip/mplabc32/v1.11a/bin/../lib/gcc/pic32mx/3.4.4/../../../../pic32mx/lib/libmchp_peripheral_32MX320F064H.a(nvm_erase_page_lib.o)
 .debug_frame   0x000000000000011c       0x30 /Applications/microchip/mplabc32/v1.11a/bin/../lib/gcc/pic32mx/3.4.4/../../../../pic32mx/lib/libmchp_peripheral_32MX320F064H.a(nvm_operation_lib.o)

.debug_str      0x0000000000000000      0x49a
 *(.debug_str)
 .debug_str     0x0000000000000000       0xd3 /Applications/microchip/mplabc32/v1.11a/bin/../lib/gcc/pic32mx/3.4.4/../../../../pic32mx/lib/libmchp_peripheral.a(open_core_timer_lib.o)
 .debug_str     0x00000000000000d3       0x90 /Applications/microchip/mplabc32/v1.11a/bin/../lib/gcc/pic32mx/3.4.4/../../../../pic32mx/lib/libmchp_peripheral_32MX320F064H.a(pcache.o)
                                         0xda (size before relaxing)
 .debug_str     0x0000000000000163       0x95 /Applications/microchip/mplabc32/v1.11a/bin/../lib/gcc/pic32mx/3.4.4/../../../../pic32mx/lib/libmchp_peripheral_32MX320F064H.a(int_disable_interrupts_lib.o)
                                         0xdf (size before relaxing)
 .debug_str     0x00000000000001f8       0x95 /Applications/microchip/mplabc32/v1.11a/bin/../lib/gcc/pic32mx/3.4.4/../../../../pic32mx/lib/libmchp_peripheral_32MX320F064H.a(int_restore_interrupts_lib.o)
                                         0xdf (size before relaxing)
 .debug_str     0x000000000000028d       0x80 /Applications/microchip/mplabc32/v1.11a/bin/../lib/gcc/pic32mx/3.4.4/../../../../pic32mx/lib/libmchp_peripheral_32MX320F064H.a(nvm_program_lib.o)
                                         0xca (size before relaxing)
 .debug_str     0x000000000000030d       0x83 /Applications/microchip/mplabc32/v1.11a/bin/../lib/gcc/pic32mx/3.4.4/../../../../pic32mx/lib/libmchp_peripheral_32MX320F064H.a(nvm_write_row_lib.o)
                                         0xcd (size before relaxing)
 .debug_str     0x0000000000000390       0x85 /Applications/microchip/mplabc32/v1.11a/bin/../lib/gcc/pic32mx/3.4.4/../../../../pic32mx/lib/libmchp_peripheral_32MX320F064H.a(nvm_erase_page_lib.o)
                                         0xcf (size before relaxing)
 .debug_str     0x0000000000000415       0x85 /Applications/microchip/mplabc32/v1.11a/bin/../lib/gcc/pic32mx/3.4.4/../../../../pic32mx/lib/libmchp_peripheral_32MX320F064H.a(nvm_operation_lib.o)
                                         0xcf (size before relaxing)

.debug_loc
 *(.debug_loc)

.debug_macinfo
 *(.debug_macinfo)

.debug_weaknames
 *(.debug_weaknames)

.debug_funcnames
 *(.debug_funcnames)

.debug_typenames
 *(.debug_typenames)

.debug_varnames
 *(.debug_varnames)
LOAD /Applications/microchip/mplabc32/v1.11a/bin/../lib/gcc/pic32mx/3.4.4/libgcc.a
START GROUP
LOAD /Applications/microchip/mplabc32/v1.11a/bin/../lib/gcc/pic32mx/3.4.4/../../../../pic32mx/lib/libdebug.a
LOAD /Applications/microchip/mplabc32/v1.11a/bin/../lib/gcc/pic32mx/3.4.4/../../../../pic32mx/lib/libc.a
LOAD /Applications/microchip/mplabc32/v1.11a/bin/../lib/gcc/pic32mx/3.4.4/../../../../pic32mx/lib/libm.a
LOAD /Applications/microchip/mplabc32/v1.11a/bin/../lib/gcc/pic32mx/3.4.4/../../../../pic32mx/lib/libe.a
LOAD /Applications/microchip/mplabc32/v1.11a/bin/../lib/gcc/pic32mx/3.4.4/../../../../pic32mx/lib/libdsp.a
LOAD /Applications/microchip/mplabc32/v1.11a/bin/../lib/gcc/pic32mx/3.4.4/../../../../pic32mx/lib/libmchp_peripheral.a
LOAD /Applications/microchip/mplabc32/v1.11a/bin/../lib/gcc/pic32mx/3.4.4/../../../../pic32mx/lib/libmchp_peripheral_32MX320F064H.a
END GROUP
LOAD /Applications/microchip/mplabc32/v1.11a/bin/../lib/gcc/pic32mx/3.4.4/libgcc.a
OUTPUT(dist/uno/production/arduino-booloader.X.production.elf elf32-tradlittlemips)

Cross Reference Table

Symbol                                            File
AD1CHS                                            /Applications/microchip/mplabc32/v1.11a/bin/../lib/gcc/pic32mx/3.4.4/../../../../pic32mx/lib/./proc/32MX320F064H/processor.o
                                                  /Applications/microchip/mplabc32/v1.11a/bin/../lib/gcc/pic32mx/3.4.4/../../../../pic32mx/lib/libc.a(memcpy.o)
                                                  build/uno/production/startup.o
AD1CHSCLR                                         /Applications/microchip/mplabc32/v1.11a/bin/../lib/gcc/pic32mx/3.4.4/../../../../pic32mx/lib/./proc/32MX320F064H/processor.o
                                                  /Applications/microchip/mplabc32/v1.11a/bin/../lib/gcc/pic32mx/3.4.4/../../../../pic32mx/lib/libc.a(memcpy.o)
                                                  build/uno/production/startup.o
AD1CHSINV                                         /Applications/microchip/mplabc32/v1.11a/bin/../lib/gcc/pic32mx/3.4.4/../../../../pic32mx/lib/./proc/32MX320F064H/processor.o
                                                  /Applications/microchip/mplabc32/v1.11a/bin/../lib/gcc/pic32mx/3.4.4/../../../../pic32mx/lib/libc.a(memcpy.o)
                                                  build/uno/production/startup.o
AD1CHSSET                                         /Applications/microchip/mplabc32/v1.11a/bin/../lib/gcc/pic32mx/3.4.4/../../../../pic32mx/lib/./proc/32MX320F064H/processor.o
                                                  /Applications/microchip/mplabc32/v1.11a/bin/../lib/gcc/pic32mx/3.4.4/../../../../pic32mx/lib/libc.a(memcpy.o)
                                                  build/uno/production/startup.o
AD1CON1                                           /Applications/microchip/mplabc32/v1.11a/bin/../lib/gcc/pic32mx/3.4.4/../../../../pic32mx/lib/./proc/32MX320F064H/processor.o
                                                  /Applications/microchip/mplabc32/v1.11a/bin/../lib/gcc/pic32mx/3.4.4/../../../../pic32mx/lib/libc.a(memcpy.o)
                                                  build/uno/production/startup.o
AD1CON1CLR                                        /Applications/microchip/mplabc32/v1.11a/bin/../lib/gcc/pic32mx/3.4.4/../../../../pic32mx/lib/./proc/32MX320F064H/processor.o
                                                  /Applications/microchip/mplabc32/v1.11a/bin/../lib/gcc/pic32mx/3.4.4/../../../../pic32mx/lib/libc.a(memcpy.o)
                                                  build/uno/production/startup.o
AD1CON1INV                                        /Applications/microchip/mplabc32/v1.11a/bin/../lib/gcc/pic32mx/3.4.4/../../../../pic32mx/lib/./proc/32MX320F064H/processor.o
                                                  /Applications/microchip/mplabc32/v1.11a/bin/../lib/gcc/pic32mx/3.4.4/../../../../pic32mx/lib/libc.a(memcpy.o)
                                                  build/uno/production/startup.o
AD1CON1SET                                        /Applications/microchip/mplabc32/v1.11a/bin/../lib/gcc/pic32mx/3.4.4/../../../../pic32mx/lib/./proc/32MX320F064H/processor.o
                                                  /Applications/microchip/mplabc32/v1.11a/bin/../lib/gcc/pic32mx/3.4.4/../../../../pic32mx/lib/libc.a(memcpy.o)
                                                  build/uno/production/startup.o
AD1CON2                                           /Applications/microchip/mplabc32/v1.11a/bin/../lib/gcc/pic32mx/3.4.4/../../../../pic32mx/lib/./proc/32MX320F064H/processor.o
                                                  /Applications/microchip/mplabc32/v1.11a/bin/../lib/gcc/pic32mx/3.4.4/../../../../pic32mx/lib/libc.a(memcpy.o)
                                                  build/uno/production/startup.o
AD1CON2CLR                                        /Applications/microchip/mplabc32/v1.11a/bin/../lib/gcc/pic32mx/3.4.4/../../../../pic32mx/lib/./proc/32MX320F064H/processor.o
                                                  /Applications/microchip/mplabc32/v1.11a/bin/../lib/gcc/pic32mx/3.4.4/../../../../pic32mx/lib/libc.a(memcpy.o)
                                                  build/uno/production/startup.o
AD1CON2INV                                        /Applications/microchip/mplabc32/v1.11a/bin/../lib/gcc/pic32mx/3.4.4/../../../../pic32mx/lib/./proc/32MX320F064H/processor.o
                                                  /Applications/microchip/mplabc32/v1.11a/bin/../lib/gcc/pic32mx/3.4.4/../../../../pic32mx/lib/libc.a(memcpy.o)
                                                  build/uno/production/startup.o
AD1CON2SET                                        /Applications/microchip/mplabc32/v1.11a/bin/../lib/gcc/pic32mx/3.4.4/../../../../pic32mx/lib/./proc/32MX320F064H/processor.o
                                                  /Applications/microchip/mplabc32/v1.11a/bin/../lib/gcc/pic32mx/3.4.4/../../../../pic32mx/lib/libc.a(memcpy.o)
                                                  build/uno/production/startup.o
AD1CON3                                           /Applications/microchip/mplabc32/v1.11a/bin/../lib/gcc/pic32mx/3.4.4/../../../../pic32mx/lib/./proc/32MX320F064H/processor.o
                                                  /Applications/microchip/mplabc32/v1.11a/bin/../lib/gcc/pic32mx/3.4.4/../../../../pic32mx/lib/libc.a(memcpy.o)
                                                  build/uno/production/startup.o
AD1CON3CLR                                        /Applications/microchip/mplabc32/v1.11a/bin/../lib/gcc/pic32mx/3.4.4/../../../../pic32mx/lib/./proc/32MX320F064H/processor.o
                                                  /Applications/microchip/mplabc32/v1.11a/bin/../lib/gcc/pic32mx/3.4.4/../../../../pic32mx/lib/libc.a(memcpy.o)
                                                  build/uno/production/startup.o
AD1CON3INV                                        /Applications/microchip/mplabc32/v1.11a/bin/../lib/gcc/pic32mx/3.4.4/../../../../pic32mx/lib/./proc/32MX320F064H/processor.o
                                                  /Applications/microchip/mplabc32/v1.11a/bin/../lib/gcc/pic32mx/3.4.4/../../../../pic32mx/lib/libc.a(memcpy.o)
                                                  build/uno/production/startup.o
AD1CON3SET                                        /Applications/microchip/mplabc32/v1.11a/bin/../lib/gcc/pic32mx/3.4.4/../../../../pic32mx/lib/./proc/32MX320F064H/processor.o
                                                  /Applications/microchip/mplabc32/v1.11a/bin/../lib/gcc/pic32mx/3.4.4/../../../../pic32mx/lib/libc.a(memcpy.o)
                                                  build/uno/production/startup.o
AD1CSSL                                           /Applications/microchip/mplabc32/v1.11a/bin/../lib/gcc/pic32mx/3.4.4/../../../../pic32mx/lib/./proc/32MX320F064H/processor.o
                                                  /Applications/microchip/mplabc32/v1.11a/bin/../lib/gcc/pic32mx/3.4.4/../../../../pic32mx/lib/libc.a(memcpy.o)
                                                  build/uno/production/startup.o
AD1CSSLCLR                                        /Applications/microchip/mplabc32/v1.11a/bin/../lib/gcc/pic32mx/3.4.4/../../../../pic32mx/lib/./proc/32MX320F064H/processor.o
                                                  /Applications/microchip/mplabc32/v1.11a/bin/../lib/gcc/pic32mx/3.4.4/../../../../pic32mx/lib/libc.a(memcpy.o)
                                                  build/uno/production/startup.o
AD1CSSLINV                                        /Applications/microchip/mplabc32/v1.11a/bin/../lib/gcc/pic32mx/3.4.4/../../../../pic32mx/lib/./proc/32MX320F064H/processor.o
                                                  /Applications/microchip/mplabc32/v1.11a/bin/../lib/gcc/pic32mx/3.4.4/../../../../pic32mx/lib/libc.a(memcpy.o)
                                                  build/uno/production/startup.o
AD1CSSLSET                                        /Applications/microchip/mplabc32/v1.11a/bin/../lib/gcc/pic32mx/3.4.4/../../../../pic32mx/lib/./proc/32MX320F064H/processor.o
                                                  /Applications/microchip/mplabc32/v1.11a/bin/../lib/gcc/pic32mx/3.4.4/../../../../pic32mx/lib/libc.a(memcpy.o)
                                                  build/uno/production/startup.o
AD1PCFG                                           /Applications/microchip/mplabc32/v1.11a/bin/../lib/gcc/pic32mx/3.4.4/../../../../pic32mx/lib/./proc/32MX320F064H/processor.o
                                                  /Applications/microchip/mplabc32/v1.11a/bin/../lib/gcc/pic32mx/3.4.4/../../../../pic32mx/lib/libc.a(memcpy.o)
                                                  build/uno/production/startup.o
AD1PCFGCLR                                        /Applications/microchip/mplabc32/v1.11a/bin/../lib/gcc/pic32mx/3.4.4/../../../../pic32mx/lib/./proc/32MX320F064H/processor.o
                                                  /Applications/microchip/mplabc32/v1.11a/bin/../lib/gcc/pic32mx/3.4.4/../../../../pic32mx/lib/libc.a(memcpy.o)
                                                  build/uno/production/startup.o
AD1PCFGINV                                        /Applications/microchip/mplabc32/v1.11a/bin/../lib/gcc/pic32mx/3.4.4/../../../../pic32mx/lib/./proc/32MX320F064H/processor.o
                                                  /Applications/microchip/mplabc32/v1.11a/bin/../lib/gcc/pic32mx/3.4.4/../../../../pic32mx/lib/libc.a(memcpy.o)
                                                  build/uno/production/startup.o
AD1PCFGSET                                        /Applications/microchip/mplabc32/v1.11a/bin/../lib/gcc/pic32mx/3.4.4/../../../../pic32mx/lib/./proc/32MX320F064H/processor.o
                                                  /Applications/microchip/mplabc32/v1.11a/bin/../lib/gcc/pic32mx/3.4.4/../../../../pic32mx/lib/libc.a(memcpy.o)
                                                  build/uno/production/startup.o
ADC1BUF0                                          /Applications/microchip/mplabc32/v1.11a/bin/../lib/gcc/pic32mx/3.4.4/../../../../pic32mx/lib/./proc/32MX320F064H/processor.o
                                                  /Applications/microchip/mplabc32/v1.11a/bin/../lib/gcc/pic32mx/3.4.4/../../../../pic32mx/lib/libc.a(memcpy.o)
                                                  build/uno/production/startup.o
ADC1BUF1                                          /Applications/microchip/mplabc32/v1.11a/bin/../lib/gcc/pic32mx/3.4.4/../../../../pic32mx/lib/./proc/32MX320F064H/processor.o
                                                  /Applications/microchip/mplabc32/v1.11a/bin/../lib/gcc/pic32mx/3.4.4/../../../../pic32mx/lib/libc.a(memcpy.o)
                                                  build/uno/production/startup.o
ADC1BUF2                                          /Applications/microchip/mplabc32/v1.11a/bin/../lib/gcc/pic32mx/3.4.4/../../../../pic32mx/lib/./proc/32MX320F064H/processor.o
                                                  /Applications/microchip/mplabc32/v1.11a/bin/../lib/gcc/pic32mx/3.4.4/../../../../pic32mx/lib/libc.a(memcpy.o)
                                                  build/uno/production/startup.o
ADC1BUF3                                          /Applications/microchip/mplabc32/v1.11a/bin/../lib/gcc/pic32mx/3.4.4/../../../../pic32mx/lib/./proc/32MX320F064H/processor.o
                                                  /Applications/microchip/mplabc32/v1.11a/bin/../lib/gcc/pic32mx/3.4.4/../../../../pic32mx/lib/libc.a(memcpy.o)
                                                  build/uno/production/startup.o
ADC1BUF4                                          /Applications/microchip/mplabc32/v1.11a/bin/../lib/gcc/pic32mx/3.4.4/../../../../pic32mx/lib/./proc/32MX320F064H/processor.o
                                                  /Applications/microchip/mplabc32/v1.11a/bin/../lib/gcc/pic32mx/3.4.4/../../../../pic32mx/lib/libc.a(memcpy.o)
                                                  build/uno/production/startup.o
ADC1BUF5                                          /Applications/microchip/mplabc32/v1.11a/bin/../lib/gcc/pic32mx/3.4.4/../../../../pic32mx/lib/./proc/32MX320F064H/processor.o
                                                  /Applications/microchip/mplabc32/v1.11a/bin/../lib/gcc/pic32mx/3.4.4/../../../../pic32mx/lib/libc.a(memcpy.o)
                                                  build/uno/production/startup.o
ADC1BUF6                                          /Applications/microchip/mplabc32/v1.11a/bin/../lib/gcc/pic32mx/3.4.4/../../../../pic32mx/lib/./proc/32MX320F064H/processor.o
                                                  /Applications/microchip/mplabc32/v1.11a/bin/../lib/gcc/pic32mx/3.4.4/../../../../pic32mx/lib/libc.a(memcpy.o)
                                                  build/uno/production/startup.o
ADC1BUF7                                          /Applications/microchip/mplabc32/v1.11a/bin/../lib/gcc/pic32mx/3.4.4/../../../../pic32mx/lib/./proc/32MX320F064H/processor.o
                                                  /Applications/microchip/mplabc32/v1.11a/bin/../lib/gcc/pic32mx/3.4.4/../../../../pic32mx/lib/libc.a(memcpy.o)
                                                  build/uno/production/startup.o
ADC1BUF8                                          /Applications/microchip/mplabc32/v1.11a/bin/../lib/gcc/pic32mx/3.4.4/../../../../pic32mx/lib/./proc/32MX320F064H/processor.o
                                                  /Applications/microchip/mplabc32/v1.11a/bin/../lib/gcc/pic32mx/3.4.4/../../../../pic32mx/lib/libc.a(memcpy.o)
                                                  build/uno/production/startup.o
ADC1BUF9                                          /Applications/microchip/mplabc32/v1.11a/bin/../lib/gcc/pic32mx/3.4.4/../../../../pic32mx/lib/./proc/32MX320F064H/processor.o
                                                  /Applications/microchip/mplabc32/v1.11a/bin/../lib/gcc/pic32mx/3.4.4/../../../../pic32mx/lib/libc.a(memcpy.o)
                                                  build/uno/production/startup.o
ADC1BUFA                                          /Applications/microchip/mplabc32/v1.11a/bin/../lib/gcc/pic32mx/3.4.4/../../../../pic32mx/lib/./proc/32MX320F064H/processor.o
                                                  /Applications/microchip/mplabc32/v1.11a/bin/../lib/gcc/pic32mx/3.4.4/../../../../pic32mx/lib/libc.a(memcpy.o)
                                                  build/uno/production/startup.o
ADC1BUFB                                          /Applications/microchip/mplabc32/v1.11a/bin/../lib/gcc/pic32mx/3.4.4/../../../../pic32mx/lib/./proc/32MX320F064H/processor.o
                                                  /Applications/microchip/mplabc32/v1.11a/bin/../lib/gcc/pic32mx/3.4.4/../../../../pic32mx/lib/libc.a(memcpy.o)
                                                  build/uno/production/startup.o
ADC1BUFC                                          /Applications/microchip/mplabc32/v1.11a/bin/../lib/gcc/pic32mx/3.4.4/../../../../pic32mx/lib/./proc/32MX320F064H/processor.o
                                                  /Applications/microchip/mplabc32/v1.11a/bin/../lib/gcc/pic32mx/3.4.4/../../../../pic32mx/lib/libc.a(memcpy.o)
                                                  build/uno/production/startup.o
ADC1BUFD                                          /Applications/microchip/mplabc32/v1.11a/bin/../lib/gcc/pic32mx/3.4.4/../../../../pic32mx/lib/./proc/32MX320F064H/processor.o
                                                  /Applications/microchip/mplabc32/v1.11a/bin/../lib/gcc/pic32mx/3.4.4/../../../../pic32mx/lib/libc.a(memcpy.o)
                                                  build/uno/production/startup.o
ADC1BUFE                                          /Applications/microchip/mplabc32/v1.11a/bin/../lib/gcc/pic32mx/3.4.4/../../../../pic32mx/lib/./proc/32MX320F064H/processor.o
                                                  /Applications/microchip/mplabc32/v1.11a/bin/../lib/gcc/pic32mx/3.4.4/../../../../pic32mx/lib/libc.a(memcpy.o)
                                                  build/uno/production/startup.o
ADC1BUFF                                          /Applications/microchip/mplabc32/v1.11a/bin/../lib/gcc/pic32mx/3.4.4/../../../../pic32mx/lib/./proc/32MX320F064H/processor.o
                                                  /Applications/microchip/mplabc32/v1.11a/bin/../lib/gcc/pic32mx/3.4.4/../../../../pic32mx/lib/libc.a(memcpy.o)
                                                  build/uno/production/startup.o
ALRMDATE                                          /Applications/microchip/mplabc32/v1.11a/bin/../lib/gcc/pic32mx/3.4.4/../../../../pic32mx/lib/./proc/32MX320F064H/processor.o
                                                  /Applications/microchip/mplabc32/v1.11a/bin/../lib/gcc/pic32mx/3.4.4/../../../../pic32mx/lib/libc.a(memcpy.o)
                                                  build/uno/production/startup.o
ALRMDATECLR                                       /Applications/microchip/mplabc32/v1.11a/bin/../lib/gcc/pic32mx/3.4.4/../../../../pic32mx/lib/./proc/32MX320F064H/processor.o
                                                  /Applications/microchip/mplabc32/v1.11a/bin/../lib/gcc/pic32mx/3.4.4/../../../../pic32mx/lib/libc.a(memcpy.o)
                                                  build/uno/production/startup.o
ALRMDATEINV                                       /Applications/microchip/mplabc32/v1.11a/bin/../lib/gcc/pic32mx/3.4.4/../../../../pic32mx/lib/./proc/32MX320F064H/processor.o
                                                  /Applications/microchip/mplabc32/v1.11a/bin/../lib/gcc/pic32mx/3.4.4/../../../../pic32mx/lib/libc.a(memcpy.o)
                                                  build/uno/production/startup.o
ALRMDATESET                                       /Applications/microchip/mplabc32/v1.11a/bin/../lib/gcc/pic32mx/3.4.4/../../../../pic32mx/lib/./proc/32MX320F064H/processor.o
                                                  /Applications/microchip/mplabc32/v1.11a/bin/../lib/gcc/pic32mx/3.4.4/../../../../pic32mx/lib/libc.a(memcpy.o)
                                                  build/uno/production/startup.o
ALRMTIME                                          /Applications/microchip/mplabc32/v1.11a/bin/../lib/gcc/pic32mx/3.4.4/../../../../pic32mx/lib/./proc/32MX320F064H/processor.o
                                                  /Applications/microchip/mplabc32/v1.11a/bin/../lib/gcc/pic32mx/3.4.4/../../../../pic32mx/lib/libc.a(memcpy.o)
                                                  build/uno/production/startup.o
ALRMTIMECLR                                       /Applications/microchip/mplabc32/v1.11a/bin/../lib/gcc/pic32mx/3.4.4/../../../../pic32mx/lib/./proc/32MX320F064H/processor.o
                                                  /Applications/microchip/mplabc32/v1.11a/bin/../lib/gcc/pic32mx/3.4.4/../../../../pic32mx/lib/libc.a(memcpy.o)
                                                  build/uno/production/startup.o
ALRMTIMEINV                                       /Applications/microchip/mplabc32/v1.11a/bin/../lib/gcc/pic32mx/3.4.4/../../../../pic32mx/lib/./proc/32MX320F064H/processor.o
                                                  /Applications/microchip/mplabc32/v1.11a/bin/../lib/gcc/pic32mx/3.4.4/../../../../pic32mx/lib/libc.a(memcpy.o)
                                                  build/uno/production/startup.o
ALRMTIMESET                                       /Applications/microchip/mplabc32/v1.11a/bin/../lib/gcc/pic32mx/3.4.4/../../../../pic32mx/lib/./proc/32MX320F064H/processor.o
                                                  /Applications/microchip/mplabc32/v1.11a/bin/../lib/gcc/pic32mx/3.4.4/../../../../pic32mx/lib/libc.a(memcpy.o)
                                                  build/uno/production/startup.o
BMXBOOTSZ                                         /Applications/microchip/mplabc32/v1.11a/bin/../lib/gcc/pic32mx/3.4.4/../../../../pic32mx/lib/./proc/32MX320F064H/processor.o
                                                  /Applications/microchip/mplabc32/v1.11a/bin/../lib/gcc/pic32mx/3.4.4/../../../../pic32mx/lib/libc.a(memcpy.o)
                                                  build/uno/production/startup.o
BMXCON                                            /Applications/microchip/mplabc32/v1.11a/bin/../lib/gcc/pic32mx/3.4.4/../../../../pic32mx/lib/./proc/32MX320F064H/processor.o
                                                  /Applications/microchip/mplabc32/v1.11a/bin/../lib/gcc/pic32mx/3.4.4/../../../../pic32mx/lib/libc.a(memcpy.o)
                                                  build/uno/production/startup.o
BMXCONCLR                                         /Applications/microchip/mplabc32/v1.11a/bin/../lib/gcc/pic32mx/3.4.4/../../../../pic32mx/lib/./proc/32MX320F064H/processor.o
                                                  /Applications/microchip/mplabc32/v1.11a/bin/../lib/gcc/pic32mx/3.4.4/../../../../pic32mx/lib/libc.a(memcpy.o)
                                                  build/uno/production/pic32bootloader.o
                                                  build/uno/production/startup.o
BMXCONINV                                         /Applications/microchip/mplabc32/v1.11a/bin/../lib/gcc/pic32mx/3.4.4/../../../../pic32mx/lib/./proc/32MX320F064H/processor.o
                                                  /Applications/microchip/mplabc32/v1.11a/bin/../lib/gcc/pic32mx/3.4.4/../../../../pic32mx/lib/libc.a(memcpy.o)
                                                  build/uno/production/startup.o
BMXCONSET                                         /Applications/microchip/mplabc32/v1.11a/bin/../lib/gcc/pic32mx/3.4.4/../../../../pic32mx/lib/./proc/32MX320F064H/processor.o
                                                  /Applications/microchip/mplabc32/v1.11a/bin/../lib/gcc/pic32mx/3.4.4/../../../../pic32mx/lib/libc.a(memcpy.o)
                                                  build/uno/production/startup.o
BMXDKPBA                                          /Applications/microchip/mplabc32/v1.11a/bin/../lib/gcc/pic32mx/3.4.4/../../../../pic32mx/lib/./proc/32MX320F064H/processor.o
                                                  /Applications/microchip/mplabc32/v1.11a/bin/../lib/gcc/pic32mx/3.4.4/../../../../pic32mx/lib/libc.a(memcpy.o)
                                                  build/uno/production/startup.o
BMXDKPBACLR                                       /Applications/microchip/mplabc32/v1.11a/bin/../lib/gcc/pic32mx/3.4.4/../../../../pic32mx/lib/./proc/32MX320F064H/processor.o
                                                  /Applications/microchip/mplabc32/v1.11a/bin/../lib/gcc/pic32mx/3.4.4/../../../../pic32mx/lib/libc.a(memcpy.o)
                                                  build/uno/production/startup.o
BMXDKPBAINV                                       /Applications/microchip/mplabc32/v1.11a/bin/../lib/gcc/pic32mx/3.4.4/../../../../pic32mx/lib/./proc/32MX320F064H/processor.o
                                                  /Applications/microchip/mplabc32/v1.11a/bin/../lib/gcc/pic32mx/3.4.4/../../../../pic32mx/lib/libc.a(memcpy.o)
                                                  build/uno/production/startup.o
BMXDKPBASET                                       /Applications/microchip/mplabc32/v1.11a/bin/../lib/gcc/pic32mx/3.4.4/../../../../pic32mx/lib/./proc/32MX320F064H/processor.o
                                                  /Applications/microchip/mplabc32/v1.11a/bin/../lib/gcc/pic32mx/3.4.4/../../../../pic32mx/lib/libc.a(memcpy.o)
                                                  build/uno/production/startup.o
BMXDRMSZ                                          /Applications/microchip/mplabc32/v1.11a/bin/../lib/gcc/pic32mx/3.4.4/../../../../pic32mx/lib/./proc/32MX320F064H/processor.o
                                                  /Applications/microchip/mplabc32/v1.11a/bin/../lib/gcc/pic32mx/3.4.4/../../../../pic32mx/lib/libc.a(memcpy.o)
                                                  build/uno/production/startup.o
BMXDUDBA                                          /Applications/microchip/mplabc32/v1.11a/bin/../lib/gcc/pic32mx/3.4.4/../../../../pic32mx/lib/./proc/32MX320F064H/processor.o
                                                  /Applications/microchip/mplabc32/v1.11a/bin/../lib/gcc/pic32mx/3.4.4/../../../../pic32mx/lib/libc.a(memcpy.o)
                                                  build/uno/production/startup.o
BMXDUDBACLR                                       /Applications/microchip/mplabc32/v1.11a/bin/../lib/gcc/pic32mx/3.4.4/../../../../pic32mx/lib/./proc/32MX320F064H/processor.o
                                                  /Applications/microchip/mplabc32/v1.11a/bin/../lib/gcc/pic32mx/3.4.4/../../../../pic32mx/lib/libc.a(memcpy.o)
                                                  build/uno/production/startup.o
BMXDUDBAINV                                       /Applications/microchip/mplabc32/v1.11a/bin/../lib/gcc/pic32mx/3.4.4/../../../../pic32mx/lib/./proc/32MX320F064H/processor.o
                                                  /Applications/microchip/mplabc32/v1.11a/bin/../lib/gcc/pic32mx/3.4.4/../../../../pic32mx/lib/libc.a(memcpy.o)
                                                  build/uno/production/startup.o
BMXDUDBASET                                       /Applications/microchip/mplabc32/v1.11a/bin/../lib/gcc/pic32mx/3.4.4/../../../../pic32mx/lib/./proc/32MX320F064H/processor.o
                                                  /Applications/microchip/mplabc32/v1.11a/bin/../lib/gcc/pic32mx/3.4.4/../../../../pic32mx/lib/libc.a(memcpy.o)
                                                  build/uno/production/startup.o
BMXDUPBA                                          /Applications/microchip/mplabc32/v1.11a/bin/../lib/gcc/pic32mx/3.4.4/../../../../pic32mx/lib/./proc/32MX320F064H/processor.o
                                                  /Applications/microchip/mplabc32/v1.11a/bin/../lib/gcc/pic32mx/3.4.4/../../../../pic32mx/lib/libc.a(memcpy.o)
                                                  build/uno/production/startup.o
BMXDUPBACLR                                       /Applications/microchip/mplabc32/v1.11a/bin/../lib/gcc/pic32mx/3.4.4/../../../../pic32mx/lib/./proc/32MX320F064H/processor.o
                                                  /Applications/microchip/mplabc32/v1.11a/bin/../lib/gcc/pic32mx/3.4.4/../../../../pic32mx/lib/libc.a(memcpy.o)
                                                  build/uno/production/startup.o
BMXDUPBAINV                                       /Applications/microchip/mplabc32/v1.11a/bin/../lib/gcc/pic32mx/3.4.4/../../../../pic32mx/lib/./proc/32MX320F064H/processor.o
                                                  /Applications/microchip/mplabc32/v1.11a/bin/../lib/gcc/pic32mx/3.4.4/../../../../pic32mx/lib/libc.a(memcpy.o)
                                                  build/uno/production/startup.o
BMXDUPBASET                                       /Applications/microchip/mplabc32/v1.11a/bin/../lib/gcc/pic32mx/3.4.4/../../../../pic32mx/lib/./proc/32MX320F064H/processor.o
                                                  /Applications/microchip/mplabc32/v1.11a/bin/../lib/gcc/pic32mx/3.4.4/../../../../pic32mx/lib/libc.a(memcpy.o)
                                                  build/uno/production/startup.o
BMXPFMSZ                                          /Applications/microchip/mplabc32/v1.11a/bin/../lib/gcc/pic32mx/3.4.4/../../../../pic32mx/lib/./proc/32MX320F064H/processor.o
                                                  /Applications/microchip/mplabc32/v1.11a/bin/../lib/gcc/pic32mx/3.4.4/../../../../pic32mx/lib/libc.a(memcpy.o)
                                                  build/uno/production/startup.o
BMXPUPBA                                          /Applications/microchip/mplabc32/v1.11a/bin/../lib/gcc/pic32mx/3.4.4/../../../../pic32mx/lib/./proc/32MX320F064H/processor.o
                                                  /Applications/microchip/mplabc32/v1.11a/bin/../lib/gcc/pic32mx/3.4.4/../../../../pic32mx/lib/libc.a(memcpy.o)
                                                  build/uno/production/startup.o
BMXPUPBACLR                                       /Applications/microchip/mplabc32/v1.11a/bin/../lib/gcc/pic32mx/3.4.4/../../../../pic32mx/lib/./proc/32MX320F064H/processor.o
                                                  /Applications/microchip/mplabc32/v1.11a/bin/../lib/gcc/pic32mx/3.4.4/../../../../pic32mx/lib/libc.a(memcpy.o)
                                                  build/uno/production/startup.o
BMXPUPBAINV                                       /Applications/microchip/mplabc32/v1.11a/bin/../lib/gcc/pic32mx/3.4.4/../../../../pic32mx/lib/./proc/32MX320F064H/processor.o
                                                  /Applications/microchip/mplabc32/v1.11a/bin/../lib/gcc/pic32mx/3.4.4/../../../../pic32mx/lib/libc.a(memcpy.o)
                                                  build/uno/production/startup.o
BMXPUPBASET                                       /Applications/microchip/mplabc32/v1.11a/bin/../lib/gcc/pic32mx/3.4.4/../../../../pic32mx/lib/./proc/32MX320F064H/processor.o
                                                  /Applications/microchip/mplabc32/v1.11a/bin/../lib/gcc/pic32mx/3.4.4/../../../../pic32mx/lib/libc.a(memcpy.o)
                                                  build/uno/production/startup.o
CHEACC                                            /Applications/microchip/mplabc32/v1.11a/bin/../lib/gcc/pic32mx/3.4.4/../../../../pic32mx/lib/./proc/32MX320F064H/processor.o
                                                  /Applications/microchip/mplabc32/v1.11a/bin/../lib/gcc/pic32mx/3.4.4/../../../../pic32mx/lib/libc.a(memcpy.o)
                                                  build/uno/production/startup.o
CHEACCCLR                                         /Applications/microchip/mplabc32/v1.11a/bin/../lib/gcc/pic32mx/3.4.4/../../../../pic32mx/lib/./proc/32MX320F064H/processor.o
                                                  /Applications/microchip/mplabc32/v1.11a/bin/../lib/gcc/pic32mx/3.4.4/../../../../pic32mx/lib/libc.a(memcpy.o)
                                                  build/uno/production/startup.o
CHEACCINV                                         /Applications/microchip/mplabc32/v1.11a/bin/../lib/gcc/pic32mx/3.4.4/../../../../pic32mx/lib/./proc/32MX320F064H/processor.o
                                                  /Applications/microchip/mplabc32/v1.11a/bin/../lib/gcc/pic32mx/3.4.4/../../../../pic32mx/lib/libc.a(memcpy.o)
                                                  build/uno/production/startup.o
CHEACCSET                                         /Applications/microchip/mplabc32/v1.11a/bin/../lib/gcc/pic32mx/3.4.4/../../../../pic32mx/lib/./proc/32MX320F064H/processor.o
                                                  /Applications/microchip/mplabc32/v1.11a/bin/../lib/gcc/pic32mx/3.4.4/../../../../pic32mx/lib/libc.a(memcpy.o)
                                                  build/uno/production/startup.o
CHECON                                            /Applications/microchip/mplabc32/v1.11a/bin/../lib/gcc/pic32mx/3.4.4/../../../../pic32mx/lib/./proc/32MX320F064H/processor.o
                                                  /Applications/microchip/mplabc32/v1.11a/bin/../lib/gcc/pic32mx/3.4.4/../../../../pic32mx/lib/libc.a(memcpy.o)
                                                  build/uno/production/pic32bootloader.o
                                                  build/uno/production/startup.o
CHECONCLR                                         /Applications/microchip/mplabc32/v1.11a/bin/../lib/gcc/pic32mx/3.4.4/../../../../pic32mx/lib/./proc/32MX320F064H/processor.o
                                                  /Applications/microchip/mplabc32/v1.11a/bin/../lib/gcc/pic32mx/3.4.4/../../../../pic32mx/lib/libc.a(memcpy.o)
                                                  build/uno/production/startup.o
CHECONINV                                         /Applications/microchip/mplabc32/v1.11a/bin/../lib/gcc/pic32mx/3.4.4/../../../../pic32mx/lib/./proc/32MX320F064H/processor.o
                                                  /Applications/microchip/mplabc32/v1.11a/bin/../lib/gcc/pic32mx/3.4.4/../../../../pic32mx/lib/libc.a(memcpy.o)
                                                  build/uno/production/startup.o
CHECONSET                                         /Applications/microchip/mplabc32/v1.11a/bin/../lib/gcc/pic32mx/3.4.4/../../../../pic32mx/lib/./proc/32MX320F064H/processor.o
                                                  /Applications/microchip/mplabc32/v1.11a/bin/../lib/gcc/pic32mx/3.4.4/../../../../pic32mx/lib/libc.a(memcpy.o)
                                                  build/uno/production/startup.o
CHEHIT                                            /Applications/microchip/mplabc32/v1.11a/bin/../lib/gcc/pic32mx/3.4.4/../../../../pic32mx/lib/./proc/32MX320F064H/processor.o
                                                  /Applications/microchip/mplabc32/v1.11a/bin/../lib/gcc/pic32mx/3.4.4/../../../../pic32mx/lib/libc.a(memcpy.o)
                                                  build/uno/production/startup.o
CHELRU                                            /Applications/microchip/mplabc32/v1.11a/bin/../lib/gcc/pic32mx/3.4.4/../../../../pic32mx/lib/./proc/32MX320F064H/processor.o
                                                  /Applications/microchip/mplabc32/v1.11a/bin/../lib/gcc/pic32mx/3.4.4/../../../../pic32mx/lib/libc.a(memcpy.o)
                                                  build/uno/production/startup.o
CHEMIS                                            /Applications/microchip/mplabc32/v1.11a/bin/../lib/gcc/pic32mx/3.4.4/../../../../pic32mx/lib/./proc/32MX320F064H/processor.o
                                                  /Applications/microchip/mplabc32/v1.11a/bin/../lib/gcc/pic32mx/3.4.4/../../../../pic32mx/lib/libc.a(memcpy.o)
                                                  build/uno/production/startup.o
CHEMSK                                            /Applications/microchip/mplabc32/v1.11a/bin/../lib/gcc/pic32mx/3.4.4/../../../../pic32mx/lib/./proc/32MX320F064H/processor.o
                                                  /Applications/microchip/mplabc32/v1.11a/bin/../lib/gcc/pic32mx/3.4.4/../../../../pic32mx/lib/libc.a(memcpy.o)
                                                  build/uno/production/startup.o
CHEMSKCLR                                         /Applications/microchip/mplabc32/v1.11a/bin/../lib/gcc/pic32mx/3.4.4/../../../../pic32mx/lib/./proc/32MX320F064H/processor.o
                                                  /Applications/microchip/mplabc32/v1.11a/bin/../lib/gcc/pic32mx/3.4.4/../../../../pic32mx/lib/libc.a(memcpy.o)
                                                  build/uno/production/startup.o
CHEMSKINV                                         /Applications/microchip/mplabc32/v1.11a/bin/../lib/gcc/pic32mx/3.4.4/../../../../pic32mx/lib/./proc/32MX320F064H/processor.o
                                                  /Applications/microchip/mplabc32/v1.11a/bin/../lib/gcc/pic32mx/3.4.4/../../../../pic32mx/lib/libc.a(memcpy.o)
                                                  build/uno/production/startup.o
CHEMSKSET                                         /Applications/microchip/mplabc32/v1.11a/bin/../lib/gcc/pic32mx/3.4.4/../../../../pic32mx/lib/./proc/32MX320F064H/processor.o
                                                  /Applications/microchip/mplabc32/v1.11a/bin/../lib/gcc/pic32mx/3.4.4/../../../../pic32mx/lib/libc.a(memcpy.o)
                                                  build/uno/production/startup.o
CHEPFABT                                          /Applications/microchip/mplabc32/v1.11a/bin/../lib/gcc/pic32mx/3.4.4/../../../../pic32mx/lib/./proc/32MX320F064H/processor.o
                                                  /Applications/microchip/mplabc32/v1.11a/bin/../lib/gcc/pic32mx/3.4.4/../../../../pic32mx/lib/libc.a(memcpy.o)
                                                  build/uno/production/startup.o
CHETAG                                            /Applications/microchip/mplabc32/v1.11a/bin/../lib/gcc/pic32mx/3.4.4/../../../../pic32mx/lib/./proc/32MX320F064H/processor.o
                                                  /Applications/microchip/mplabc32/v1.11a/bin/../lib/gcc/pic32mx/3.4.4/../../../../pic32mx/lib/libc.a(memcpy.o)
                                                  build/uno/production/startup.o
CHETAGCLR                                         /Applications/microchip/mplabc32/v1.11a/bin/../lib/gcc/pic32mx/3.4.4/../../../../pic32mx/lib/./proc/32MX320F064H/processor.o
                                                  /Applications/microchip/mplabc32/v1.11a/bin/../lib/gcc/pic32mx/3.4.4/../../../../pic32mx/lib/libc.a(memcpy.o)
                                                  build/uno/production/startup.o
CHETAGINV                                         /Applications/microchip/mplabc32/v1.11a/bin/../lib/gcc/pic32mx/3.4.4/../../../../pic32mx/lib/./proc/32MX320F064H/processor.o
                                                  /Applications/microchip/mplabc32/v1.11a/bin/../lib/gcc/pic32mx/3.4.4/../../../../pic32mx/lib/libc.a(memcpy.o)
                                                  build/uno/production/startup.o
CHETAGSET                                         /Applications/microchip/mplabc32/v1.11a/bin/../lib/gcc/pic32mx/3.4.4/../../../../pic32mx/lib/./proc/32MX320F064H/processor.o
                                                  /Applications/microchip/mplabc32/v1.11a/bin/../lib/gcc/pic32mx/3.4.4/../../../../pic32mx/lib/libc.a(memcpy.o)
                                                  build/uno/production/startup.o
CHEW0                                             /Applications/microchip/mplabc32/v1.11a/bin/../lib/gcc/pic32mx/3.4.4/../../../../pic32mx/lib/./proc/32MX320F064H/processor.o
                                                  /Applications/microchip/mplabc32/v1.11a/bin/../lib/gcc/pic32mx/3.4.4/../../../../pic32mx/lib/libc.a(memcpy.o)
                                                  build/uno/production/startup.o
CHEW1                                             /Applications/microchip/mplabc32/v1.11a/bin/../lib/gcc/pic32mx/3.4.4/../../../../pic32mx/lib/./proc/32MX320F064H/processor.o
                                                  /Applications/microchip/mplabc32/v1.11a/bin/../lib/gcc/pic32mx/3.4.4/../../../../pic32mx/lib/libc.a(memcpy.o)
                                                  build/uno/production/startup.o
CHEW2                                             /Applications/microchip/mplabc32/v1.11a/bin/../lib/gcc/pic32mx/3.4.4/../../../../pic32mx/lib/./proc/32MX320F064H/processor.o
                                                  /Applications/microchip/mplabc32/v1.11a/bin/../lib/gcc/pic32mx/3.4.4/../../../../pic32mx/lib/libc.a(memcpy.o)
                                                  build/uno/production/startup.o
CHEW3                                             /Applications/microchip/mplabc32/v1.11a/bin/../lib/gcc/pic32mx/3.4.4/../../../../pic32mx/lib/./proc/32MX320F064H/processor.o
                                                  /Applications/microchip/mplabc32/v1.11a/bin/../lib/gcc/pic32mx/3.4.4/../../../../pic32mx/lib/libc.a(memcpy.o)
                                                  build/uno/production/startup.o
CM1CON                                            /Applications/microchip/mplabc32/v1.11a/bin/../lib/gcc/pic32mx/3.4.4/../../../../pic32mx/lib/./proc/32MX320F064H/processor.o
                                                  /Applications/microchip/mplabc32/v1.11a/bin/../lib/gcc/pic32mx/3.4.4/../../../../pic32mx/lib/libc.a(memcpy.o)
                                                  build/uno/production/startup.o
CM1CONCLR                                         /Applications/microchip/mplabc32/v1.11a/bin/../lib/gcc/pic32mx/3.4.4/../../../../pic32mx/lib/./proc/32MX320F064H/processor.o
                                                  /Applications/microchip/mplabc32/v1.11a/bin/../lib/gcc/pic32mx/3.4.4/../../../../pic32mx/lib/libc.a(memcpy.o)
                                                  build/uno/production/startup.o
CM1CONINV                                         /Applications/microchip/mplabc32/v1.11a/bin/../lib/gcc/pic32mx/3.4.4/../../../../pic32mx/lib/./proc/32MX320F064H/processor.o
                                                  /Applications/microchip/mplabc32/v1.11a/bin/../lib/gcc/pic32mx/3.4.4/../../../../pic32mx/lib/libc.a(memcpy.o)
                                                  build/uno/production/startup.o
CM1CONSET                                         /Applications/microchip/mplabc32/v1.11a/bin/../lib/gcc/pic32mx/3.4.4/../../../../pic32mx/lib/./proc/32MX320F064H/processor.o
                                                  /Applications/microchip/mplabc32/v1.11a/bin/../lib/gcc/pic32mx/3.4.4/../../../../pic32mx/lib/libc.a(memcpy.o)
                                                  build/uno/production/startup.o
CM2CON                                            /Applications/microchip/mplabc32/v1.11a/bin/../lib/gcc/pic32mx/3.4.4/../../../../pic32mx/lib/./proc/32MX320F064H/processor.o
                                                  /Applications/microchip/mplabc32/v1.11a/bin/../lib/gcc/pic32mx/3.4.4/../../../../pic32mx/lib/libc.a(memcpy.o)
                                                  build/uno/production/startup.o
CM2CONCLR                                         /Applications/microchip/mplabc32/v1.11a/bin/../lib/gcc/pic32mx/3.4.4/../../../../pic32mx/lib/./proc/32MX320F064H/processor.o
                                                  /Applications/microchip/mplabc32/v1.11a/bin/../lib/gcc/pic32mx/3.4.4/../../../../pic32mx/lib/libc.a(memcpy.o)
                                                  build/uno/production/startup.o
CM2CONINV                                         /Applications/microchip/mplabc32/v1.11a/bin/../lib/gcc/pic32mx/3.4.4/../../../../pic32mx/lib/./proc/32MX320F064H/processor.o
                                                  /Applications/microchip/mplabc32/v1.11a/bin/../lib/gcc/pic32mx/3.4.4/../../../../pic32mx/lib/libc.a(memcpy.o)
                                                  build/uno/production/startup.o
CM2CONSET                                         /Applications/microchip/mplabc32/v1.11a/bin/../lib/gcc/pic32mx/3.4.4/../../../../pic32mx/lib/./proc/32MX320F064H/processor.o
                                                  /Applications/microchip/mplabc32/v1.11a/bin/../lib/gcc/pic32mx/3.4.4/../../../../pic32mx/lib/libc.a(memcpy.o)
                                                  build/uno/production/startup.o
CMSTAT                                            /Applications/microchip/mplabc32/v1.11a/bin/../lib/gcc/pic32mx/3.4.4/../../../../pic32mx/lib/./proc/32MX320F064H/processor.o
                                                  /Applications/microchip/mplabc32/v1.11a/bin/../lib/gcc/pic32mx/3.4.4/../../../../pic32mx/lib/libc.a(memcpy.o)
                                                  build/uno/production/startup.o
CMSTATCLR                                         /Applications/microchip/mplabc32/v1.11a/bin/../lib/gcc/pic32mx/3.4.4/../../../../pic32mx/lib/./proc/32MX320F064H/processor.o
                                                  /Applications/microchip/mplabc32/v1.11a/bin/../lib/gcc/pic32mx/3.4.4/../../../../pic32mx/lib/libc.a(memcpy.o)
                                                  build/uno/production/startup.o
CMSTATINV                                         /Applications/microchip/mplabc32/v1.11a/bin/../lib/gcc/pic32mx/3.4.4/../../../../pic32mx/lib/./proc/32MX320F064H/processor.o
                                                  /Applications/microchip/mplabc32/v1.11a/bin/../lib/gcc/pic32mx/3.4.4/../../../../pic32mx/lib/libc.a(memcpy.o)
                                                  build/uno/production/startup.o
CMSTATSET                                         /Applications/microchip/mplabc32/v1.11a/bin/../lib/gcc/pic32mx/3.4.4/../../../../pic32mx/lib/./proc/32MX320F064H/processor.o
                                                  /Applications/microchip/mplabc32/v1.11a/bin/../lib/gcc/pic32mx/3.4.4/../../../../pic32mx/lib/libc.a(memcpy.o)
                                                  build/uno/production/startup.o
CNCON                                             /Applications/microchip/mplabc32/v1.11a/bin/../lib/gcc/pic32mx/3.4.4/../../../../pic32mx/lib/./proc/32MX320F064H/processor.o
                                                  /Applications/microchip/mplabc32/v1.11a/bin/../lib/gcc/pic32mx/3.4.4/../../../../pic32mx/lib/libc.a(memcpy.o)
                                                  build/uno/production/startup.o
CNCONCLR                                          /Applications/microchip/mplabc32/v1.11a/bin/../lib/gcc/pic32mx/3.4.4/../../../../pic32mx/lib/./proc/32MX320F064H/processor.o
                                                  /Applications/microchip/mplabc32/v1.11a/bin/../lib/gcc/pic32mx/3.4.4/../../../../pic32mx/lib/libc.a(memcpy.o)
                                                  build/uno/production/startup.o
CNCONINV                                          /Applications/microchip/mplabc32/v1.11a/bin/../lib/gcc/pic32mx/3.4.4/../../../../pic32mx/lib/./proc/32MX320F064H/processor.o
                                                  /Applications/microchip/mplabc32/v1.11a/bin/../lib/gcc/pic32mx/3.4.4/../../../../pic32mx/lib/libc.a(memcpy.o)
                                                  build/uno/production/startup.o
CNCONSET                                          /Applications/microchip/mplabc32/v1.11a/bin/../lib/gcc/pic32mx/3.4.4/../../../../pic32mx/lib/./proc/32MX320F064H/processor.o
                                                  /Applications/microchip/mplabc32/v1.11a/bin/../lib/gcc/pic32mx/3.4.4/../../../../pic32mx/lib/libc.a(memcpy.o)
                                                  build/uno/production/startup.o
CNEN                                              /Applications/microchip/mplabc32/v1.11a/bin/../lib/gcc/pic32mx/3.4.4/../../../../pic32mx/lib/./proc/32MX320F064H/processor.o
                                                  /Applications/microchip/mplabc32/v1.11a/bin/../lib/gcc/pic32mx/3.4.4/../../../../pic32mx/lib/libc.a(memcpy.o)
                                                  build/uno/production/startup.o
CNENCLR                                           /Applications/microchip/mplabc32/v1.11a/bin/../lib/gcc/pic32mx/3.4.4/../../../../pic32mx/lib/./proc/32MX320F064H/processor.o
                                                  /Applications/microchip/mplabc32/v1.11a/bin/../lib/gcc/pic32mx/3.4.4/../../../../pic32mx/lib/libc.a(memcpy.o)
                                                  build/uno/production/startup.o
CNENINV                                           /Applications/microchip/mplabc32/v1.11a/bin/../lib/gcc/pic32mx/3.4.4/../../../../pic32mx/lib/./proc/32MX320F064H/processor.o
                                                  /Applications/microchip/mplabc32/v1.11a/bin/../lib/gcc/pic32mx/3.4.4/../../../../pic32mx/lib/libc.a(memcpy.o)
                                                  build/uno/production/startup.o
CNENSET                                           /Applications/microchip/mplabc32/v1.11a/bin/../lib/gcc/pic32mx/3.4.4/../../../../pic32mx/lib/./proc/32MX320F064H/processor.o
                                                  /Applications/microchip/mplabc32/v1.11a/bin/../lib/gcc/pic32mx/3.4.4/../../../../pic32mx/lib/libc.a(memcpy.o)
                                                  build/uno/production/startup.o
CNPUE                                             /Applications/microchip/mplabc32/v1.11a/bin/../lib/gcc/pic32mx/3.4.4/../../../../pic32mx/lib/./proc/32MX320F064H/processor.o
                                                  /Applications/microchip/mplabc32/v1.11a/bin/../lib/gcc/pic32mx/3.4.4/../../../../pic32mx/lib/libc.a(memcpy.o)
                                                  build/uno/production/startup.o
CNPUECLR                                          /Applications/microchip/mplabc32/v1.11a/bin/../lib/gcc/pic32mx/3.4.4/../../../../pic32mx/lib/./proc/32MX320F064H/processor.o
                                                  /Applications/microchip/mplabc32/v1.11a/bin/../lib/gcc/pic32mx/3.4.4/../../../../pic32mx/lib/libc.a(memcpy.o)
                                                  build/uno/production/startup.o
CNPUEINV                                          /Applications/microchip/mplabc32/v1.11a/bin/../lib/gcc/pic32mx/3.4.4/../../../../pic32mx/lib/./proc/32MX320F064H/processor.o
                                                  /Applications/microchip/mplabc32/v1.11a/bin/../lib/gcc/pic32mx/3.4.4/../../../../pic32mx/lib/libc.a(memcpy.o)
                                                  build/uno/production/startup.o
CNPUESET                                          /Applications/microchip/mplabc32/v1.11a/bin/../lib/gcc/pic32mx/3.4.4/../../../../pic32mx/lib/./proc/32MX320F064H/processor.o
                                                  /Applications/microchip/mplabc32/v1.11a/bin/../lib/gcc/pic32mx/3.4.4/../../../../pic32mx/lib/libc.a(memcpy.o)
                                                  build/uno/production/startup.o
CVRCON                                            /Applications/microchip/mplabc32/v1.11a/bin/../lib/gcc/pic32mx/3.4.4/../../../../pic32mx/lib/./proc/32MX320F064H/processor.o
                                                  /Applications/microchip/mplabc32/v1.11a/bin/../lib/gcc/pic32mx/3.4.4/../../../../pic32mx/lib/libc.a(memcpy.o)
                                                  build/uno/production/startup.o
CVRCONCLR                                         /Applications/microchip/mplabc32/v1.11a/bin/../lib/gcc/pic32mx/3.4.4/../../../../pic32mx/lib/./proc/32MX320F064H/processor.o
                                                  /Applications/microchip/mplabc32/v1.11a/bin/../lib/gcc/pic32mx/3.4.4/../../../../pic32mx/lib/libc.a(memcpy.o)
                                                  build/uno/production/startup.o
CVRCONINV                                         /Applications/microchip/mplabc32/v1.11a/bin/../lib/gcc/pic32mx/3.4.4/../../../../pic32mx/lib/./proc/32MX320F064H/processor.o
                                                  /Applications/microchip/mplabc32/v1.11a/bin/../lib/gcc/pic32mx/3.4.4/../../../../pic32mx/lib/libc.a(memcpy.o)
                                                  build/uno/production/startup.o
CVRCONSET                                         /Applications/microchip/mplabc32/v1.11a/bin/../lib/gcc/pic32mx/3.4.4/../../../../pic32mx/lib/./proc/32MX320F064H/processor.o
                                                  /Applications/microchip/mplabc32/v1.11a/bin/../lib/gcc/pic32mx/3.4.4/../../../../pic32mx/lib/libc.a(memcpy.o)
                                                  build/uno/production/startup.o
CheKseg0CacheOff                                  /Applications/microchip/mplabc32/v1.11a/bin/../lib/gcc/pic32mx/3.4.4/../../../../pic32mx/lib/libmchp_peripheral_32MX320F064H.a(pcache.o)
CheKseg0CacheOn                                   /Applications/microchip/mplabc32/v1.11a/bin/../lib/gcc/pic32mx/3.4.4/../../../../pic32mx/lib/libmchp_peripheral_32MX320F064H.a(pcache.o)
                                                  build/uno/production/pic32bootloader.o
DCH0CON                                           /Applications/microchip/mplabc32/v1.11a/bin/../lib/gcc/pic32mx/3.4.4/../../../../pic32mx/lib/libc.a(memcpy.o)
DCH0CONCLR                                        /Applications/microchip/mplabc32/v1.11a/bin/../lib/gcc/pic32mx/3.4.4/../../../../pic32mx/lib/libc.a(memcpy.o)
DCH0CONINV                                        /Applications/microchip/mplabc32/v1.11a/bin/../lib/gcc/pic32mx/3.4.4/../../../../pic32mx/lib/libc.a(memcpy.o)
DCH0CONSET                                        /Applications/microchip/mplabc32/v1.11a/bin/../lib/gcc/pic32mx/3.4.4/../../../../pic32mx/lib/libc.a(memcpy.o)
DCH0CPTR                                          /Applications/microchip/mplabc32/v1.11a/bin/../lib/gcc/pic32mx/3.4.4/../../../../pic32mx/lib/libc.a(memcpy.o)
DCH0CPTRCLR                                       /Applications/microchip/mplabc32/v1.11a/bin/../lib/gcc/pic32mx/3.4.4/../../../../pic32mx/lib/libc.a(memcpy.o)
DCH0CPTRINV                                       /Applications/microchip/mplabc32/v1.11a/bin/../lib/gcc/pic32mx/3.4.4/../../../../pic32mx/lib/libc.a(memcpy.o)
DCH0CPTRSET                                       /Applications/microchip/mplabc32/v1.11a/bin/../lib/gcc/pic32mx/3.4.4/../../../../pic32mx/lib/libc.a(memcpy.o)
DCH0CSIZ                                          /Applications/microchip/mplabc32/v1.11a/bin/../lib/gcc/pic32mx/3.4.4/../../../../pic32mx/lib/libc.a(memcpy.o)
DCH0CSIZCLR                                       /Applications/microchip/mplabc32/v1.11a/bin/../lib/gcc/pic32mx/3.4.4/../../../../pic32mx/lib/libc.a(memcpy.o)
DCH0CSIZINV                                       /Applications/microchip/mplabc32/v1.11a/bin/../lib/gcc/pic32mx/3.4.4/../../../../pic32mx/lib/libc.a(memcpy.o)
DCH0CSIZSET                                       /Applications/microchip/mplabc32/v1.11a/bin/../lib/gcc/pic32mx/3.4.4/../../../../pic32mx/lib/libc.a(memcpy.o)
DCH0DAT                                           /Applications/microchip/mplabc32/v1.11a/bin/../lib/gcc/pic32mx/3.4.4/../../../../pic32mx/lib/libc.a(memcpy.o)
DCH0DATCLR                                        /Applications/microchip/mplabc32/v1.11a/bin/../lib/gcc/pic32mx/3.4.4/../../../../pic32mx/lib/libc.a(memcpy.o)
DCH0DATINV                                        /Applications/microchip/mplabc32/v1.11a/bin/../lib/gcc/pic32mx/3.4.4/../../../../pic32mx/lib/libc.a(memcpy.o)
DCH0DATSET                                        /Applications/microchip/mplabc32/v1.11a/bin/../lib/gcc/pic32mx/3.4.4/../../../../pic32mx/lib/libc.a(memcpy.o)
DCH0DPTR                                          /Applications/microchip/mplabc32/v1.11a/bin/../lib/gcc/pic32mx/3.4.4/../../../../pic32mx/lib/libc.a(memcpy.o)
DCH0DPTRCLR                                       /Applications/microchip/mplabc32/v1.11a/bin/../lib/gcc/pic32mx/3.4.4/../../../../pic32mx/lib/libc.a(memcpy.o)
DCH0DPTRINV                                       /Applications/microchip/mplabc32/v1.11a/bin/../lib/gcc/pic32mx/3.4.4/../../../../pic32mx/lib/libc.a(memcpy.o)
DCH0DPTRSET                                       /Applications/microchip/mplabc32/v1.11a/bin/../lib/gcc/pic32mx/3.4.4/../../../../pic32mx/lib/libc.a(memcpy.o)
DCH0DSA                                           /Applications/microchip/mplabc32/v1.11a/bin/../lib/gcc/pic32mx/3.4.4/../../../../pic32mx/lib/libc.a(memcpy.o)
DCH0DSACLR                                        /Applications/microchip/mplabc32/v1.11a/bin/../lib/gcc/pic32mx/3.4.4/../../../../pic32mx/lib/libc.a(memcpy.o)
DCH0DSAINV                                        /Applications/microchip/mplabc32/v1.11a/bin/../lib/gcc/pic32mx/3.4.4/../../../../pic32mx/lib/libc.a(memcpy.o)
DCH0DSASET                                        /Applications/microchip/mplabc32/v1.11a/bin/../lib/gcc/pic32mx/3.4.4/../../../../pic32mx/lib/libc.a(memcpy.o)
DCH0DSIZ                                          /Applications/microchip/mplabc32/v1.11a/bin/../lib/gcc/pic32mx/3.4.4/../../../../pic32mx/lib/libc.a(memcpy.o)
DCH0DSIZCLR                                       /Applications/microchip/mplabc32/v1.11a/bin/../lib/gcc/pic32mx/3.4.4/../../../../pic32mx/lib/libc.a(memcpy.o)
DCH0DSIZINV                                       /Applications/microchip/mplabc32/v1.11a/bin/../lib/gcc/pic32mx/3.4.4/../../../../pic32mx/lib/libc.a(memcpy.o)
DCH0DSIZSET                                       /Applications/microchip/mplabc32/v1.11a/bin/../lib/gcc/pic32mx/3.4.4/../../../../pic32mx/lib/libc.a(memcpy.o)
DCH0ECON                                          /Applications/microchip/mplabc32/v1.11a/bin/../lib/gcc/pic32mx/3.4.4/../../../../pic32mx/lib/libc.a(memcpy.o)
DCH0ECONCLR                                       /Applications/microchip/mplabc32/v1.11a/bin/../lib/gcc/pic32mx/3.4.4/../../../../pic32mx/lib/libc.a(memcpy.o)
DCH0ECONINV                                       /Applications/microchip/mplabc32/v1.11a/bin/../lib/gcc/pic32mx/3.4.4/../../../../pic32mx/lib/libc.a(memcpy.o)
DCH0ECONSET                                       /Applications/microchip/mplabc32/v1.11a/bin/../lib/gcc/pic32mx/3.4.4/../../../../pic32mx/lib/libc.a(memcpy.o)
DCH0INT                                           /Applications/microchip/mplabc32/v1.11a/bin/../lib/gcc/pic32mx/3.4.4/../../../../pic32mx/lib/libc.a(memcpy.o)
DCH0INTCLR                                        /Applications/microchip/mplabc32/v1.11a/bin/../lib/gcc/pic32mx/3.4.4/../../../../pic32mx/lib/libc.a(memcpy.o)
DCH0INTINV                                        /Applications/microchip/mplabc32/v1.11a/bin/../lib/gcc/pic32mx/3.4.4/../../../../pic32mx/lib/libc.a(memcpy.o)
DCH0INTSET                                        /Applications/microchip/mplabc32/v1.11a/bin/../lib/gcc/pic32mx/3.4.4/../../../../pic32mx/lib/libc.a(memcpy.o)
DCH0SPTR                                          /Applications/microchip/mplabc32/v1.11a/bin/../lib/gcc/pic32mx/3.4.4/../../../../pic32mx/lib/libc.a(memcpy.o)
DCH0SPTRCLR                                       /Applications/microchip/mplabc32/v1.11a/bin/../lib/gcc/pic32mx/3.4.4/../../../../pic32mx/lib/libc.a(memcpy.o)
DCH0SPTRINV                                       /Applications/microchip/mplabc32/v1.11a/bin/../lib/gcc/pic32mx/3.4.4/../../../../pic32mx/lib/libc.a(memcpy.o)
DCH0SPTRSET                                       /Applications/microchip/mplabc32/v1.11a/bin/../lib/gcc/pic32mx/3.4.4/../../../../pic32mx/lib/libc.a(memcpy.o)
DCH0SSA                                           /Applications/microchip/mplabc32/v1.11a/bin/../lib/gcc/pic32mx/3.4.4/../../../../pic32mx/lib/libc.a(memcpy.o)
DCH0SSACLR                                        /Applications/microchip/mplabc32/v1.11a/bin/../lib/gcc/pic32mx/3.4.4/../../../../pic32mx/lib/libc.a(memcpy.o)
DCH0SSAINV                                        /Applications/microchip/mplabc32/v1.11a/bin/../lib/gcc/pic32mx/3.4.4/../../../../pic32mx/lib/libc.a(memcpy.o)
DCH0SSASET                                        /Applications/microchip/mplabc32/v1.11a/bin/../lib/gcc/pic32mx/3.4.4/../../../../pic32mx/lib/libc.a(memcpy.o)
DCH0SSIZ                                          /Applications/microchip/mplabc32/v1.11a/bin/../lib/gcc/pic32mx/3.4.4/../../../../pic32mx/lib/libc.a(memcpy.o)
DCH0SSIZCLR                                       /Applications/microchip/mplabc32/v1.11a/bin/../lib/gcc/pic32mx/3.4.4/../../../../pic32mx/lib/libc.a(memcpy.o)
DCH0SSIZINV                                       /Applications/microchip/mplabc32/v1.11a/bin/../lib/gcc/pic32mx/3.4.4/../../../../pic32mx/lib/libc.a(memcpy.o)
DCH0SSIZSET                                       /Applications/microchip/mplabc32/v1.11a/bin/../lib/gcc/pic32mx/3.4.4/../../../../pic32mx/lib/libc.a(memcpy.o)
DCH1CON                                           /Applications/microchip/mplabc32/v1.11a/bin/../lib/gcc/pic32mx/3.4.4/../../../../pic32mx/lib/libc.a(memcpy.o)
DCH1CONCLR                                        /Applications/microchip/mplabc32/v1.11a/bin/../lib/gcc/pic32mx/3.4.4/../../../../pic32mx/lib/libc.a(memcpy.o)
DCH1CONINV                                        /Applications/microchip/mplabc32/v1.11a/bin/../lib/gcc/pic32mx/3.4.4/../../../../pic32mx/lib/libc.a(memcpy.o)
DCH1CONSET                                        /Applications/microchip/mplabc32/v1.11a/bin/../lib/gcc/pic32mx/3.4.4/../../../../pic32mx/lib/libc.a(memcpy.o)
DCH1CPTR                                          /Applications/microchip/mplabc32/v1.11a/bin/../lib/gcc/pic32mx/3.4.4/../../../../pic32mx/lib/libc.a(memcpy.o)
DCH1CPTRCLR                                       /Applications/microchip/mplabc32/v1.11a/bin/../lib/gcc/pic32mx/3.4.4/../../../../pic32mx/lib/libc.a(memcpy.o)
DCH1CPTRINV                                       /Applications/microchip/mplabc32/v1.11a/bin/../lib/gcc/pic32mx/3.4.4/../../../../pic32mx/lib/libc.a(memcpy.o)
DCH1CPTRSET                                       /Applications/microchip/mplabc32/v1.11a/bin/../lib/gcc/pic32mx/3.4.4/../../../../pic32mx/lib/libc.a(memcpy.o)
DCH1CSIZ                                          /Applications/microchip/mplabc32/v1.11a/bin/../lib/gcc/pic32mx/3.4.4/../../../../pic32mx/lib/libc.a(memcpy.o)
DCH1CSIZCLR                                       /Applications/microchip/mplabc32/v1.11a/bin/../lib/gcc/pic32mx/3.4.4/../../../../pic32mx/lib/libc.a(memcpy.o)
DCH1CSIZINV                                       /Applications/microchip/mplabc32/v1.11a/bin/../lib/gcc/pic32mx/3.4.4/../../../../pic32mx/lib/libc.a(memcpy.o)
DCH1CSIZSET                                       /Applications/microchip/mplabc32/v1.11a/bin/../lib/gcc/pic32mx/3.4.4/../../../../pic32mx/lib/libc.a(memcpy.o)
DCH1DAT                                           /Applications/microchip/mplabc32/v1.11a/bin/../lib/gcc/pic32mx/3.4.4/../../../../pic32mx/lib/libc.a(memcpy.o)
DCH1DATCLR                                        /Applications/microchip/mplabc32/v1.11a/bin/../lib/gcc/pic32mx/3.4.4/../../../../pic32mx/lib/libc.a(memcpy.o)
DCH1DATINV                                        /Applications/microchip/mplabc32/v1.11a/bin/../lib/gcc/pic32mx/3.4.4/../../../../pic32mx/lib/libc.a(memcpy.o)
DCH1DATSET                                        /Applications/microchip/mplabc32/v1.11a/bin/../lib/gcc/pic32mx/3.4.4/../../../../pic32mx/lib/libc.a(memcpy.o)
DCH1DPTR                                          /Applications/microchip/mplabc32/v1.11a/bin/../lib/gcc/pic32mx/3.4.4/../../../../pic32mx/lib/libc.a(memcpy.o)
DCH1DPTRCLR                                       /Applications/microchip/mplabc32/v1.11a/bin/../lib/gcc/pic32mx/3.4.4/../../../../pic32mx/lib/libc.a(memcpy.o)
DCH1DPTRINV                                       /Applications/microchip/mplabc32/v1.11a/bin/../lib/gcc/pic32mx/3.4.4/../../../../pic32mx/lib/libc.a(memcpy.o)
DCH1DPTRSET                                       /Applications/microchip/mplabc32/v1.11a/bin/../lib/gcc/pic32mx/3.4.4/../../../../pic32mx/lib/libc.a(memcpy.o)
DCH1DSA                                           /Applications/microchip/mplabc32/v1.11a/bin/../lib/gcc/pic32mx/3.4.4/../../../../pic32mx/lib/libc.a(memcpy.o)
DCH1DSACLR                                        /Applications/microchip/mplabc32/v1.11a/bin/../lib/gcc/pic32mx/3.4.4/../../../../pic32mx/lib/libc.a(memcpy.o)
DCH1DSAINV                                        /Applications/microchip/mplabc32/v1.11a/bin/../lib/gcc/pic32mx/3.4.4/../../../../pic32mx/lib/libc.a(memcpy.o)
DCH1DSASET                                        /Applications/microchip/mplabc32/v1.11a/bin/../lib/gcc/pic32mx/3.4.4/../../../../pic32mx/lib/libc.a(memcpy.o)
DCH1DSIZ                                          /Applications/microchip/mplabc32/v1.11a/bin/../lib/gcc/pic32mx/3.4.4/../../../../pic32mx/lib/libc.a(memcpy.o)
DCH1DSIZCLR                                       /Applications/microchip/mplabc32/v1.11a/bin/../lib/gcc/pic32mx/3.4.4/../../../../pic32mx/lib/libc.a(memcpy.o)
DCH1DSIZINV                                       /Applications/microchip/mplabc32/v1.11a/bin/../lib/gcc/pic32mx/3.4.4/../../../../pic32mx/lib/libc.a(memcpy.o)
DCH1DSIZSET                                       /Applications/microchip/mplabc32/v1.11a/bin/../lib/gcc/pic32mx/3.4.4/../../../../pic32mx/lib/libc.a(memcpy.o)
DCH1ECON                                          /Applications/microchip/mplabc32/v1.11a/bin/../lib/gcc/pic32mx/3.4.4/../../../../pic32mx/lib/libc.a(memcpy.o)
DCH1ECONCLR                                       /Applications/microchip/mplabc32/v1.11a/bin/../lib/gcc/pic32mx/3.4.4/../../../../pic32mx/lib/libc.a(memcpy.o)
DCH1ECONINV                                       /Applications/microchip/mplabc32/v1.11a/bin/../lib/gcc/pic32mx/3.4.4/../../../../pic32mx/lib/libc.a(memcpy.o)
DCH1ECONSET                                       /Applications/microchip/mplabc32/v1.11a/bin/../lib/gcc/pic32mx/3.4.4/../../../../pic32mx/lib/libc.a(memcpy.o)
DCH1INT                                           /Applications/microchip/mplabc32/v1.11a/bin/../lib/gcc/pic32mx/3.4.4/../../../../pic32mx/lib/libc.a(memcpy.o)
DCH1INTCLR                                        /Applications/microchip/mplabc32/v1.11a/bin/../lib/gcc/pic32mx/3.4.4/../../../../pic32mx/lib/libc.a(memcpy.o)
DCH1INTINV                                        /Applications/microchip/mplabc32/v1.11a/bin/../lib/gcc/pic32mx/3.4.4/../../../../pic32mx/lib/libc.a(memcpy.o)
DCH1INTSET                                        /Applications/microchip/mplabc32/v1.11a/bin/../lib/gcc/pic32mx/3.4.4/../../../../pic32mx/lib/libc.a(memcpy.o)
DCH1SPTR                                          /Applications/microchip/mplabc32/v1.11a/bin/../lib/gcc/pic32mx/3.4.4/../../../../pic32mx/lib/libc.a(memcpy.o)
DCH1SPTRCLR                                       /Applications/microchip/mplabc32/v1.11a/bin/../lib/gcc/pic32mx/3.4.4/../../../../pic32mx/lib/libc.a(memcpy.o)
DCH1SPTRINV                                       /Applications/microchip/mplabc32/v1.11a/bin/../lib/gcc/pic32mx/3.4.4/../../../../pic32mx/lib/libc.a(memcpy.o)
DCH1SPTRSET                                       /Applications/microchip/mplabc32/v1.11a/bin/../lib/gcc/pic32mx/3.4.4/../../../../pic32mx/lib/libc.a(memcpy.o)
DCH1SSA                                           /Applications/microchip/mplabc32/v1.11a/bin/../lib/gcc/pic32mx/3.4.4/../../../../pic32mx/lib/libc.a(memcpy.o)
DCH1SSACLR                                        /Applications/microchip/mplabc32/v1.11a/bin/../lib/gcc/pic32mx/3.4.4/../../../../pic32mx/lib/libc.a(memcpy.o)
DCH1SSAINV                                        /Applications/microchip/mplabc32/v1.11a/bin/../lib/gcc/pic32mx/3.4.4/../../../../pic32mx/lib/libc.a(memcpy.o)
DCH1SSASET                                        /Applications/microchip/mplabc32/v1.11a/bin/../lib/gcc/pic32mx/3.4.4/../../../../pic32mx/lib/libc.a(memcpy.o)
DCH1SSIZ                                          /Applications/microchip/mplabc32/v1.11a/bin/../lib/gcc/pic32mx/3.4.4/../../../../pic32mx/lib/libc.a(memcpy.o)
DCH1SSIZCLR                                       /Applications/microchip/mplabc32/v1.11a/bin/../lib/gcc/pic32mx/3.4.4/../../../../pic32mx/lib/libc.a(memcpy.o)
DCH1SSIZINV                                       /Applications/microchip/mplabc32/v1.11a/bin/../lib/gcc/pic32mx/3.4.4/../../../../pic32mx/lib/libc.a(memcpy.o)
DCH1SSIZSET                                       /Applications/microchip/mplabc32/v1.11a/bin/../lib/gcc/pic32mx/3.4.4/../../../../pic32mx/lib/libc.a(memcpy.o)
DCH2CON                                           /Applications/microchip/mplabc32/v1.11a/bin/../lib/gcc/pic32mx/3.4.4/../../../../pic32mx/lib/libc.a(memcpy.o)
DCH2CONCLR                                        /Applications/microchip/mplabc32/v1.11a/bin/../lib/gcc/pic32mx/3.4.4/../../../../pic32mx/lib/libc.a(memcpy.o)
DCH2CONINV                                        /Applications/microchip/mplabc32/v1.11a/bin/../lib/gcc/pic32mx/3.4.4/../../../../pic32mx/lib/libc.a(memcpy.o)
DCH2CONSET                                        /Applications/microchip/mplabc32/v1.11a/bin/../lib/gcc/pic32mx/3.4.4/../../../../pic32mx/lib/libc.a(memcpy.o)
DCH2CPTR                                          /Applications/microchip/mplabc32/v1.11a/bin/../lib/gcc/pic32mx/3.4.4/../../../../pic32mx/lib/libc.a(memcpy.o)
DCH2CPTRCLR                                       /Applications/microchip/mplabc32/v1.11a/bin/../lib/gcc/pic32mx/3.4.4/../../../../pic32mx/lib/libc.a(memcpy.o)
DCH2CPTRINV                                       /Applications/microchip/mplabc32/v1.11a/bin/../lib/gcc/pic32mx/3.4.4/../../../../pic32mx/lib/libc.a(memcpy.o)
DCH2CPTRSET                                       /Applications/microchip/mplabc32/v1.11a/bin/../lib/gcc/pic32mx/3.4.4/../../../../pic32mx/lib/libc.a(memcpy.o)
DCH2CSIZ                                          /Applications/microchip/mplabc32/v1.11a/bin/../lib/gcc/pic32mx/3.4.4/../../../../pic32mx/lib/libc.a(memcpy.o)
DCH2CSIZCLR                                       /Applications/microchip/mplabc32/v1.11a/bin/../lib/gcc/pic32mx/3.4.4/../../../../pic32mx/lib/libc.a(memcpy.o)
DCH2CSIZINV                                       /Applications/microchip/mplabc32/v1.11a/bin/../lib/gcc/pic32mx/3.4.4/../../../../pic32mx/lib/libc.a(memcpy.o)
DCH2CSIZSET                                       /Applications/microchip/mplabc32/v1.11a/bin/../lib/gcc/pic32mx/3.4.4/../../../../pic32mx/lib/libc.a(memcpy.o)
DCH2DAT                                           /Applications/microchip/mplabc32/v1.11a/bin/../lib/gcc/pic32mx/3.4.4/../../../../pic32mx/lib/libc.a(memcpy.o)
DCH2DATCLR                                        /Applications/microchip/mplabc32/v1.11a/bin/../lib/gcc/pic32mx/3.4.4/../../../../pic32mx/lib/libc.a(memcpy.o)
DCH2DATINV                                        /Applications/microchip/mplabc32/v1.11a/bin/../lib/gcc/pic32mx/3.4.4/../../../../pic32mx/lib/libc.a(memcpy.o)
DCH2DATSET                                        /Applications/microchip/mplabc32/v1.11a/bin/../lib/gcc/pic32mx/3.4.4/../../../../pic32mx/lib/libc.a(memcpy.o)
DCH2DPTR                                          /Applications/microchip/mplabc32/v1.11a/bin/../lib/gcc/pic32mx/3.4.4/../../../../pic32mx/lib/libc.a(memcpy.o)
DCH2DPTRCLR                                       /Applications/microchip/mplabc32/v1.11a/bin/../lib/gcc/pic32mx/3.4.4/../../../../pic32mx/lib/libc.a(memcpy.o)
DCH2DPTRINV                                       /Applications/microchip/mplabc32/v1.11a/bin/../lib/gcc/pic32mx/3.4.4/../../../../pic32mx/lib/libc.a(memcpy.o)
DCH2DPTRSET                                       /Applications/microchip/mplabc32/v1.11a/bin/../lib/gcc/pic32mx/3.4.4/../../../../pic32mx/lib/libc.a(memcpy.o)
DCH2DSA                                           /Applications/microchip/mplabc32/v1.11a/bin/../lib/gcc/pic32mx/3.4.4/../../../../pic32mx/lib/libc.a(memcpy.o)
DCH2DSACLR                                        /Applications/microchip/mplabc32/v1.11a/bin/../lib/gcc/pic32mx/3.4.4/../../../../pic32mx/lib/libc.a(memcpy.o)
DCH2DSAINV                                        /Applications/microchip/mplabc32/v1.11a/bin/../lib/gcc/pic32mx/3.4.4/../../../../pic32mx/lib/libc.a(memcpy.o)
DCH2DSASET                                        /Applications/microchip/mplabc32/v1.11a/bin/../lib/gcc/pic32mx/3.4.4/../../../../pic32mx/lib/libc.a(memcpy.o)
DCH2DSIZ                                          /Applications/microchip/mplabc32/v1.11a/bin/../lib/gcc/pic32mx/3.4.4/../../../../pic32mx/lib/libc.a(memcpy.o)
DCH2DSIZCLR                                       /Applications/microchip/mplabc32/v1.11a/bin/../lib/gcc/pic32mx/3.4.4/../../../../pic32mx/lib/libc.a(memcpy.o)
DCH2DSIZINV                                       /Applications/microchip/mplabc32/v1.11a/bin/../lib/gcc/pic32mx/3.4.4/../../../../pic32mx/lib/libc.a(memcpy.o)
DCH2DSIZSET                                       /Applications/microchip/mplabc32/v1.11a/bin/../lib/gcc/pic32mx/3.4.4/../../../../pic32mx/lib/libc.a(memcpy.o)
DCH2ECON                                          /Applications/microchip/mplabc32/v1.11a/bin/../lib/gcc/pic32mx/3.4.4/../../../../pic32mx/lib/libc.a(memcpy.o)
DCH2ECONCLR                                       /Applications/microchip/mplabc32/v1.11a/bin/../lib/gcc/pic32mx/3.4.4/../../../../pic32mx/lib/libc.a(memcpy.o)
DCH2ECONINV                                       /Applications/microchip/mplabc32/v1.11a/bin/../lib/gcc/pic32mx/3.4.4/../../../../pic32mx/lib/libc.a(memcpy.o)
DCH2ECONSET                                       /Applications/microchip/mplabc32/v1.11a/bin/../lib/gcc/pic32mx/3.4.4/../../../../pic32mx/lib/libc.a(memcpy.o)
DCH2INT                                           /Applications/microchip/mplabc32/v1.11a/bin/../lib/gcc/pic32mx/3.4.4/../../../../pic32mx/lib/libc.a(memcpy.o)
DCH2INTCLR                                        /Applications/microchip/mplabc32/v1.11a/bin/../lib/gcc/pic32mx/3.4.4/../../../../pic32mx/lib/libc.a(memcpy.o)
DCH2INTINV                                        /Applications/microchip/mplabc32/v1.11a/bin/../lib/gcc/pic32mx/3.4.4/../../../../pic32mx/lib/libc.a(memcpy.o)
DCH2INTSET                                        /Applications/microchip/mplabc32/v1.11a/bin/../lib/gcc/pic32mx/3.4.4/../../../../pic32mx/lib/libc.a(memcpy.o)
DCH2SPTR                                          /Applications/microchip/mplabc32/v1.11a/bin/../lib/gcc/pic32mx/3.4.4/../../../../pic32mx/lib/libc.a(memcpy.o)
DCH2SPTRCLR                                       /Applications/microchip/mplabc32/v1.11a/bin/../lib/gcc/pic32mx/3.4.4/../../../../pic32mx/lib/libc.a(memcpy.o)
DCH2SPTRINV                                       /Applications/microchip/mplabc32/v1.11a/bin/../lib/gcc/pic32mx/3.4.4/../../../../pic32mx/lib/libc.a(memcpy.o)
DCH2SPTRSET                                       /Applications/microchip/mplabc32/v1.11a/bin/../lib/gcc/pic32mx/3.4.4/../../../../pic32mx/lib/libc.a(memcpy.o)
DCH2SSA                                           /Applications/microchip/mplabc32/v1.11a/bin/../lib/gcc/pic32mx/3.4.4/../../../../pic32mx/lib/libc.a(memcpy.o)
DCH2SSACLR                                        /Applications/microchip/mplabc32/v1.11a/bin/../lib/gcc/pic32mx/3.4.4/../../../../pic32mx/lib/libc.a(memcpy.o)
DCH2SSAINV                                        /Applications/microchip/mplabc32/v1.11a/bin/../lib/gcc/pic32mx/3.4.4/../../../../pic32mx/lib/libc.a(memcpy.o)
DCH2SSASET                                        /Applications/microchip/mplabc32/v1.11a/bin/../lib/gcc/pic32mx/3.4.4/../../../../pic32mx/lib/libc.a(memcpy.o)
DCH2SSIZ                                          /Applications/microchip/mplabc32/v1.11a/bin/../lib/gcc/pic32mx/3.4.4/../../../../pic32mx/lib/libc.a(memcpy.o)
DCH2SSIZCLR                                       /Applications/microchip/mplabc32/v1.11a/bin/../lib/gcc/pic32mx/3.4.4/../../../../pic32mx/lib/libc.a(memcpy.o)
DCH2SSIZINV                                       /Applications/microchip/mplabc32/v1.11a/bin/../lib/gcc/pic32mx/3.4.4/../../../../pic32mx/lib/libc.a(memcpy.o)
DCH2SSIZSET                                       /Applications/microchip/mplabc32/v1.11a/bin/../lib/gcc/pic32mx/3.4.4/../../../../pic32mx/lib/libc.a(memcpy.o)
DCH3CON                                           /Applications/microchip/mplabc32/v1.11a/bin/../lib/gcc/pic32mx/3.4.4/../../../../pic32mx/lib/libc.a(memcpy.o)
DCH3CONCLR                                        /Applications/microchip/mplabc32/v1.11a/bin/../lib/gcc/pic32mx/3.4.4/../../../../pic32mx/lib/libc.a(memcpy.o)
DCH3CONINV                                        /Applications/microchip/mplabc32/v1.11a/bin/../lib/gcc/pic32mx/3.4.4/../../../../pic32mx/lib/libc.a(memcpy.o)
DCH3CONSET                                        /Applications/microchip/mplabc32/v1.11a/bin/../lib/gcc/pic32mx/3.4.4/../../../../pic32mx/lib/libc.a(memcpy.o)
DCH3CPTR                                          /Applications/microchip/mplabc32/v1.11a/bin/../lib/gcc/pic32mx/3.4.4/../../../../pic32mx/lib/libc.a(memcpy.o)
DCH3CPTRCLR                                       /Applications/microchip/mplabc32/v1.11a/bin/../lib/gcc/pic32mx/3.4.4/../../../../pic32mx/lib/libc.a(memcpy.o)
DCH3CPTRINV                                       /Applications/microchip/mplabc32/v1.11a/bin/../lib/gcc/pic32mx/3.4.4/../../../../pic32mx/lib/libc.a(memcpy.o)
DCH3CPTRSET                                       /Applications/microchip/mplabc32/v1.11a/bin/../lib/gcc/pic32mx/3.4.4/../../../../pic32mx/lib/libc.a(memcpy.o)
DCH3CSIZ                                          /Applications/microchip/mplabc32/v1.11a/bin/../lib/gcc/pic32mx/3.4.4/../../../../pic32mx/lib/libc.a(memcpy.o)
DCH3CSIZCLR                                       /Applications/microchip/mplabc32/v1.11a/bin/../lib/gcc/pic32mx/3.4.4/../../../../pic32mx/lib/libc.a(memcpy.o)
DCH3CSIZINV                                       /Applications/microchip/mplabc32/v1.11a/bin/../lib/gcc/pic32mx/3.4.4/../../../../pic32mx/lib/libc.a(memcpy.o)
DCH3CSIZSET                                       /Applications/microchip/mplabc32/v1.11a/bin/../lib/gcc/pic32mx/3.4.4/../../../../pic32mx/lib/libc.a(memcpy.o)
DCH3DAT                                           /Applications/microchip/mplabc32/v1.11a/bin/../lib/gcc/pic32mx/3.4.4/../../../../pic32mx/lib/libc.a(memcpy.o)
DCH3DATCLR                                        /Applications/microchip/mplabc32/v1.11a/bin/../lib/gcc/pic32mx/3.4.4/../../../../pic32mx/lib/libc.a(memcpy.o)
DCH3DATINV                                        /Applications/microchip/mplabc32/v1.11a/bin/../lib/gcc/pic32mx/3.4.4/../../../../pic32mx/lib/libc.a(memcpy.o)
DCH3DATSET                                        /Applications/microchip/mplabc32/v1.11a/bin/../lib/gcc/pic32mx/3.4.4/../../../../pic32mx/lib/libc.a(memcpy.o)
DCH3DPTR                                          /Applications/microchip/mplabc32/v1.11a/bin/../lib/gcc/pic32mx/3.4.4/../../../../pic32mx/lib/libc.a(memcpy.o)
DCH3DPTRCLR                                       /Applications/microchip/mplabc32/v1.11a/bin/../lib/gcc/pic32mx/3.4.4/../../../../pic32mx/lib/libc.a(memcpy.o)
DCH3DPTRINV                                       /Applications/microchip/mplabc32/v1.11a/bin/../lib/gcc/pic32mx/3.4.4/../../../../pic32mx/lib/libc.a(memcpy.o)
DCH3DPTRSET                                       /Applications/microchip/mplabc32/v1.11a/bin/../lib/gcc/pic32mx/3.4.4/../../../../pic32mx/lib/libc.a(memcpy.o)
DCH3DSA                                           /Applications/microchip/mplabc32/v1.11a/bin/../lib/gcc/pic32mx/3.4.4/../../../../pic32mx/lib/libc.a(memcpy.o)
DCH3DSACLR                                        /Applications/microchip/mplabc32/v1.11a/bin/../lib/gcc/pic32mx/3.4.4/../../../../pic32mx/lib/libc.a(memcpy.o)
DCH3DSAINV                                        /Applications/microchip/mplabc32/v1.11a/bin/../lib/gcc/pic32mx/3.4.4/../../../../pic32mx/lib/libc.a(memcpy.o)
DCH3DSASET                                        /Applications/microchip/mplabc32/v1.11a/bin/../lib/gcc/pic32mx/3.4.4/../../../../pic32mx/lib/libc.a(memcpy.o)
DCH3DSIZ                                          /Applications/microchip/mplabc32/v1.11a/bin/../lib/gcc/pic32mx/3.4.4/../../../../pic32mx/lib/libc.a(memcpy.o)
DCH3DSIZCLR                                       /Applications/microchip/mplabc32/v1.11a/bin/../lib/gcc/pic32mx/3.4.4/../../../../pic32mx/lib/libc.a(memcpy.o)
DCH3DSIZINV                                       /Applications/microchip/mplabc32/v1.11a/bin/../lib/gcc/pic32mx/3.4.4/../../../../pic32mx/lib/libc.a(memcpy.o)
DCH3DSIZSET                                       /Applications/microchip/mplabc32/v1.11a/bin/../lib/gcc/pic32mx/3.4.4/../../../../pic32mx/lib/libc.a(memcpy.o)
DCH3ECON                                          /Applications/microchip/mplabc32/v1.11a/bin/../lib/gcc/pic32mx/3.4.4/../../../../pic32mx/lib/libc.a(memcpy.o)
DCH3ECONCLR                                       /Applications/microchip/mplabc32/v1.11a/bin/../lib/gcc/pic32mx/3.4.4/../../../../pic32mx/lib/libc.a(memcpy.o)
DCH3ECONINV                                       /Applications/microchip/mplabc32/v1.11a/bin/../lib/gcc/pic32mx/3.4.4/../../../../pic32mx/lib/libc.a(memcpy.o)
DCH3ECONSET                                       /Applications/microchip/mplabc32/v1.11a/bin/../lib/gcc/pic32mx/3.4.4/../../../../pic32mx/lib/libc.a(memcpy.o)
DCH3INT                                           /Applications/microchip/mplabc32/v1.11a/bin/../lib/gcc/pic32mx/3.4.4/../../../../pic32mx/lib/libc.a(memcpy.o)
DCH3INTCLR                                        /Applications/microchip/mplabc32/v1.11a/bin/../lib/gcc/pic32mx/3.4.4/../../../../pic32mx/lib/libc.a(memcpy.o)
DCH3INTINV                                        /Applications/microchip/mplabc32/v1.11a/bin/../lib/gcc/pic32mx/3.4.4/../../../../pic32mx/lib/libc.a(memcpy.o)
DCH3INTSET                                        /Applications/microchip/mplabc32/v1.11a/bin/../lib/gcc/pic32mx/3.4.4/../../../../pic32mx/lib/libc.a(memcpy.o)
DCH3SPTR                                          /Applications/microchip/mplabc32/v1.11a/bin/../lib/gcc/pic32mx/3.4.4/../../../../pic32mx/lib/libc.a(memcpy.o)
DCH3SPTRCLR                                       /Applications/microchip/mplabc32/v1.11a/bin/../lib/gcc/pic32mx/3.4.4/../../../../pic32mx/lib/libc.a(memcpy.o)
DCH3SPTRINV                                       /Applications/microchip/mplabc32/v1.11a/bin/../lib/gcc/pic32mx/3.4.4/../../../../pic32mx/lib/libc.a(memcpy.o)
DCH3SPTRSET                                       /Applications/microchip/mplabc32/v1.11a/bin/../lib/gcc/pic32mx/3.4.4/../../../../pic32mx/lib/libc.a(memcpy.o)
DCH3SSA                                           /Applications/microchip/mplabc32/v1.11a/bin/../lib/gcc/pic32mx/3.4.4/../../../../pic32mx/lib/libc.a(memcpy.o)
DCH3SSACLR                                        /Applications/microchip/mplabc32/v1.11a/bin/../lib/gcc/pic32mx/3.4.4/../../../../pic32mx/lib/libc.a(memcpy.o)
DCH3SSAINV                                        /Applications/microchip/mplabc32/v1.11a/bin/../lib/gcc/pic32mx/3.4.4/../../../../pic32mx/lib/libc.a(memcpy.o)
DCH3SSASET                                        /Applications/microchip/mplabc32/v1.11a/bin/../lib/gcc/pic32mx/3.4.4/../../../../pic32mx/lib/libc.a(memcpy.o)
DCH3SSIZ                                          /Applications/microchip/mplabc32/v1.11a/bin/../lib/gcc/pic32mx/3.4.4/../../../../pic32mx/lib/libc.a(memcpy.o)
DCH3SSIZCLR                                       /Applications/microchip/mplabc32/v1.11a/bin/../lib/gcc/pic32mx/3.4.4/../../../../pic32mx/lib/libc.a(memcpy.o)
DCH3SSIZINV                                       /Applications/microchip/mplabc32/v1.11a/bin/../lib/gcc/pic32mx/3.4.4/../../../../pic32mx/lib/libc.a(memcpy.o)
DCH3SSIZSET                                       /Applications/microchip/mplabc32/v1.11a/bin/../lib/gcc/pic32mx/3.4.4/../../../../pic32mx/lib/libc.a(memcpy.o)
DCRCCON                                           /Applications/microchip/mplabc32/v1.11a/bin/../lib/gcc/pic32mx/3.4.4/../../../../pic32mx/lib/libc.a(memcpy.o)
DCRCCONCLR                                        /Applications/microchip/mplabc32/v1.11a/bin/../lib/gcc/pic32mx/3.4.4/../../../../pic32mx/lib/libc.a(memcpy.o)
DCRCCONINV                                        /Applications/microchip/mplabc32/v1.11a/bin/../lib/gcc/pic32mx/3.4.4/../../../../pic32mx/lib/libc.a(memcpy.o)
DCRCCONSET                                        /Applications/microchip/mplabc32/v1.11a/bin/../lib/gcc/pic32mx/3.4.4/../../../../pic32mx/lib/libc.a(memcpy.o)
DCRCDATA                                          /Applications/microchip/mplabc32/v1.11a/bin/../lib/gcc/pic32mx/3.4.4/../../../../pic32mx/lib/libc.a(memcpy.o)
DCRCDATACLR                                       /Applications/microchip/mplabc32/v1.11a/bin/../lib/gcc/pic32mx/3.4.4/../../../../pic32mx/lib/libc.a(memcpy.o)
DCRCDATAINV                                       /Applications/microchip/mplabc32/v1.11a/bin/../lib/gcc/pic32mx/3.4.4/../../../../pic32mx/lib/libc.a(memcpy.o)
DCRCDATASET                                       /Applications/microchip/mplabc32/v1.11a/bin/../lib/gcc/pic32mx/3.4.4/../../../../pic32mx/lib/libc.a(memcpy.o)
DCRCXOR                                           /Applications/microchip/mplabc32/v1.11a/bin/../lib/gcc/pic32mx/3.4.4/../../../../pic32mx/lib/libc.a(memcpy.o)
DCRCXORCLR                                        /Applications/microchip/mplabc32/v1.11a/bin/../lib/gcc/pic32mx/3.4.4/../../../../pic32mx/lib/libc.a(memcpy.o)
DCRCXORINV                                        /Applications/microchip/mplabc32/v1.11a/bin/../lib/gcc/pic32mx/3.4.4/../../../../pic32mx/lib/libc.a(memcpy.o)
DCRCXORSET                                        /Applications/microchip/mplabc32/v1.11a/bin/../lib/gcc/pic32mx/3.4.4/../../../../pic32mx/lib/libc.a(memcpy.o)
DDPCON                                            /Applications/microchip/mplabc32/v1.11a/bin/../lib/gcc/pic32mx/3.4.4/../../../../pic32mx/lib/./proc/32MX320F064H/processor.o
                                                  /Applications/microchip/mplabc32/v1.11a/bin/../lib/gcc/pic32mx/3.4.4/../../../../pic32mx/lib/libc.a(memcpy.o)
                                                  build/uno/production/startup.o
DEVCFG0                                           /Applications/microchip/mplabc32/v1.11a/bin/../lib/gcc/pic32mx/3.4.4/../../../../pic32mx/lib/./proc/32MX320F064H/processor.o
                                                  build/uno/production/startup.o
DEVCFG1                                           /Applications/microchip/mplabc32/v1.11a/bin/../lib/gcc/pic32mx/3.4.4/../../../../pic32mx/lib/./proc/32MX320F064H/processor.o
                                                  build/uno/production/startup.o
DEVCFG2                                           /Applications/microchip/mplabc32/v1.11a/bin/../lib/gcc/pic32mx/3.4.4/../../../../pic32mx/lib/./proc/32MX320F064H/processor.o
                                                  build/uno/production/startup.o
DEVCFG3                                           /Applications/microchip/mplabc32/v1.11a/bin/../lib/gcc/pic32mx/3.4.4/../../../../pic32mx/lib/./proc/32MX320F064H/processor.o
                                                  build/uno/production/startup.o
DEVID                                             /Applications/microchip/mplabc32/v1.11a/bin/../lib/gcc/pic32mx/3.4.4/../../../../pic32mx/lib/./proc/32MX320F064H/processor.o
                                                  /Applications/microchip/mplabc32/v1.11a/bin/../lib/gcc/pic32mx/3.4.4/../../../../pic32mx/lib/libc.a(memcpy.o)
                                                  build/uno/production/pic32bootloader.o
                                                  build/uno/production/startup.o
DMAADDR                                           /Applications/microchip/mplabc32/v1.11a/bin/../lib/gcc/pic32mx/3.4.4/../../../../pic32mx/lib/libc.a(memcpy.o)
DMAADDRCLR                                        /Applications/microchip/mplabc32/v1.11a/bin/../lib/gcc/pic32mx/3.4.4/../../../../pic32mx/lib/libc.a(memcpy.o)
DMAADDRINV                                        /Applications/microchip/mplabc32/v1.11a/bin/../lib/gcc/pic32mx/3.4.4/../../../../pic32mx/lib/libc.a(memcpy.o)
DMAADDRSET                                        /Applications/microchip/mplabc32/v1.11a/bin/../lib/gcc/pic32mx/3.4.4/../../../../pic32mx/lib/libc.a(memcpy.o)
DMACON                                            /Applications/microchip/mplabc32/v1.11a/bin/../lib/gcc/pic32mx/3.4.4/../../../../pic32mx/lib/libc.a(memcpy.o)
DMACONCLR                                         /Applications/microchip/mplabc32/v1.11a/bin/../lib/gcc/pic32mx/3.4.4/../../../../pic32mx/lib/libc.a(memcpy.o)
DMACONINV                                         /Applications/microchip/mplabc32/v1.11a/bin/../lib/gcc/pic32mx/3.4.4/../../../../pic32mx/lib/libc.a(memcpy.o)
DMACONSET                                         /Applications/microchip/mplabc32/v1.11a/bin/../lib/gcc/pic32mx/3.4.4/../../../../pic32mx/lib/libc.a(memcpy.o)
DMASTAT                                           /Applications/microchip/mplabc32/v1.11a/bin/../lib/gcc/pic32mx/3.4.4/../../../../pic32mx/lib/libc.a(memcpy.o)
DMASTATCLR                                        /Applications/microchip/mplabc32/v1.11a/bin/../lib/gcc/pic32mx/3.4.4/../../../../pic32mx/lib/libc.a(memcpy.o)
DMASTATINV                                        /Applications/microchip/mplabc32/v1.11a/bin/../lib/gcc/pic32mx/3.4.4/../../../../pic32mx/lib/libc.a(memcpy.o)
DMASTATSET                                        /Applications/microchip/mplabc32/v1.11a/bin/../lib/gcc/pic32mx/3.4.4/../../../../pic32mx/lib/libc.a(memcpy.o)
I2C1ADD                                           /Applications/microchip/mplabc32/v1.11a/bin/../lib/gcc/pic32mx/3.4.4/../../../../pic32mx/lib/./proc/32MX320F064H/processor.o
                                                  /Applications/microchip/mplabc32/v1.11a/bin/../lib/gcc/pic32mx/3.4.4/../../../../pic32mx/lib/libc.a(memcpy.o)
                                                  build/uno/production/startup.o
I2C1ADDCLR                                        /Applications/microchip/mplabc32/v1.11a/bin/../lib/gcc/pic32mx/3.4.4/../../../../pic32mx/lib/./proc/32MX320F064H/processor.o
                                                  /Applications/microchip/mplabc32/v1.11a/bin/../lib/gcc/pic32mx/3.4.4/../../../../pic32mx/lib/libc.a(memcpy.o)
                                                  build/uno/production/startup.o
I2C1ADDINV                                        /Applications/microchip/mplabc32/v1.11a/bin/../lib/gcc/pic32mx/3.4.4/../../../../pic32mx/lib/./proc/32MX320F064H/processor.o
                                                  /Applications/microchip/mplabc32/v1.11a/bin/../lib/gcc/pic32mx/3.4.4/../../../../pic32mx/lib/libc.a(memcpy.o)
                                                  build/uno/production/startup.o
I2C1ADDSET                                        /Applications/microchip/mplabc32/v1.11a/bin/../lib/gcc/pic32mx/3.4.4/../../../../pic32mx/lib/./proc/32MX320F064H/processor.o
                                                  /Applications/microchip/mplabc32/v1.11a/bin/../lib/gcc/pic32mx/3.4.4/../../../../pic32mx/lib/libc.a(memcpy.o)
                                                  build/uno/production/startup.o
I2C1BRG                                           /Applications/microchip/mplabc32/v1.11a/bin/../lib/gcc/pic32mx/3.4.4/../../../../pic32mx/lib/./proc/32MX320F064H/processor.o
                                                  /Applications/microchip/mplabc32/v1.11a/bin/../lib/gcc/pic32mx/3.4.4/../../../../pic32mx/lib/libc.a(memcpy.o)
                                                  build/uno/production/startup.o
I2C1BRGCLR                                        /Applications/microchip/mplabc32/v1.11a/bin/../lib/gcc/pic32mx/3.4.4/../../../../pic32mx/lib/./proc/32MX320F064H/processor.o
                                                  /Applications/microchip/mplabc32/v1.11a/bin/../lib/gcc/pic32mx/3.4.4/../../../../pic32mx/lib/libc.a(memcpy.o)
                                                  build/uno/production/startup.o
I2C1BRGINV                                        /Applications/microchip/mplabc32/v1.11a/bin/../lib/gcc/pic32mx/3.4.4/../../../../pic32mx/lib/./proc/32MX320F064H/processor.o
                                                  /Applications/microchip/mplabc32/v1.11a/bin/../lib/gcc/pic32mx/3.4.4/../../../../pic32mx/lib/libc.a(memcpy.o)
                                                  build/uno/production/startup.o
I2C1BRGSET                                        /Applications/microchip/mplabc32/v1.11a/bin/../lib/gcc/pic32mx/3.4.4/../../../../pic32mx/lib/./proc/32MX320F064H/processor.o
                                                  /Applications/microchip/mplabc32/v1.11a/bin/../lib/gcc/pic32mx/3.4.4/../../../../pic32mx/lib/libc.a(memcpy.o)
                                                  build/uno/production/startup.o
I2C1CON                                           /Applications/microchip/mplabc32/v1.11a/bin/../lib/gcc/pic32mx/3.4.4/../../../../pic32mx/lib/./proc/32MX320F064H/processor.o
                                                  /Applications/microchip/mplabc32/v1.11a/bin/../lib/gcc/pic32mx/3.4.4/../../../../pic32mx/lib/libc.a(memcpy.o)
                                                  build/uno/production/startup.o
I2C1CONCLR                                        /Applications/microchip/mplabc32/v1.11a/bin/../lib/gcc/pic32mx/3.4.4/../../../../pic32mx/lib/./proc/32MX320F064H/processor.o
                                                  /Applications/microchip/mplabc32/v1.11a/bin/../lib/gcc/pic32mx/3.4.4/../../../../pic32mx/lib/libc.a(memcpy.o)
                                                  build/uno/production/startup.o
I2C1CONINV                                        /Applications/microchip/mplabc32/v1.11a/bin/../lib/gcc/pic32mx/3.4.4/../../../../pic32mx/lib/./proc/32MX320F064H/processor.o
                                                  /Applications/microchip/mplabc32/v1.11a/bin/../lib/gcc/pic32mx/3.4.4/../../../../pic32mx/lib/libc.a(memcpy.o)
                                                  build/uno/production/startup.o
I2C1CONSET                                        /Applications/microchip/mplabc32/v1.11a/bin/../lib/gcc/pic32mx/3.4.4/../../../../pic32mx/lib/./proc/32MX320F064H/processor.o
                                                  /Applications/microchip/mplabc32/v1.11a/bin/../lib/gcc/pic32mx/3.4.4/../../../../pic32mx/lib/libc.a(memcpy.o)
                                                  build/uno/production/startup.o
I2C1MSK                                           /Applications/microchip/mplabc32/v1.11a/bin/../lib/gcc/pic32mx/3.4.4/../../../../pic32mx/lib/./proc/32MX320F064H/processor.o
                                                  /Applications/microchip/mplabc32/v1.11a/bin/../lib/gcc/pic32mx/3.4.4/../../../../pic32mx/lib/libc.a(memcpy.o)
                                                  build/uno/production/startup.o
I2C1MSKCLR                                        /Applications/microchip/mplabc32/v1.11a/bin/../lib/gcc/pic32mx/3.4.4/../../../../pic32mx/lib/./proc/32MX320F064H/processor.o
                                                  /Applications/microchip/mplabc32/v1.11a/bin/../lib/gcc/pic32mx/3.4.4/../../../../pic32mx/lib/libc.a(memcpy.o)
                                                  build/uno/production/startup.o
I2C1MSKINV                                        /Applications/microchip/mplabc32/v1.11a/bin/../lib/gcc/pic32mx/3.4.4/../../../../pic32mx/lib/./proc/32MX320F064H/processor.o
                                                  /Applications/microchip/mplabc32/v1.11a/bin/../lib/gcc/pic32mx/3.4.4/../../../../pic32mx/lib/libc.a(memcpy.o)
                                                  build/uno/production/startup.o
I2C1MSKSET                                        /Applications/microchip/mplabc32/v1.11a/bin/../lib/gcc/pic32mx/3.4.4/../../../../pic32mx/lib/./proc/32MX320F064H/processor.o
                                                  /Applications/microchip/mplabc32/v1.11a/bin/../lib/gcc/pic32mx/3.4.4/../../../../pic32mx/lib/libc.a(memcpy.o)
                                                  build/uno/production/startup.o
I2C1RCV                                           /Applications/microchip/mplabc32/v1.11a/bin/../lib/gcc/pic32mx/3.4.4/../../../../pic32mx/lib/./proc/32MX320F064H/processor.o
                                                  /Applications/microchip/mplabc32/v1.11a/bin/../lib/gcc/pic32mx/3.4.4/../../../../pic32mx/lib/libc.a(memcpy.o)
                                                  build/uno/production/startup.o
I2C1STAT                                          /Applications/microchip/mplabc32/v1.11a/bin/../lib/gcc/pic32mx/3.4.4/../../../../pic32mx/lib/./proc/32MX320F064H/processor.o
                                                  /Applications/microchip/mplabc32/v1.11a/bin/../lib/gcc/pic32mx/3.4.4/../../../../pic32mx/lib/libc.a(memcpy.o)
                                                  build/uno/production/startup.o
I2C1STATCLR                                       /Applications/microchip/mplabc32/v1.11a/bin/../lib/gcc/pic32mx/3.4.4/../../../../pic32mx/lib/./proc/32MX320F064H/processor.o
                                                  /Applications/microchip/mplabc32/v1.11a/bin/../lib/gcc/pic32mx/3.4.4/../../../../pic32mx/lib/libc.a(memcpy.o)
                                                  build/uno/production/startup.o
I2C1STATINV                                       /Applications/microchip/mplabc32/v1.11a/bin/../lib/gcc/pic32mx/3.4.4/../../../../pic32mx/lib/./proc/32MX320F064H/processor.o
                                                  /Applications/microchip/mplabc32/v1.11a/bin/../lib/gcc/pic32mx/3.4.4/../../../../pic32mx/lib/libc.a(memcpy.o)
                                                  build/uno/production/startup.o
I2C1STATSET                                       /Applications/microchip/mplabc32/v1.11a/bin/../lib/gcc/pic32mx/3.4.4/../../../../pic32mx/lib/./proc/32MX320F064H/processor.o
                                                  /Applications/microchip/mplabc32/v1.11a/bin/../lib/gcc/pic32mx/3.4.4/../../../../pic32mx/lib/libc.a(memcpy.o)
                                                  build/uno/production/startup.o
I2C1TRN                                           /Applications/microchip/mplabc32/v1.11a/bin/../lib/gcc/pic32mx/3.4.4/../../../../pic32mx/lib/./proc/32MX320F064H/processor.o
                                                  /Applications/microchip/mplabc32/v1.11a/bin/../lib/gcc/pic32mx/3.4.4/../../../../pic32mx/lib/libc.a(memcpy.o)
                                                  build/uno/production/startup.o
I2C1TRNCLR                                        /Applications/microchip/mplabc32/v1.11a/bin/../lib/gcc/pic32mx/3.4.4/../../../../pic32mx/lib/./proc/32MX320F064H/processor.o
                                                  /Applications/microchip/mplabc32/v1.11a/bin/../lib/gcc/pic32mx/3.4.4/../../../../pic32mx/lib/libc.a(memcpy.o)
                                                  build/uno/production/startup.o
I2C1TRNINV                                        /Applications/microchip/mplabc32/v1.11a/bin/../lib/gcc/pic32mx/3.4.4/../../../../pic32mx/lib/./proc/32MX320F064H/processor.o
                                                  /Applications/microchip/mplabc32/v1.11a/bin/../lib/gcc/pic32mx/3.4.4/../../../../pic32mx/lib/libc.a(memcpy.o)
                                                  build/uno/production/startup.o
I2C1TRNSET                                        /Applications/microchip/mplabc32/v1.11a/bin/../lib/gcc/pic32mx/3.4.4/../../../../pic32mx/lib/./proc/32MX320F064H/processor.o
                                                  /Applications/microchip/mplabc32/v1.11a/bin/../lib/gcc/pic32mx/3.4.4/../../../../pic32mx/lib/libc.a(memcpy.o)
                                                  build/uno/production/startup.o
I2C2ADD                                           /Applications/microchip/mplabc32/v1.11a/bin/../lib/gcc/pic32mx/3.4.4/../../../../pic32mx/lib/./proc/32MX320F064H/processor.o
                                                  /Applications/microchip/mplabc32/v1.11a/bin/../lib/gcc/pic32mx/3.4.4/../../../../pic32mx/lib/libc.a(memcpy.o)
                                                  build/uno/production/startup.o
I2C2ADDCLR                                        /Applications/microchip/mplabc32/v1.11a/bin/../lib/gcc/pic32mx/3.4.4/../../../../pic32mx/lib/./proc/32MX320F064H/processor.o
                                                  /Applications/microchip/mplabc32/v1.11a/bin/../lib/gcc/pic32mx/3.4.4/../../../../pic32mx/lib/libc.a(memcpy.o)
                                                  build/uno/production/startup.o
I2C2ADDINV                                        /Applications/microchip/mplabc32/v1.11a/bin/../lib/gcc/pic32mx/3.4.4/../../../../pic32mx/lib/./proc/32MX320F064H/processor.o
                                                  /Applications/microchip/mplabc32/v1.11a/bin/../lib/gcc/pic32mx/3.4.4/../../../../pic32mx/lib/libc.a(memcpy.o)
                                                  build/uno/production/startup.o
I2C2ADDSET                                        /Applications/microchip/mplabc32/v1.11a/bin/../lib/gcc/pic32mx/3.4.4/../../../../pic32mx/lib/./proc/32MX320F064H/processor.o
                                                  /Applications/microchip/mplabc32/v1.11a/bin/../lib/gcc/pic32mx/3.4.4/../../../../pic32mx/lib/libc.a(memcpy.o)
                                                  build/uno/production/startup.o
I2C2BRG                                           /Applications/microchip/mplabc32/v1.11a/bin/../lib/gcc/pic32mx/3.4.4/../../../../pic32mx/lib/./proc/32MX320F064H/processor.o
                                                  /Applications/microchip/mplabc32/v1.11a/bin/../lib/gcc/pic32mx/3.4.4/../../../../pic32mx/lib/libc.a(memcpy.o)
                                                  build/uno/production/startup.o
I2C2BRGCLR                                        /Applications/microchip/mplabc32/v1.11a/bin/../lib/gcc/pic32mx/3.4.4/../../../../pic32mx/lib/./proc/32MX320F064H/processor.o
                                                  /Applications/microchip/mplabc32/v1.11a/bin/../lib/gcc/pic32mx/3.4.4/../../../../pic32mx/lib/libc.a(memcpy.o)
                                                  build/uno/production/startup.o
I2C2BRGINV                                        /Applications/microchip/mplabc32/v1.11a/bin/../lib/gcc/pic32mx/3.4.4/../../../../pic32mx/lib/./proc/32MX320F064H/processor.o
                                                  /Applications/microchip/mplabc32/v1.11a/bin/../lib/gcc/pic32mx/3.4.4/../../../../pic32mx/lib/libc.a(memcpy.o)
                                                  build/uno/production/startup.o
I2C2BRGSET                                        /Applications/microchip/mplabc32/v1.11a/bin/../lib/gcc/pic32mx/3.4.4/../../../../pic32mx/lib/./proc/32MX320F064H/processor.o
                                                  /Applications/microchip/mplabc32/v1.11a/bin/../lib/gcc/pic32mx/3.4.4/../../../../pic32mx/lib/libc.a(memcpy.o)
                                                  build/uno/production/startup.o
I2C2CON                                           /Applications/microchip/mplabc32/v1.11a/bin/../lib/gcc/pic32mx/3.4.4/../../../../pic32mx/lib/./proc/32MX320F064H/processor.o
                                                  /Applications/microchip/mplabc32/v1.11a/bin/../lib/gcc/pic32mx/3.4.4/../../../../pic32mx/lib/libc.a(memcpy.o)
                                                  build/uno/production/startup.o
I2C2CONCLR                                        /Applications/microchip/mplabc32/v1.11a/bin/../lib/gcc/pic32mx/3.4.4/../../../../pic32mx/lib/./proc/32MX320F064H/processor.o
                                                  /Applications/microchip/mplabc32/v1.11a/bin/../lib/gcc/pic32mx/3.4.4/../../../../pic32mx/lib/libc.a(memcpy.o)
                                                  build/uno/production/startup.o
I2C2CONINV                                        /Applications/microchip/mplabc32/v1.11a/bin/../lib/gcc/pic32mx/3.4.4/../../../../pic32mx/lib/./proc/32MX320F064H/processor.o
                                                  /Applications/microchip/mplabc32/v1.11a/bin/../lib/gcc/pic32mx/3.4.4/../../../../pic32mx/lib/libc.a(memcpy.o)
                                                  build/uno/production/startup.o
I2C2CONSET                                        /Applications/microchip/mplabc32/v1.11a/bin/../lib/gcc/pic32mx/3.4.4/../../../../pic32mx/lib/./proc/32MX320F064H/processor.o
                                                  /Applications/microchip/mplabc32/v1.11a/bin/../lib/gcc/pic32mx/3.4.4/../../../../pic32mx/lib/libc.a(memcpy.o)
                                                  build/uno/production/startup.o
I2C2MSK                                           /Applications/microchip/mplabc32/v1.11a/bin/../lib/gcc/pic32mx/3.4.4/../../../../pic32mx/lib/./proc/32MX320F064H/processor.o
                                                  /Applications/microchip/mplabc32/v1.11a/bin/../lib/gcc/pic32mx/3.4.4/../../../../pic32mx/lib/libc.a(memcpy.o)
                                                  build/uno/production/startup.o
I2C2MSKCLR                                        /Applications/microchip/mplabc32/v1.11a/bin/../lib/gcc/pic32mx/3.4.4/../../../../pic32mx/lib/./proc/32MX320F064H/processor.o
                                                  /Applications/microchip/mplabc32/v1.11a/bin/../lib/gcc/pic32mx/3.4.4/../../../../pic32mx/lib/libc.a(memcpy.o)
                                                  build/uno/production/startup.o
I2C2MSKINV                                        /Applications/microchip/mplabc32/v1.11a/bin/../lib/gcc/pic32mx/3.4.4/../../../../pic32mx/lib/./proc/32MX320F064H/processor.o
                                                  /Applications/microchip/mplabc32/v1.11a/bin/../lib/gcc/pic32mx/3.4.4/../../../../pic32mx/lib/libc.a(memcpy.o)
                                                  build/uno/production/startup.o
I2C2MSKSET                                        /Applications/microchip/mplabc32/v1.11a/bin/../lib/gcc/pic32mx/3.4.4/../../../../pic32mx/lib/./proc/32MX320F064H/processor.o
                                                  /Applications/microchip/mplabc32/v1.11a/bin/../lib/gcc/pic32mx/3.4.4/../../../../pic32mx/lib/libc.a(memcpy.o)
                                                  build/uno/production/startup.o
I2C2RCV                                           /Applications/microchip/mplabc32/v1.11a/bin/../lib/gcc/pic32mx/3.4.4/../../../../pic32mx/lib/./proc/32MX320F064H/processor.o
                                                  /Applications/microchip/mplabc32/v1.11a/bin/../lib/gcc/pic32mx/3.4.4/../../../../pic32mx/lib/libc.a(memcpy.o)
                                                  build/uno/production/startup.o
I2C2STAT                                          /Applications/microchip/mplabc32/v1.11a/bin/../lib/gcc/pic32mx/3.4.4/../../../../pic32mx/lib/./proc/32MX320F064H/processor.o
                                                  /Applications/microchip/mplabc32/v1.11a/bin/../lib/gcc/pic32mx/3.4.4/../../../../pic32mx/lib/libc.a(memcpy.o)
                                                  build/uno/production/startup.o
I2C2STATCLR                                       /Applications/microchip/mplabc32/v1.11a/bin/../lib/gcc/pic32mx/3.4.4/../../../../pic32mx/lib/./proc/32MX320F064H/processor.o
                                                  /Applications/microchip/mplabc32/v1.11a/bin/../lib/gcc/pic32mx/3.4.4/../../../../pic32mx/lib/libc.a(memcpy.o)
                                                  build/uno/production/startup.o
I2C2STATINV                                       /Applications/microchip/mplabc32/v1.11a/bin/../lib/gcc/pic32mx/3.4.4/../../../../pic32mx/lib/./proc/32MX320F064H/processor.o
                                                  /Applications/microchip/mplabc32/v1.11a/bin/../lib/gcc/pic32mx/3.4.4/../../../../pic32mx/lib/libc.a(memcpy.o)
                                                  build/uno/production/startup.o
I2C2STATSET                                       /Applications/microchip/mplabc32/v1.11a/bin/../lib/gcc/pic32mx/3.4.4/../../../../pic32mx/lib/./proc/32MX320F064H/processor.o
                                                  /Applications/microchip/mplabc32/v1.11a/bin/../lib/gcc/pic32mx/3.4.4/../../../../pic32mx/lib/libc.a(memcpy.o)
                                                  build/uno/production/startup.o
I2C2TRN                                           /Applications/microchip/mplabc32/v1.11a/bin/../lib/gcc/pic32mx/3.4.4/../../../../pic32mx/lib/./proc/32MX320F064H/processor.o
                                                  /Applications/microchip/mplabc32/v1.11a/bin/../lib/gcc/pic32mx/3.4.4/../../../../pic32mx/lib/libc.a(memcpy.o)
                                                  build/uno/production/startup.o
I2C2TRNCLR                                        /Applications/microchip/mplabc32/v1.11a/bin/../lib/gcc/pic32mx/3.4.4/../../../../pic32mx/lib/./proc/32MX320F064H/processor.o
                                                  /Applications/microchip/mplabc32/v1.11a/bin/../lib/gcc/pic32mx/3.4.4/../../../../pic32mx/lib/libc.a(memcpy.o)
                                                  build/uno/production/startup.o
I2C2TRNINV                                        /Applications/microchip/mplabc32/v1.11a/bin/../lib/gcc/pic32mx/3.4.4/../../../../pic32mx/lib/./proc/32MX320F064H/processor.o
                                                  /Applications/microchip/mplabc32/v1.11a/bin/../lib/gcc/pic32mx/3.4.4/../../../../pic32mx/lib/libc.a(memcpy.o)
                                                  build/uno/production/startup.o
I2C2TRNSET                                        /Applications/microchip/mplabc32/v1.11a/bin/../lib/gcc/pic32mx/3.4.4/../../../../pic32mx/lib/./proc/32MX320F064H/processor.o
                                                  /Applications/microchip/mplabc32/v1.11a/bin/../lib/gcc/pic32mx/3.4.4/../../../../pic32mx/lib/libc.a(memcpy.o)
                                                  build/uno/production/startup.o
IC1BUF                                            /Applications/microchip/mplabc32/v1.11a/bin/../lib/gcc/pic32mx/3.4.4/../../../../pic32mx/lib/./proc/32MX320F064H/processor.o
                                                  /Applications/microchip/mplabc32/v1.11a/bin/../lib/gcc/pic32mx/3.4.4/../../../../pic32mx/lib/libc.a(memcpy.o)
                                                  build/uno/production/startup.o
IC1CON                                            /Applications/microchip/mplabc32/v1.11a/bin/../lib/gcc/pic32mx/3.4.4/../../../../pic32mx/lib/./proc/32MX320F064H/processor.o
                                                  /Applications/microchip/mplabc32/v1.11a/bin/../lib/gcc/pic32mx/3.4.4/../../../../pic32mx/lib/libc.a(memcpy.o)
                                                  build/uno/production/startup.o
IC1CONCLR                                         /Applications/microchip/mplabc32/v1.11a/bin/../lib/gcc/pic32mx/3.4.4/../../../../pic32mx/lib/./proc/32MX320F064H/processor.o
                                                  /Applications/microchip/mplabc32/v1.11a/bin/../lib/gcc/pic32mx/3.4.4/../../../../pic32mx/lib/libc.a(memcpy.o)
                                                  build/uno/production/startup.o
IC1CONINV                                         /Applications/microchip/mplabc32/v1.11a/bin/../lib/gcc/pic32mx/3.4.4/../../../../pic32mx/lib/./proc/32MX320F064H/processor.o
                                                  /Applications/microchip/mplabc32/v1.11a/bin/../lib/gcc/pic32mx/3.4.4/../../../../pic32mx/lib/libc.a(memcpy.o)
                                                  build/uno/production/startup.o
IC1CONSET                                         /Applications/microchip/mplabc32/v1.11a/bin/../lib/gcc/pic32mx/3.4.4/../../../../pic32mx/lib/./proc/32MX320F064H/processor.o
                                                  /Applications/microchip/mplabc32/v1.11a/bin/../lib/gcc/pic32mx/3.4.4/../../../../pic32mx/lib/libc.a(memcpy.o)
                                                  build/uno/production/startup.o
IC2BUF                                            /Applications/microchip/mplabc32/v1.11a/bin/../lib/gcc/pic32mx/3.4.4/../../../../pic32mx/lib/./proc/32MX320F064H/processor.o
                                                  /Applications/microchip/mplabc32/v1.11a/bin/../lib/gcc/pic32mx/3.4.4/../../../../pic32mx/lib/libc.a(memcpy.o)
                                                  build/uno/production/startup.o
IC2CON                                            /Applications/microchip/mplabc32/v1.11a/bin/../lib/gcc/pic32mx/3.4.4/../../../../pic32mx/lib/./proc/32MX320F064H/processor.o
                                                  /Applications/microchip/mplabc32/v1.11a/bin/../lib/gcc/pic32mx/3.4.4/../../../../pic32mx/lib/libc.a(memcpy.o)
                                                  build/uno/production/startup.o
IC2CONCLR                                         /Applications/microchip/mplabc32/v1.11a/bin/../lib/gcc/pic32mx/3.4.4/../../../../pic32mx/lib/./proc/32MX320F064H/processor.o
                                                  /Applications/microchip/mplabc32/v1.11a/bin/../lib/gcc/pic32mx/3.4.4/../../../../pic32mx/lib/libc.a(memcpy.o)
                                                  build/uno/production/startup.o
IC2CONINV                                         /Applications/microchip/mplabc32/v1.11a/bin/../lib/gcc/pic32mx/3.4.4/../../../../pic32mx/lib/./proc/32MX320F064H/processor.o
                                                  /Applications/microchip/mplabc32/v1.11a/bin/../lib/gcc/pic32mx/3.4.4/../../../../pic32mx/lib/libc.a(memcpy.o)
                                                  build/uno/production/startup.o
IC2CONSET                                         /Applications/microchip/mplabc32/v1.11a/bin/../lib/gcc/pic32mx/3.4.4/../../../../pic32mx/lib/./proc/32MX320F064H/processor.o
                                                  /Applications/microchip/mplabc32/v1.11a/bin/../lib/gcc/pic32mx/3.4.4/../../../../pic32mx/lib/libc.a(memcpy.o)
                                                  build/uno/production/startup.o
IC3BUF                                            /Applications/microchip/mplabc32/v1.11a/bin/../lib/gcc/pic32mx/3.4.4/../../../../pic32mx/lib/./proc/32MX320F064H/processor.o
                                                  /Applications/microchip/mplabc32/v1.11a/bin/../lib/gcc/pic32mx/3.4.4/../../../../pic32mx/lib/libc.a(memcpy.o)
                                                  build/uno/production/startup.o
IC3CON                                            /Applications/microchip/mplabc32/v1.11a/bin/../lib/gcc/pic32mx/3.4.4/../../../../pic32mx/lib/./proc/32MX320F064H/processor.o
                                                  /Applications/microchip/mplabc32/v1.11a/bin/../lib/gcc/pic32mx/3.4.4/../../../../pic32mx/lib/libc.a(memcpy.o)
                                                  build/uno/production/startup.o
IC3CONCLR                                         /Applications/microchip/mplabc32/v1.11a/bin/../lib/gcc/pic32mx/3.4.4/../../../../pic32mx/lib/./proc/32MX320F064H/processor.o
                                                  /Applications/microchip/mplabc32/v1.11a/bin/../lib/gcc/pic32mx/3.4.4/../../../../pic32mx/lib/libc.a(memcpy.o)
                                                  build/uno/production/startup.o
IC3CONINV                                         /Applications/microchip/mplabc32/v1.11a/bin/../lib/gcc/pic32mx/3.4.4/../../../../pic32mx/lib/./proc/32MX320F064H/processor.o
                                                  /Applications/microchip/mplabc32/v1.11a/bin/../lib/gcc/pic32mx/3.4.4/../../../../pic32mx/lib/libc.a(memcpy.o)
                                                  build/uno/production/startup.o
IC3CONSET                                         /Applications/microchip/mplabc32/v1.11a/bin/../lib/gcc/pic32mx/3.4.4/../../../../pic32mx/lib/./proc/32MX320F064H/processor.o
                                                  /Applications/microchip/mplabc32/v1.11a/bin/../lib/gcc/pic32mx/3.4.4/../../../../pic32mx/lib/libc.a(memcpy.o)
                                                  build/uno/production/startup.o
IC4BUF                                            /Applications/microchip/mplabc32/v1.11a/bin/../lib/gcc/pic32mx/3.4.4/../../../../pic32mx/lib/./proc/32MX320F064H/processor.o
                                                  /Applications/microchip/mplabc32/v1.11a/bin/../lib/gcc/pic32mx/3.4.4/../../../../pic32mx/lib/libc.a(memcpy.o)
                                                  build/uno/production/startup.o
IC4CON                                            /Applications/microchip/mplabc32/v1.11a/bin/../lib/gcc/pic32mx/3.4.4/../../../../pic32mx/lib/./proc/32MX320F064H/processor.o
                                                  /Applications/microchip/mplabc32/v1.11a/bin/../lib/gcc/pic32mx/3.4.4/../../../../pic32mx/lib/libc.a(memcpy.o)
                                                  build/uno/production/startup.o
IC4CONCLR                                         /Applications/microchip/mplabc32/v1.11a/bin/../lib/gcc/pic32mx/3.4.4/../../../../pic32mx/lib/./proc/32MX320F064H/processor.o
                                                  /Applications/microchip/mplabc32/v1.11a/bin/../lib/gcc/pic32mx/3.4.4/../../../../pic32mx/lib/libc.a(memcpy.o)
                                                  build/uno/production/startup.o
IC4CONINV                                         /Applications/microchip/mplabc32/v1.11a/bin/../lib/gcc/pic32mx/3.4.4/../../../../pic32mx/lib/./proc/32MX320F064H/processor.o
                                                  /Applications/microchip/mplabc32/v1.11a/bin/../lib/gcc/pic32mx/3.4.4/../../../../pic32mx/lib/libc.a(memcpy.o)
                                                  build/uno/production/startup.o
IC4CONSET                                         /Applications/microchip/mplabc32/v1.11a/bin/../lib/gcc/pic32mx/3.4.4/../../../../pic32mx/lib/./proc/32MX320F064H/processor.o
                                                  /Applications/microchip/mplabc32/v1.11a/bin/../lib/gcc/pic32mx/3.4.4/../../../../pic32mx/lib/libc.a(memcpy.o)
                                                  build/uno/production/startup.o
IC5BUF                                            /Applications/microchip/mplabc32/v1.11a/bin/../lib/gcc/pic32mx/3.4.4/../../../../pic32mx/lib/./proc/32MX320F064H/processor.o
                                                  /Applications/microchip/mplabc32/v1.11a/bin/../lib/gcc/pic32mx/3.4.4/../../../../pic32mx/lib/libc.a(memcpy.o)
                                                  build/uno/production/startup.o
IC5CON                                            /Applications/microchip/mplabc32/v1.11a/bin/../lib/gcc/pic32mx/3.4.4/../../../../pic32mx/lib/./proc/32MX320F064H/processor.o
                                                  /Applications/microchip/mplabc32/v1.11a/bin/../lib/gcc/pic32mx/3.4.4/../../../../pic32mx/lib/libc.a(memcpy.o)
                                                  build/uno/production/startup.o
IC5CONCLR                                         /Applications/microchip/mplabc32/v1.11a/bin/../lib/gcc/pic32mx/3.4.4/../../../../pic32mx/lib/./proc/32MX320F064H/processor.o
                                                  /Applications/microchip/mplabc32/v1.11a/bin/../lib/gcc/pic32mx/3.4.4/../../../../pic32mx/lib/libc.a(memcpy.o)
                                                  build/uno/production/startup.o
IC5CONINV                                         /Applications/microchip/mplabc32/v1.11a/bin/../lib/gcc/pic32mx/3.4.4/../../../../pic32mx/lib/./proc/32MX320F064H/processor.o
                                                  /Applications/microchip/mplabc32/v1.11a/bin/../lib/gcc/pic32mx/3.4.4/../../../../pic32mx/lib/libc.a(memcpy.o)
                                                  build/uno/production/startup.o
IC5CONSET                                         /Applications/microchip/mplabc32/v1.11a/bin/../lib/gcc/pic32mx/3.4.4/../../../../pic32mx/lib/./proc/32MX320F064H/processor.o
                                                  /Applications/microchip/mplabc32/v1.11a/bin/../lib/gcc/pic32mx/3.4.4/../../../../pic32mx/lib/libc.a(memcpy.o)
                                                  build/uno/production/startup.o
IEC0                                              /Applications/microchip/mplabc32/v1.11a/bin/../lib/gcc/pic32mx/3.4.4/../../../../pic32mx/lib/./proc/32MX320F064H/processor.o
                                                  /Applications/microchip/mplabc32/v1.11a/bin/../lib/gcc/pic32mx/3.4.4/../../../../pic32mx/lib/libc.a(memcpy.o)
                                                  build/uno/production/startup.o
IEC0CLR                                           /Applications/microchip/mplabc32/v1.11a/bin/../lib/gcc/pic32mx/3.4.4/../../../../pic32mx/lib/./proc/32MX320F064H/processor.o
                                                  /Applications/microchip/mplabc32/v1.11a/bin/../lib/gcc/pic32mx/3.4.4/../../../../pic32mx/lib/libc.a(memcpy.o)
                                                  build/uno/production/startup.o
IEC0INV                                           /Applications/microchip/mplabc32/v1.11a/bin/../lib/gcc/pic32mx/3.4.4/../../../../pic32mx/lib/./proc/32MX320F064H/processor.o
                                                  /Applications/microchip/mplabc32/v1.11a/bin/../lib/gcc/pic32mx/3.4.4/../../../../pic32mx/lib/libc.a(memcpy.o)
                                                  build/uno/production/startup.o
IEC0SET                                           /Applications/microchip/mplabc32/v1.11a/bin/../lib/gcc/pic32mx/3.4.4/../../../../pic32mx/lib/./proc/32MX320F064H/processor.o
                                                  /Applications/microchip/mplabc32/v1.11a/bin/../lib/gcc/pic32mx/3.4.4/../../../../pic32mx/lib/libc.a(memcpy.o)
                                                  build/uno/production/startup.o
IEC1                                              /Applications/microchip/mplabc32/v1.11a/bin/../lib/gcc/pic32mx/3.4.4/../../../../pic32mx/lib/./proc/32MX320F064H/processor.o
                                                  /Applications/microchip/mplabc32/v1.11a/bin/../lib/gcc/pic32mx/3.4.4/../../../../pic32mx/lib/libc.a(memcpy.o)
                                                  build/uno/production/startup.o
IEC1CLR                                           /Applications/microchip/mplabc32/v1.11a/bin/../lib/gcc/pic32mx/3.4.4/../../../../pic32mx/lib/./proc/32MX320F064H/processor.o
                                                  /Applications/microchip/mplabc32/v1.11a/bin/../lib/gcc/pic32mx/3.4.4/../../../../pic32mx/lib/libc.a(memcpy.o)
                                                  build/uno/production/startup.o
IEC1INV                                           /Applications/microchip/mplabc32/v1.11a/bin/../lib/gcc/pic32mx/3.4.4/../../../../pic32mx/lib/./proc/32MX320F064H/processor.o
                                                  /Applications/microchip/mplabc32/v1.11a/bin/../lib/gcc/pic32mx/3.4.4/../../../../pic32mx/lib/libc.a(memcpy.o)
                                                  build/uno/production/startup.o
IEC1SET                                           /Applications/microchip/mplabc32/v1.11a/bin/../lib/gcc/pic32mx/3.4.4/../../../../pic32mx/lib/./proc/32MX320F064H/processor.o
                                                  /Applications/microchip/mplabc32/v1.11a/bin/../lib/gcc/pic32mx/3.4.4/../../../../pic32mx/lib/libc.a(memcpy.o)
                                                  build/uno/production/startup.o
IEC2                                              /Applications/microchip/mplabc32/v1.11a/bin/../lib/gcc/pic32mx/3.4.4/../../../../pic32mx/lib/./proc/32MX320F064H/processor.o
                                                  /Applications/microchip/mplabc32/v1.11a/bin/../lib/gcc/pic32mx/3.4.4/../../../../pic32mx/lib/libc.a(memcpy.o)
                                                  build/uno/production/startup.o
IEC2CLR                                           /Applications/microchip/mplabc32/v1.11a/bin/../lib/gcc/pic32mx/3.4.4/../../../../pic32mx/lib/./proc/32MX320F064H/processor.o
                                                  /Applications/microchip/mplabc32/v1.11a/bin/../lib/gcc/pic32mx/3.4.4/../../../../pic32mx/lib/libc.a(memcpy.o)
                                                  build/uno/production/startup.o
IEC2INV                                           /Applications/microchip/mplabc32/v1.11a/bin/../lib/gcc/pic32mx/3.4.4/../../../../pic32mx/lib/./proc/32MX320F064H/processor.o
                                                  /Applications/microchip/mplabc32/v1.11a/bin/../lib/gcc/pic32mx/3.4.4/../../../../pic32mx/lib/libc.a(memcpy.o)
                                                  build/uno/production/startup.o
IEC2SET                                           /Applications/microchip/mplabc32/v1.11a/bin/../lib/gcc/pic32mx/3.4.4/../../../../pic32mx/lib/./proc/32MX320F064H/processor.o
                                                  /Applications/microchip/mplabc32/v1.11a/bin/../lib/gcc/pic32mx/3.4.4/../../../../pic32mx/lib/libc.a(memcpy.o)
                                                  build/uno/production/startup.o
IFS0                                              /Applications/microchip/mplabc32/v1.11a/bin/../lib/gcc/pic32mx/3.4.4/../../../../pic32mx/lib/./proc/32MX320F064H/processor.o
                                                  /Applications/microchip/mplabc32/v1.11a/bin/../lib/gcc/pic32mx/3.4.4/../../../../pic32mx/lib/libc.a(memcpy.o)
                                                  build/uno/production/startup.o
IFS0CLR                                           /Applications/microchip/mplabc32/v1.11a/bin/../lib/gcc/pic32mx/3.4.4/../../../../pic32mx/lib/./proc/32MX320F064H/processor.o
                                                  /Applications/microchip/mplabc32/v1.11a/bin/../lib/gcc/pic32mx/3.4.4/../../../../pic32mx/lib/libc.a(memcpy.o)
                                                  build/uno/production/pic32bootloader.o
                                                  build/uno/production/startup.o
IFS0INV                                           /Applications/microchip/mplabc32/v1.11a/bin/../lib/gcc/pic32mx/3.4.4/../../../../pic32mx/lib/./proc/32MX320F064H/processor.o
                                                  /Applications/microchip/mplabc32/v1.11a/bin/../lib/gcc/pic32mx/3.4.4/../../../../pic32mx/lib/libc.a(memcpy.o)
                                                  build/uno/production/startup.o
IFS0SET                                           /Applications/microchip/mplabc32/v1.11a/bin/../lib/gcc/pic32mx/3.4.4/../../../../pic32mx/lib/./proc/32MX320F064H/processor.o
                                                  /Applications/microchip/mplabc32/v1.11a/bin/../lib/gcc/pic32mx/3.4.4/../../../../pic32mx/lib/libc.a(memcpy.o)
                                                  build/uno/production/startup.o
IFS1                                              /Applications/microchip/mplabc32/v1.11a/bin/../lib/gcc/pic32mx/3.4.4/../../../../pic32mx/lib/./proc/32MX320F064H/processor.o
                                                  /Applications/microchip/mplabc32/v1.11a/bin/../lib/gcc/pic32mx/3.4.4/../../../../pic32mx/lib/libc.a(memcpy.o)
                                                  build/uno/production/startup.o
IFS1CLR                                           /Applications/microchip/mplabc32/v1.11a/bin/../lib/gcc/pic32mx/3.4.4/../../../../pic32mx/lib/./proc/32MX320F064H/processor.o
                                                  /Applications/microchip/mplabc32/v1.11a/bin/../lib/gcc/pic32mx/3.4.4/../../../../pic32mx/lib/libc.a(memcpy.o)
                                                  build/uno/production/startup.o
IFS1INV                                           /Applications/microchip/mplabc32/v1.11a/bin/../lib/gcc/pic32mx/3.4.4/../../../../pic32mx/lib/./proc/32MX320F064H/processor.o
                                                  /Applications/microchip/mplabc32/v1.11a/bin/../lib/gcc/pic32mx/3.4.4/../../../../pic32mx/lib/libc.a(memcpy.o)
                                                  build/uno/production/startup.o
IFS1SET                                           /Applications/microchip/mplabc32/v1.11a/bin/../lib/gcc/pic32mx/3.4.4/../../../../pic32mx/lib/./proc/32MX320F064H/processor.o
                                                  /Applications/microchip/mplabc32/v1.11a/bin/../lib/gcc/pic32mx/3.4.4/../../../../pic32mx/lib/libc.a(memcpy.o)
                                                  build/uno/production/startup.o
IFS2                                              /Applications/microchip/mplabc32/v1.11a/bin/../lib/gcc/pic32mx/3.4.4/../../../../pic32mx/lib/./proc/32MX320F064H/processor.o
                                                  /Applications/microchip/mplabc32/v1.11a/bin/../lib/gcc/pic32mx/3.4.4/../../../../pic32mx/lib/libc.a(memcpy.o)
                                                  build/uno/production/startup.o
IFS2CLR                                           /Applications/microchip/mplabc32/v1.11a/bin/../lib/gcc/pic32mx/3.4.4/../../../../pic32mx/lib/./proc/32MX320F064H/processor.o
                                                  /Applications/microchip/mplabc32/v1.11a/bin/../lib/gcc/pic32mx/3.4.4/../../../../pic32mx/lib/libc.a(memcpy.o)
                                                  build/uno/production/startup.o
IFS2INV                                           /Applications/microchip/mplabc32/v1.11a/bin/../lib/gcc/pic32mx/3.4.4/../../../../pic32mx/lib/./proc/32MX320F064H/processor.o
                                                  /Applications/microchip/mplabc32/v1.11a/bin/../lib/gcc/pic32mx/3.4.4/../../../../pic32mx/lib/libc.a(memcpy.o)
                                                  build/uno/production/startup.o
IFS2SET                                           /Applications/microchip/mplabc32/v1.11a/bin/../lib/gcc/pic32mx/3.4.4/../../../../pic32mx/lib/./proc/32MX320F064H/processor.o
                                                  /Applications/microchip/mplabc32/v1.11a/bin/../lib/gcc/pic32mx/3.4.4/../../../../pic32mx/lib/libc.a(memcpy.o)
                                                  build/uno/production/startup.o
INTCON                                            /Applications/microchip/mplabc32/v1.11a/bin/../lib/gcc/pic32mx/3.4.4/../../../../pic32mx/lib/./proc/32MX320F064H/processor.o
                                                  /Applications/microchip/mplabc32/v1.11a/bin/../lib/gcc/pic32mx/3.4.4/../../../../pic32mx/lib/libc.a(memcpy.o)
                                                  build/uno/production/startup.o
INTCONCLR                                         /Applications/microchip/mplabc32/v1.11a/bin/../lib/gcc/pic32mx/3.4.4/../../../../pic32mx/lib/./proc/32MX320F064H/processor.o
                                                  /Applications/microchip/mplabc32/v1.11a/bin/../lib/gcc/pic32mx/3.4.4/../../../../pic32mx/lib/libc.a(memcpy.o)
                                                  build/uno/production/startup.o
INTCONINV                                         /Applications/microchip/mplabc32/v1.11a/bin/../lib/gcc/pic32mx/3.4.4/../../../../pic32mx/lib/./proc/32MX320F064H/processor.o
                                                  /Applications/microchip/mplabc32/v1.11a/bin/../lib/gcc/pic32mx/3.4.4/../../../../pic32mx/lib/libc.a(memcpy.o)
                                                  build/uno/production/startup.o
INTCONSET                                         /Applications/microchip/mplabc32/v1.11a/bin/../lib/gcc/pic32mx/3.4.4/../../../../pic32mx/lib/./proc/32MX320F064H/processor.o
                                                  /Applications/microchip/mplabc32/v1.11a/bin/../lib/gcc/pic32mx/3.4.4/../../../../pic32mx/lib/libc.a(memcpy.o)
                                                  build/uno/production/startup.o
INTDisableInterrupts                              /Applications/microchip/mplabc32/v1.11a/bin/../lib/gcc/pic32mx/3.4.4/../../../../pic32mx/lib/libmchp_peripheral_32MX320F064H.a(int_disable_interrupts_lib.o)
                                                  /Applications/microchip/mplabc32/v1.11a/bin/../lib/gcc/pic32mx/3.4.4/../../../../pic32mx/lib/libmchp_peripheral_32MX320F064H.a(nvm_operation_lib.o)
                                                  build/uno/production/pic32bootloader.o
INTRestoreInterrupts                              /Applications/microchip/mplabc32/v1.11a/bin/../lib/gcc/pic32mx/3.4.4/../../../../pic32mx/lib/libmchp_peripheral_32MX320F064H.a(int_restore_interrupts_lib.o)
                                                  /Applications/microchip/mplabc32/v1.11a/bin/../lib/gcc/pic32mx/3.4.4/../../../../pic32mx/lib/libmchp_peripheral_32MX320F064H.a(nvm_operation_lib.o)
                                                  build/uno/production/pic32bootloader.o
INTSTAT                                           /Applications/microchip/mplabc32/v1.11a/bin/../lib/gcc/pic32mx/3.4.4/../../../../pic32mx/lib/./proc/32MX320F064H/processor.o
                                                  /Applications/microchip/mplabc32/v1.11a/bin/../lib/gcc/pic32mx/3.4.4/../../../../pic32mx/lib/libc.a(memcpy.o)
                                                  build/uno/production/startup.o
IPC0                                              /Applications/microchip/mplabc32/v1.11a/bin/../lib/gcc/pic32mx/3.4.4/../../../../pic32mx/lib/./proc/32MX320F064H/processor.o
                                                  /Applications/microchip/mplabc32/v1.11a/bin/../lib/gcc/pic32mx/3.4.4/../../../../pic32mx/lib/libc.a(memcpy.o)
                                                  build/uno/production/startup.o
IPC0CLR                                           /Applications/microchip/mplabc32/v1.11a/bin/../lib/gcc/pic32mx/3.4.4/../../../../pic32mx/lib/./proc/32MX320F064H/processor.o
                                                  /Applications/microchip/mplabc32/v1.11a/bin/../lib/gcc/pic32mx/3.4.4/../../../../pic32mx/lib/libc.a(memcpy.o)
                                                  build/uno/production/startup.o
IPC0INV                                           /Applications/microchip/mplabc32/v1.11a/bin/../lib/gcc/pic32mx/3.4.4/../../../../pic32mx/lib/./proc/32MX320F064H/processor.o
                                                  /Applications/microchip/mplabc32/v1.11a/bin/../lib/gcc/pic32mx/3.4.4/../../../../pic32mx/lib/libc.a(memcpy.o)
                                                  build/uno/production/startup.o
IPC0SET                                           /Applications/microchip/mplabc32/v1.11a/bin/../lib/gcc/pic32mx/3.4.4/../../../../pic32mx/lib/./proc/32MX320F064H/processor.o
                                                  /Applications/microchip/mplabc32/v1.11a/bin/../lib/gcc/pic32mx/3.4.4/../../../../pic32mx/lib/libc.a(memcpy.o)
                                                  build/uno/production/startup.o
IPC1                                              /Applications/microchip/mplabc32/v1.11a/bin/../lib/gcc/pic32mx/3.4.4/../../../../pic32mx/lib/./proc/32MX320F064H/processor.o
                                                  /Applications/microchip/mplabc32/v1.11a/bin/../lib/gcc/pic32mx/3.4.4/../../../../pic32mx/lib/libc.a(memcpy.o)
                                                  build/uno/production/startup.o
IPC10                                             /Applications/microchip/mplabc32/v1.11a/bin/../lib/gcc/pic32mx/3.4.4/../../../../pic32mx/lib/libc.a(memcpy.o)
IPC10CLR                                          /Applications/microchip/mplabc32/v1.11a/bin/../lib/gcc/pic32mx/3.4.4/../../../../pic32mx/lib/libc.a(memcpy.o)
IPC10INV                                          /Applications/microchip/mplabc32/v1.11a/bin/../lib/gcc/pic32mx/3.4.4/../../../../pic32mx/lib/libc.a(memcpy.o)
IPC10SET                                          /Applications/microchip/mplabc32/v1.11a/bin/../lib/gcc/pic32mx/3.4.4/../../../../pic32mx/lib/libc.a(memcpy.o)
IPC11                                             /Applications/microchip/mplabc32/v1.11a/bin/../lib/gcc/pic32mx/3.4.4/../../../../pic32mx/lib/./proc/32MX320F064H/processor.o
                                                  /Applications/microchip/mplabc32/v1.11a/bin/../lib/gcc/pic32mx/3.4.4/../../../../pic32mx/lib/libc.a(memcpy.o)
                                                  build/uno/production/startup.o
IPC11CLR                                          /Applications/microchip/mplabc32/v1.11a/bin/../lib/gcc/pic32mx/3.4.4/../../../../pic32mx/lib/./proc/32MX320F064H/processor.o
                                                  /Applications/microchip/mplabc32/v1.11a/bin/../lib/gcc/pic32mx/3.4.4/../../../../pic32mx/lib/libc.a(memcpy.o)
                                                  build/uno/production/startup.o
IPC11INV                                          /Applications/microchip/mplabc32/v1.11a/bin/../lib/gcc/pic32mx/3.4.4/../../../../pic32mx/lib/./proc/32MX320F064H/processor.o
                                                  /Applications/microchip/mplabc32/v1.11a/bin/../lib/gcc/pic32mx/3.4.4/../../../../pic32mx/lib/libc.a(memcpy.o)
                                                  build/uno/production/startup.o
IPC11SET                                          /Applications/microchip/mplabc32/v1.11a/bin/../lib/gcc/pic32mx/3.4.4/../../../../pic32mx/lib/./proc/32MX320F064H/processor.o
                                                  /Applications/microchip/mplabc32/v1.11a/bin/../lib/gcc/pic32mx/3.4.4/../../../../pic32mx/lib/libc.a(memcpy.o)
                                                  build/uno/production/startup.o
IPC1CLR                                           /Applications/microchip/mplabc32/v1.11a/bin/../lib/gcc/pic32mx/3.4.4/../../../../pic32mx/lib/./proc/32MX320F064H/processor.o
                                                  /Applications/microchip/mplabc32/v1.11a/bin/../lib/gcc/pic32mx/3.4.4/../../../../pic32mx/lib/libc.a(memcpy.o)
                                                  build/uno/production/startup.o
IPC1INV                                           /Applications/microchip/mplabc32/v1.11a/bin/../lib/gcc/pic32mx/3.4.4/../../../../pic32mx/lib/./proc/32MX320F064H/processor.o
                                                  /Applications/microchip/mplabc32/v1.11a/bin/../lib/gcc/pic32mx/3.4.4/../../../../pic32mx/lib/libc.a(memcpy.o)
                                                  build/uno/production/startup.o
IPC1SET                                           /Applications/microchip/mplabc32/v1.11a/bin/../lib/gcc/pic32mx/3.4.4/../../../../pic32mx/lib/./proc/32MX320F064H/processor.o
                                                  /Applications/microchip/mplabc32/v1.11a/bin/../lib/gcc/pic32mx/3.4.4/../../../../pic32mx/lib/libc.a(memcpy.o)
                                                  build/uno/production/startup.o
IPC2                                              /Applications/microchip/mplabc32/v1.11a/bin/../lib/gcc/pic32mx/3.4.4/../../../../pic32mx/lib/./proc/32MX320F064H/processor.o
                                                  /Applications/microchip/mplabc32/v1.11a/bin/../lib/gcc/pic32mx/3.4.4/../../../../pic32mx/lib/libc.a(memcpy.o)
                                                  build/uno/production/startup.o
IPC2CLR                                           /Applications/microchip/mplabc32/v1.11a/bin/../lib/gcc/pic32mx/3.4.4/../../../../pic32mx/lib/./proc/32MX320F064H/processor.o
                                                  /Applications/microchip/mplabc32/v1.11a/bin/../lib/gcc/pic32mx/3.4.4/../../../../pic32mx/lib/libc.a(memcpy.o)
                                                  build/uno/production/startup.o
IPC2INV                                           /Applications/microchip/mplabc32/v1.11a/bin/../lib/gcc/pic32mx/3.4.4/../../../../pic32mx/lib/./proc/32MX320F064H/processor.o
                                                  /Applications/microchip/mplabc32/v1.11a/bin/../lib/gcc/pic32mx/3.4.4/../../../../pic32mx/lib/libc.a(memcpy.o)
                                                  build/uno/production/startup.o
IPC2SET                                           /Applications/microchip/mplabc32/v1.11a/bin/../lib/gcc/pic32mx/3.4.4/../../../../pic32mx/lib/./proc/32MX320F064H/processor.o
                                                  /Applications/microchip/mplabc32/v1.11a/bin/../lib/gcc/pic32mx/3.4.4/../../../../pic32mx/lib/libc.a(memcpy.o)
                                                  build/uno/production/startup.o
IPC3                                              /Applications/microchip/mplabc32/v1.11a/bin/../lib/gcc/pic32mx/3.4.4/../../../../pic32mx/lib/./proc/32MX320F064H/processor.o
                                                  /Applications/microchip/mplabc32/v1.11a/bin/../lib/gcc/pic32mx/3.4.4/../../../../pic32mx/lib/libc.a(memcpy.o)
                                                  build/uno/production/startup.o
IPC3CLR                                           /Applications/microchip/mplabc32/v1.11a/bin/../lib/gcc/pic32mx/3.4.4/../../../../pic32mx/lib/./proc/32MX320F064H/processor.o
                                                  /Applications/microchip/mplabc32/v1.11a/bin/../lib/gcc/pic32mx/3.4.4/../../../../pic32mx/lib/libc.a(memcpy.o)
                                                  build/uno/production/startup.o
IPC3INV                                           /Applications/microchip/mplabc32/v1.11a/bin/../lib/gcc/pic32mx/3.4.4/../../../../pic32mx/lib/./proc/32MX320F064H/processor.o
                                                  /Applications/microchip/mplabc32/v1.11a/bin/../lib/gcc/pic32mx/3.4.4/../../../../pic32mx/lib/libc.a(memcpy.o)
                                                  build/uno/production/startup.o
IPC3SET                                           /Applications/microchip/mplabc32/v1.11a/bin/../lib/gcc/pic32mx/3.4.4/../../../../pic32mx/lib/./proc/32MX320F064H/processor.o
                                                  /Applications/microchip/mplabc32/v1.11a/bin/../lib/gcc/pic32mx/3.4.4/../../../../pic32mx/lib/libc.a(memcpy.o)
                                                  build/uno/production/startup.o
IPC4                                              /Applications/microchip/mplabc32/v1.11a/bin/../lib/gcc/pic32mx/3.4.4/../../../../pic32mx/lib/./proc/32MX320F064H/processor.o
                                                  /Applications/microchip/mplabc32/v1.11a/bin/../lib/gcc/pic32mx/3.4.4/../../../../pic32mx/lib/libc.a(memcpy.o)
                                                  build/uno/production/startup.o
IPC4CLR                                           /Applications/microchip/mplabc32/v1.11a/bin/../lib/gcc/pic32mx/3.4.4/../../../../pic32mx/lib/./proc/32MX320F064H/processor.o
                                                  /Applications/microchip/mplabc32/v1.11a/bin/../lib/gcc/pic32mx/3.4.4/../../../../pic32mx/lib/libc.a(memcpy.o)
                                                  build/uno/production/startup.o
IPC4INV                                           /Applications/microchip/mplabc32/v1.11a/bin/../lib/gcc/pic32mx/3.4.4/../../../../pic32mx/lib/./proc/32MX320F064H/processor.o
                                                  /Applications/microchip/mplabc32/v1.11a/bin/../lib/gcc/pic32mx/3.4.4/../../../../pic32mx/lib/libc.a(memcpy.o)
                                                  build/uno/production/startup.o
IPC4SET                                           /Applications/microchip/mplabc32/v1.11a/bin/../lib/gcc/pic32mx/3.4.4/../../../../pic32mx/lib/./proc/32MX320F064H/processor.o
                                                  /Applications/microchip/mplabc32/v1.11a/bin/../lib/gcc/pic32mx/3.4.4/../../../../pic32mx/lib/libc.a(memcpy.o)
                                                  build/uno/production/startup.o
IPC5                                              /Applications/microchip/mplabc32/v1.11a/bin/../lib/gcc/pic32mx/3.4.4/../../../../pic32mx/lib/./proc/32MX320F064H/processor.o
                                                  /Applications/microchip/mplabc32/v1.11a/bin/../lib/gcc/pic32mx/3.4.4/../../../../pic32mx/lib/libc.a(memcpy.o)
                                                  build/uno/production/startup.o
IPC5CLR                                           /Applications/microchip/mplabc32/v1.11a/bin/../lib/gcc/pic32mx/3.4.4/../../../../pic32mx/lib/./proc/32MX320F064H/processor.o
                                                  /Applications/microchip/mplabc32/v1.11a/bin/../lib/gcc/pic32mx/3.4.4/../../../../pic32mx/lib/libc.a(memcpy.o)
                                                  build/uno/production/startup.o
IPC5INV                                           /Applications/microchip/mplabc32/v1.11a/bin/../lib/gcc/pic32mx/3.4.4/../../../../pic32mx/lib/./proc/32MX320F064H/processor.o
                                                  /Applications/microchip/mplabc32/v1.11a/bin/../lib/gcc/pic32mx/3.4.4/../../../../pic32mx/lib/libc.a(memcpy.o)
                                                  build/uno/production/startup.o
IPC5SET                                           /Applications/microchip/mplabc32/v1.11a/bin/../lib/gcc/pic32mx/3.4.4/../../../../pic32mx/lib/./proc/32MX320F064H/processor.o
                                                  /Applications/microchip/mplabc32/v1.11a/bin/../lib/gcc/pic32mx/3.4.4/../../../../pic32mx/lib/libc.a(memcpy.o)
                                                  build/uno/production/startup.o
IPC6                                              /Applications/microchip/mplabc32/v1.11a/bin/../lib/gcc/pic32mx/3.4.4/../../../../pic32mx/lib/./proc/32MX320F064H/processor.o
                                                  /Applications/microchip/mplabc32/v1.11a/bin/../lib/gcc/pic32mx/3.4.4/../../../../pic32mx/lib/libc.a(memcpy.o)
                                                  build/uno/production/startup.o
IPC6CLR                                           /Applications/microchip/mplabc32/v1.11a/bin/../lib/gcc/pic32mx/3.4.4/../../../../pic32mx/lib/./proc/32MX320F064H/processor.o
                                                  /Applications/microchip/mplabc32/v1.11a/bin/../lib/gcc/pic32mx/3.4.4/../../../../pic32mx/lib/libc.a(memcpy.o)
                                                  build/uno/production/startup.o
IPC6INV                                           /Applications/microchip/mplabc32/v1.11a/bin/../lib/gcc/pic32mx/3.4.4/../../../../pic32mx/lib/./proc/32MX320F064H/processor.o
                                                  /Applications/microchip/mplabc32/v1.11a/bin/../lib/gcc/pic32mx/3.4.4/../../../../pic32mx/lib/libc.a(memcpy.o)
                                                  build/uno/production/startup.o
IPC6SET                                           /Applications/microchip/mplabc32/v1.11a/bin/../lib/gcc/pic32mx/3.4.4/../../../../pic32mx/lib/./proc/32MX320F064H/processor.o
                                                  /Applications/microchip/mplabc32/v1.11a/bin/../lib/gcc/pic32mx/3.4.4/../../../../pic32mx/lib/libc.a(memcpy.o)
                                                  build/uno/production/startup.o
IPC7                                              /Applications/microchip/mplabc32/v1.11a/bin/../lib/gcc/pic32mx/3.4.4/../../../../pic32mx/lib/./proc/32MX320F064H/processor.o
                                                  /Applications/microchip/mplabc32/v1.11a/bin/../lib/gcc/pic32mx/3.4.4/../../../../pic32mx/lib/libc.a(memcpy.o)
                                                  build/uno/production/startup.o
IPC7CLR                                           /Applications/microchip/mplabc32/v1.11a/bin/../lib/gcc/pic32mx/3.4.4/../../../../pic32mx/lib/./proc/32MX320F064H/processor.o
                                                  /Applications/microchip/mplabc32/v1.11a/bin/../lib/gcc/pic32mx/3.4.4/../../../../pic32mx/lib/libc.a(memcpy.o)
                                                  build/uno/production/startup.o
IPC7INV                                           /Applications/microchip/mplabc32/v1.11a/bin/../lib/gcc/pic32mx/3.4.4/../../../../pic32mx/lib/./proc/32MX320F064H/processor.o
                                                  /Applications/microchip/mplabc32/v1.11a/bin/../lib/gcc/pic32mx/3.4.4/../../../../pic32mx/lib/libc.a(memcpy.o)
                                                  build/uno/production/startup.o
IPC7SET                                           /Applications/microchip/mplabc32/v1.11a/bin/../lib/gcc/pic32mx/3.4.4/../../../../pic32mx/lib/./proc/32MX320F064H/processor.o
                                                  /Applications/microchip/mplabc32/v1.11a/bin/../lib/gcc/pic32mx/3.4.4/../../../../pic32mx/lib/libc.a(memcpy.o)
                                                  build/uno/production/startup.o
IPC8                                              /Applications/microchip/mplabc32/v1.11a/bin/../lib/gcc/pic32mx/3.4.4/../../../../pic32mx/lib/./proc/32MX320F064H/processor.o
                                                  /Applications/microchip/mplabc32/v1.11a/bin/../lib/gcc/pic32mx/3.4.4/../../../../pic32mx/lib/libc.a(memcpy.o)
                                                  build/uno/production/startup.o
IPC8CLR                                           /Applications/microchip/mplabc32/v1.11a/bin/../lib/gcc/pic32mx/3.4.4/../../../../pic32mx/lib/./proc/32MX320F064H/processor.o
                                                  /Applications/microchip/mplabc32/v1.11a/bin/../lib/gcc/pic32mx/3.4.4/../../../../pic32mx/lib/libc.a(memcpy.o)
                                                  build/uno/production/startup.o
IPC8INV                                           /Applications/microchip/mplabc32/v1.11a/bin/../lib/gcc/pic32mx/3.4.4/../../../../pic32mx/lib/./proc/32MX320F064H/processor.o
                                                  /Applications/microchip/mplabc32/v1.11a/bin/../lib/gcc/pic32mx/3.4.4/../../../../pic32mx/lib/libc.a(memcpy.o)
                                                  build/uno/production/startup.o
IPC8SET                                           /Applications/microchip/mplabc32/v1.11a/bin/../lib/gcc/pic32mx/3.4.4/../../../../pic32mx/lib/./proc/32MX320F064H/processor.o
                                                  /Applications/microchip/mplabc32/v1.11a/bin/../lib/gcc/pic32mx/3.4.4/../../../../pic32mx/lib/libc.a(memcpy.o)
                                                  build/uno/production/startup.o
IPC9                                              /Applications/microchip/mplabc32/v1.11a/bin/../lib/gcc/pic32mx/3.4.4/../../../../pic32mx/lib/libc.a(memcpy.o)
IPC9CLR                                           /Applications/microchip/mplabc32/v1.11a/bin/../lib/gcc/pic32mx/3.4.4/../../../../pic32mx/lib/libc.a(memcpy.o)
IPC9INV                                           /Applications/microchip/mplabc32/v1.11a/bin/../lib/gcc/pic32mx/3.4.4/../../../../pic32mx/lib/libc.a(memcpy.o)
IPC9SET                                           /Applications/microchip/mplabc32/v1.11a/bin/../lib/gcc/pic32mx/3.4.4/../../../../pic32mx/lib/libc.a(memcpy.o)
IPTMR                                             /Applications/microchip/mplabc32/v1.11a/bin/../lib/gcc/pic32mx/3.4.4/../../../../pic32mx/lib/./proc/32MX320F064H/processor.o
                                                  /Applications/microchip/mplabc32/v1.11a/bin/../lib/gcc/pic32mx/3.4.4/../../../../pic32mx/lib/libc.a(memcpy.o)
                                                  build/uno/production/startup.o
IPTMRCLR                                          /Applications/microchip/mplabc32/v1.11a/bin/../lib/gcc/pic32mx/3.4.4/../../../../pic32mx/lib/./proc/32MX320F064H/processor.o
                                                  /Applications/microchip/mplabc32/v1.11a/bin/../lib/gcc/pic32mx/3.4.4/../../../../pic32mx/lib/libc.a(memcpy.o)
                                                  build/uno/production/startup.o
IPTMRINV                                          /Applications/microchip/mplabc32/v1.11a/bin/../lib/gcc/pic32mx/3.4.4/../../../../pic32mx/lib/./proc/32MX320F064H/processor.o
                                                  /Applications/microchip/mplabc32/v1.11a/bin/../lib/gcc/pic32mx/3.4.4/../../../../pic32mx/lib/libc.a(memcpy.o)
                                                  build/uno/production/startup.o
IPTMRSET                                          /Applications/microchip/mplabc32/v1.11a/bin/../lib/gcc/pic32mx/3.4.4/../../../../pic32mx/lib/./proc/32MX320F064H/processor.o
                                                  /Applications/microchip/mplabc32/v1.11a/bin/../lib/gcc/pic32mx/3.4.4/../../../../pic32mx/lib/libc.a(memcpy.o)
                                                  build/uno/production/startup.o
LATA                                              /Applications/microchip/mplabc32/v1.11a/bin/../lib/gcc/pic32mx/3.4.4/../../../../pic32mx/lib/libc.a(memcpy.o)
LATACLR                                           /Applications/microchip/mplabc32/v1.11a/bin/../lib/gcc/pic32mx/3.4.4/../../../../pic32mx/lib/libc.a(memcpy.o)
LATAINV                                           /Applications/microchip/mplabc32/v1.11a/bin/../lib/gcc/pic32mx/3.4.4/../../../../pic32mx/lib/libc.a(memcpy.o)
LATASET                                           /Applications/microchip/mplabc32/v1.11a/bin/../lib/gcc/pic32mx/3.4.4/../../../../pic32mx/lib/libc.a(memcpy.o)
LATB                                              /Applications/microchip/mplabc32/v1.11a/bin/../lib/gcc/pic32mx/3.4.4/../../../../pic32mx/lib/./proc/32MX320F064H/processor.o
                                                  /Applications/microchip/mplabc32/v1.11a/bin/../lib/gcc/pic32mx/3.4.4/../../../../pic32mx/lib/libc.a(memcpy.o)
                                                  build/uno/production/startup.o
LATBCLR                                           /Applications/microchip/mplabc32/v1.11a/bin/../lib/gcc/pic32mx/3.4.4/../../../../pic32mx/lib/./proc/32MX320F064H/processor.o
                                                  /Applications/microchip/mplabc32/v1.11a/bin/../lib/gcc/pic32mx/3.4.4/../../../../pic32mx/lib/libc.a(memcpy.o)
                                                  build/uno/production/startup.o
LATBINV                                           /Applications/microchip/mplabc32/v1.11a/bin/../lib/gcc/pic32mx/3.4.4/../../../../pic32mx/lib/./proc/32MX320F064H/processor.o
                                                  /Applications/microchip/mplabc32/v1.11a/bin/../lib/gcc/pic32mx/3.4.4/../../../../pic32mx/lib/libc.a(memcpy.o)
                                                  build/uno/production/startup.o
LATBSET                                           /Applications/microchip/mplabc32/v1.11a/bin/../lib/gcc/pic32mx/3.4.4/../../../../pic32mx/lib/./proc/32MX320F064H/processor.o
                                                  /Applications/microchip/mplabc32/v1.11a/bin/../lib/gcc/pic32mx/3.4.4/../../../../pic32mx/lib/libc.a(memcpy.o)
                                                  build/uno/production/startup.o
LATC                                              /Applications/microchip/mplabc32/v1.11a/bin/../lib/gcc/pic32mx/3.4.4/../../../../pic32mx/lib/./proc/32MX320F064H/processor.o
                                                  /Applications/microchip/mplabc32/v1.11a/bin/../lib/gcc/pic32mx/3.4.4/../../../../pic32mx/lib/libc.a(memcpy.o)
                                                  build/uno/production/startup.o
LATCCLR                                           /Applications/microchip/mplabc32/v1.11a/bin/../lib/gcc/pic32mx/3.4.4/../../../../pic32mx/lib/./proc/32MX320F064H/processor.o
                                                  /Applications/microchip/mplabc32/v1.11a/bin/../lib/gcc/pic32mx/3.4.4/../../../../pic32mx/lib/libc.a(memcpy.o)
                                                  build/uno/production/startup.o
LATCINV                                           /Applications/microchip/mplabc32/v1.11a/bin/../lib/gcc/pic32mx/3.4.4/../../../../pic32mx/lib/./proc/32MX320F064H/processor.o
                                                  /Applications/microchip/mplabc32/v1.11a/bin/../lib/gcc/pic32mx/3.4.4/../../../../pic32mx/lib/libc.a(memcpy.o)
                                                  build/uno/production/startup.o
LATCSET                                           /Applications/microchip/mplabc32/v1.11a/bin/../lib/gcc/pic32mx/3.4.4/../../../../pic32mx/lib/./proc/32MX320F064H/processor.o
                                                  /Applications/microchip/mplabc32/v1.11a/bin/../lib/gcc/pic32mx/3.4.4/../../../../pic32mx/lib/libc.a(memcpy.o)
                                                  build/uno/production/startup.o
LATD                                              /Applications/microchip/mplabc32/v1.11a/bin/../lib/gcc/pic32mx/3.4.4/../../../../pic32mx/lib/./proc/32MX320F064H/processor.o
                                                  /Applications/microchip/mplabc32/v1.11a/bin/../lib/gcc/pic32mx/3.4.4/../../../../pic32mx/lib/libc.a(memcpy.o)
                                                  build/uno/production/startup.o
LATDCLR                                           /Applications/microchip/mplabc32/v1.11a/bin/../lib/gcc/pic32mx/3.4.4/../../../../pic32mx/lib/./proc/32MX320F064H/processor.o
                                                  /Applications/microchip/mplabc32/v1.11a/bin/../lib/gcc/pic32mx/3.4.4/../../../../pic32mx/lib/libc.a(memcpy.o)
                                                  build/uno/production/pic32bootloader.o
                                                  build/uno/production/startup.o
LATDINV                                           /Applications/microchip/mplabc32/v1.11a/bin/../lib/gcc/pic32mx/3.4.4/../../../../pic32mx/lib/./proc/32MX320F064H/processor.o
                                                  /Applications/microchip/mplabc32/v1.11a/bin/../lib/gcc/pic32mx/3.4.4/../../../../pic32mx/lib/libc.a(memcpy.o)
                                                  build/uno/production/pic32bootloader.o
                                                  build/uno/production/startup.o
LATDSET                                           /Applications/microchip/mplabc32/v1.11a/bin/../lib/gcc/pic32mx/3.4.4/../../../../pic32mx/lib/./proc/32MX320F064H/processor.o
                                                  /Applications/microchip/mplabc32/v1.11a/bin/../lib/gcc/pic32mx/3.4.4/../../../../pic32mx/lib/libc.a(memcpy.o)
                                                  build/uno/production/startup.o
LATE                                              /Applications/microchip/mplabc32/v1.11a/bin/../lib/gcc/pic32mx/3.4.4/../../../../pic32mx/lib/./proc/32MX320F064H/processor.o
                                                  /Applications/microchip/mplabc32/v1.11a/bin/../lib/gcc/pic32mx/3.4.4/../../../../pic32mx/lib/libc.a(memcpy.o)
                                                  build/uno/production/startup.o
LATECLR                                           /Applications/microchip/mplabc32/v1.11a/bin/../lib/gcc/pic32mx/3.4.4/../../../../pic32mx/lib/./proc/32MX320F064H/processor.o
                                                  /Applications/microchip/mplabc32/v1.11a/bin/../lib/gcc/pic32mx/3.4.4/../../../../pic32mx/lib/libc.a(memcpy.o)
                                                  build/uno/production/startup.o
LATEINV                                           /Applications/microchip/mplabc32/v1.11a/bin/../lib/gcc/pic32mx/3.4.4/../../../../pic32mx/lib/./proc/32MX320F064H/processor.o
                                                  /Applications/microchip/mplabc32/v1.11a/bin/../lib/gcc/pic32mx/3.4.4/../../../../pic32mx/lib/libc.a(memcpy.o)
                                                  build/uno/production/startup.o
LATESET                                           /Applications/microchip/mplabc32/v1.11a/bin/../lib/gcc/pic32mx/3.4.4/../../../../pic32mx/lib/./proc/32MX320F064H/processor.o
                                                  /Applications/microchip/mplabc32/v1.11a/bin/../lib/gcc/pic32mx/3.4.4/../../../../pic32mx/lib/libc.a(memcpy.o)
                                                  build/uno/production/startup.o
LATF                                              /Applications/microchip/mplabc32/v1.11a/bin/../lib/gcc/pic32mx/3.4.4/../../../../pic32mx/lib/./proc/32MX320F064H/processor.o
                                                  /Applications/microchip/mplabc32/v1.11a/bin/../lib/gcc/pic32mx/3.4.4/../../../../pic32mx/lib/libc.a(memcpy.o)
                                                  build/uno/production/startup.o
LATFCLR                                           /Applications/microchip/mplabc32/v1.11a/bin/../lib/gcc/pic32mx/3.4.4/../../../../pic32mx/lib/./proc/32MX320F064H/processor.o
                                                  /Applications/microchip/mplabc32/v1.11a/bin/../lib/gcc/pic32mx/3.4.4/../../../../pic32mx/lib/libc.a(memcpy.o)
                                                  build/uno/production/startup.o
LATFINV                                           /Applications/microchip/mplabc32/v1.11a/bin/../lib/gcc/pic32mx/3.4.4/../../../../pic32mx/lib/./proc/32MX320F064H/processor.o
                                                  /Applications/microchip/mplabc32/v1.11a/bin/../lib/gcc/pic32mx/3.4.4/../../../../pic32mx/lib/libc.a(memcpy.o)
                                                  build/uno/production/startup.o
LATFSET                                           /Applications/microchip/mplabc32/v1.11a/bin/../lib/gcc/pic32mx/3.4.4/../../../../pic32mx/lib/./proc/32MX320F064H/processor.o
                                                  /Applications/microchip/mplabc32/v1.11a/bin/../lib/gcc/pic32mx/3.4.4/../../../../pic32mx/lib/libc.a(memcpy.o)
                                                  build/uno/production/startup.o
LATG                                              /Applications/microchip/mplabc32/v1.11a/bin/../lib/gcc/pic32mx/3.4.4/../../../../pic32mx/lib/./proc/32MX320F064H/processor.o
                                                  /Applications/microchip/mplabc32/v1.11a/bin/../lib/gcc/pic32mx/3.4.4/../../../../pic32mx/lib/libc.a(memcpy.o)
                                                  build/uno/production/startup.o
LATGCLR                                           /Applications/microchip/mplabc32/v1.11a/bin/../lib/gcc/pic32mx/3.4.4/../../../../pic32mx/lib/./proc/32MX320F064H/processor.o
                                                  /Applications/microchip/mplabc32/v1.11a/bin/../lib/gcc/pic32mx/3.4.4/../../../../pic32mx/lib/libc.a(memcpy.o)
                                                  build/uno/production/pic32bootloader.o
                                                  build/uno/production/startup.o
LATGINV                                           /Applications/microchip/mplabc32/v1.11a/bin/../lib/gcc/pic32mx/3.4.4/../../../../pic32mx/lib/./proc/32MX320F064H/processor.o
                                                  /Applications/microchip/mplabc32/v1.11a/bin/../lib/gcc/pic32mx/3.4.4/../../../../pic32mx/lib/libc.a(memcpy.o)
                                                  build/uno/production/pic32bootloader.o
                                                  build/uno/production/startup.o
LATGSET                                           /Applications/microchip/mplabc32/v1.11a/bin/../lib/gcc/pic32mx/3.4.4/../../../../pic32mx/lib/./proc/32MX320F064H/processor.o
                                                  /Applications/microchip/mplabc32/v1.11a/bin/../lib/gcc/pic32mx/3.4.4/../../../../pic32mx/lib/libc.a(memcpy.o)
                                                  build/uno/production/startup.o
NVMADDR                                           /Applications/microchip/mplabc32/v1.11a/bin/../lib/gcc/pic32mx/3.4.4/../../../../pic32mx/lib/./proc/32MX320F064H/processor.o
                                                  /Applications/microchip/mplabc32/v1.11a/bin/../lib/gcc/pic32mx/3.4.4/../../../../pic32mx/lib/libc.a(memcpy.o)
                                                  /Applications/microchip/mplabc32/v1.11a/bin/../lib/gcc/pic32mx/3.4.4/../../../../pic32mx/lib/libmchp_peripheral_32MX320F064H.a(nvm_erase_page_lib.o)
                                                  /Applications/microchip/mplabc32/v1.11a/bin/../lib/gcc/pic32mx/3.4.4/../../../../pic32mx/lib/libmchp_peripheral_32MX320F064H.a(nvm_write_row_lib.o)
                                                  build/uno/production/startup.o
NVMADDRCLR                                        /Applications/microchip/mplabc32/v1.11a/bin/../lib/gcc/pic32mx/3.4.4/../../../../pic32mx/lib/./proc/32MX320F064H/processor.o
                                                  /Applications/microchip/mplabc32/v1.11a/bin/../lib/gcc/pic32mx/3.4.4/../../../../pic32mx/lib/libc.a(memcpy.o)
                                                  build/uno/production/startup.o
NVMADDRINV                                        /Applications/microchip/mplabc32/v1.11a/bin/../lib/gcc/pic32mx/3.4.4/../../../../pic32mx/lib/./proc/32MX320F064H/processor.o
                                                  /Applications/microchip/mplabc32/v1.11a/bin/../lib/gcc/pic32mx/3.4.4/../../../../pic32mx/lib/libc.a(memcpy.o)
                                                  build/uno/production/startup.o
NVMADDRSET                                        /Applications/microchip/mplabc32/v1.11a/bin/../lib/gcc/pic32mx/3.4.4/../../../../pic32mx/lib/./proc/32MX320F064H/processor.o
                                                  /Applications/microchip/mplabc32/v1.11a/bin/../lib/gcc/pic32mx/3.4.4/../../../../pic32mx/lib/libc.a(memcpy.o)
                                                  build/uno/production/startup.o
NVMCON                                            /Applications/microchip/mplabc32/v1.11a/bin/../lib/gcc/pic32mx/3.4.4/../../../../pic32mx/lib/./proc/32MX320F064H/processor.o
                                                  /Applications/microchip/mplabc32/v1.11a/bin/../lib/gcc/pic32mx/3.4.4/../../../../pic32mx/lib/libc.a(memcpy.o)
                                                  /Applications/microchip/mplabc32/v1.11a/bin/../lib/gcc/pic32mx/3.4.4/../../../../pic32mx/lib/libmchp_peripheral_32MX320F064H.a(nvm_operation_lib.o)
                                                  build/uno/production/startup.o
NVMCONCLR                                         /Applications/microchip/mplabc32/v1.11a/bin/../lib/gcc/pic32mx/3.4.4/../../../../pic32mx/lib/./proc/32MX320F064H/processor.o
                                                  /Applications/microchip/mplabc32/v1.11a/bin/../lib/gcc/pic32mx/3.4.4/../../../../pic32mx/lib/libc.a(memcpy.o)
                                                  /Applications/microchip/mplabc32/v1.11a/bin/../lib/gcc/pic32mx/3.4.4/../../../../pic32mx/lib/libmchp_peripheral_32MX320F064H.a(nvm_operation_lib.o)
                                                  build/uno/production/startup.o
NVMCONINV                                         /Applications/microchip/mplabc32/v1.11a/bin/../lib/gcc/pic32mx/3.4.4/../../../../pic32mx/lib/./proc/32MX320F064H/processor.o
                                                  /Applications/microchip/mplabc32/v1.11a/bin/../lib/gcc/pic32mx/3.4.4/../../../../pic32mx/lib/libc.a(memcpy.o)
                                                  build/uno/production/startup.o
NVMCONSET                                         /Applications/microchip/mplabc32/v1.11a/bin/../lib/gcc/pic32mx/3.4.4/../../../../pic32mx/lib/./proc/32MX320F064H/processor.o
                                                  /Applications/microchip/mplabc32/v1.11a/bin/../lib/gcc/pic32mx/3.4.4/../../../../pic32mx/lib/libc.a(memcpy.o)
                                                  /Applications/microchip/mplabc32/v1.11a/bin/../lib/gcc/pic32mx/3.4.4/../../../../pic32mx/lib/libmchp_peripheral_32MX320F064H.a(nvm_operation_lib.o)
                                                  build/uno/production/startup.o
NVMDATA                                           /Applications/microchip/mplabc32/v1.11a/bin/../lib/gcc/pic32mx/3.4.4/../../../../pic32mx/lib/./proc/32MX320F064H/processor.o
                                                  /Applications/microchip/mplabc32/v1.11a/bin/../lib/gcc/pic32mx/3.4.4/../../../../pic32mx/lib/libc.a(memcpy.o)
                                                  build/uno/production/startup.o
NVMErasePage                                      /Applications/microchip/mplabc32/v1.11a/bin/../lib/gcc/pic32mx/3.4.4/../../../../pic32mx/lib/libmchp_peripheral_32MX320F064H.a(nvm_erase_page_lib.o)
                                                  /Applications/microchip/mplabc32/v1.11a/bin/../lib/gcc/pic32mx/3.4.4/../../../../pic32mx/lib/libmchp_peripheral_32MX320F064H.a(nvm_program_lib.o)
NVMKEY                                            /Applications/microchip/mplabc32/v1.11a/bin/../lib/gcc/pic32mx/3.4.4/../../../../pic32mx/lib/./proc/32MX320F064H/processor.o
                                                  /Applications/microchip/mplabc32/v1.11a/bin/../lib/gcc/pic32mx/3.4.4/../../../../pic32mx/lib/libc.a(memcpy.o)
                                                  /Applications/microchip/mplabc32/v1.11a/bin/../lib/gcc/pic32mx/3.4.4/../../../../pic32mx/lib/libmchp_peripheral_32MX320F064H.a(nvm_operation_lib.o)
                                                  build/uno/production/startup.o
NVMProgram                                        /Applications/microchip/mplabc32/v1.11a/bin/../lib/gcc/pic32mx/3.4.4/../../../../pic32mx/lib/libmchp_peripheral_32MX320F064H.a(nvm_program_lib.o)
                                                  build/uno/production/pic32bootloader.o
NVMSRCADDR                                        /Applications/microchip/mplabc32/v1.11a/bin/../lib/gcc/pic32mx/3.4.4/../../../../pic32mx/lib/./proc/32MX320F064H/processor.o
                                                  /Applications/microchip/mplabc32/v1.11a/bin/../lib/gcc/pic32mx/3.4.4/../../../../pic32mx/lib/libc.a(memcpy.o)
                                                  /Applications/microchip/mplabc32/v1.11a/bin/../lib/gcc/pic32mx/3.4.4/../../../../pic32mx/lib/libmchp_peripheral_32MX320F064H.a(nvm_write_row_lib.o)
                                                  build/uno/production/startup.o
NVMWriteRow                                       /Applications/microchip/mplabc32/v1.11a/bin/../lib/gcc/pic32mx/3.4.4/../../../../pic32mx/lib/libmchp_peripheral_32MX320F064H.a(nvm_write_row_lib.o)
                                                  /Applications/microchip/mplabc32/v1.11a/bin/../lib/gcc/pic32mx/3.4.4/../../../../pic32mx/lib/libmchp_peripheral_32MX320F064H.a(nvm_program_lib.o)
OC1CON                                            /Applications/microchip/mplabc32/v1.11a/bin/../lib/gcc/pic32mx/3.4.4/../../../../pic32mx/lib/./proc/32MX320F064H/processor.o
                                                  /Applications/microchip/mplabc32/v1.11a/bin/../lib/gcc/pic32mx/3.4.4/../../../../pic32mx/lib/libc.a(memcpy.o)
                                                  build/uno/production/startup.o
OC1CONCLR                                         /Applications/microchip/mplabc32/v1.11a/bin/../lib/gcc/pic32mx/3.4.4/../../../../pic32mx/lib/./proc/32MX320F064H/processor.o
                                                  /Applications/microchip/mplabc32/v1.11a/bin/../lib/gcc/pic32mx/3.4.4/../../../../pic32mx/lib/libc.a(memcpy.o)
                                                  build/uno/production/startup.o
OC1CONINV                                         /Applications/microchip/mplabc32/v1.11a/bin/../lib/gcc/pic32mx/3.4.4/../../../../pic32mx/lib/./proc/32MX320F064H/processor.o
                                                  /Applications/microchip/mplabc32/v1.11a/bin/../lib/gcc/pic32mx/3.4.4/../../../../pic32mx/lib/libc.a(memcpy.o)
                                                  build/uno/production/startup.o
OC1CONSET                                         /Applications/microchip/mplabc32/v1.11a/bin/../lib/gcc/pic32mx/3.4.4/../../../../pic32mx/lib/./proc/32MX320F064H/processor.o
                                                  /Applications/microchip/mplabc32/v1.11a/bin/../lib/gcc/pic32mx/3.4.4/../../../../pic32mx/lib/libc.a(memcpy.o)
                                                  build/uno/production/startup.o
OC1R                                              /Applications/microchip/mplabc32/v1.11a/bin/../lib/gcc/pic32mx/3.4.4/../../../../pic32mx/lib/./proc/32MX320F064H/processor.o
                                                  /Applications/microchip/mplabc32/v1.11a/bin/../lib/gcc/pic32mx/3.4.4/../../../../pic32mx/lib/libc.a(memcpy.o)
                                                  build/uno/production/startup.o
OC1RCLR                                           /Applications/microchip/mplabc32/v1.11a/bin/../lib/gcc/pic32mx/3.4.4/../../../../pic32mx/lib/./proc/32MX320F064H/processor.o
                                                  /Applications/microchip/mplabc32/v1.11a/bin/../lib/gcc/pic32mx/3.4.4/../../../../pic32mx/lib/libc.a(memcpy.o)
                                                  build/uno/production/startup.o
OC1RINV                                           /Applications/microchip/mplabc32/v1.11a/bin/../lib/gcc/pic32mx/3.4.4/../../../../pic32mx/lib/./proc/32MX320F064H/processor.o
                                                  /Applications/microchip/mplabc32/v1.11a/bin/../lib/gcc/pic32mx/3.4.4/../../../../pic32mx/lib/libc.a(memcpy.o)
                                                  build/uno/production/startup.o
OC1RS                                             /Applications/microchip/mplabc32/v1.11a/bin/../lib/gcc/pic32mx/3.4.4/../../../../pic32mx/lib/./proc/32MX320F064H/processor.o
                                                  /Applications/microchip/mplabc32/v1.11a/bin/../lib/gcc/pic32mx/3.4.4/../../../../pic32mx/lib/libc.a(memcpy.o)
                                                  build/uno/production/startup.o
OC1RSCLR                                          /Applications/microchip/mplabc32/v1.11a/bin/../lib/gcc/pic32mx/3.4.4/../../../../pic32mx/lib/./proc/32MX320F064H/processor.o
                                                  /Applications/microchip/mplabc32/v1.11a/bin/../lib/gcc/pic32mx/3.4.4/../../../../pic32mx/lib/libc.a(memcpy.o)
                                                  build/uno/production/startup.o
OC1RSET                                           /Applications/microchip/mplabc32/v1.11a/bin/../lib/gcc/pic32mx/3.4.4/../../../../pic32mx/lib/./proc/32MX320F064H/processor.o
                                                  /Applications/microchip/mplabc32/v1.11a/bin/../lib/gcc/pic32mx/3.4.4/../../../../pic32mx/lib/libc.a(memcpy.o)
                                                  build/uno/production/startup.o
OC1RSINV                                          /Applications/microchip/mplabc32/v1.11a/bin/../lib/gcc/pic32mx/3.4.4/../../../../pic32mx/lib/./proc/32MX320F064H/processor.o
                                                  /Applications/microchip/mplabc32/v1.11a/bin/../lib/gcc/pic32mx/3.4.4/../../../../pic32mx/lib/libc.a(memcpy.o)
                                                  build/uno/production/startup.o
OC1RSSET                                          /Applications/microchip/mplabc32/v1.11a/bin/../lib/gcc/pic32mx/3.4.4/../../../../pic32mx/lib/./proc/32MX320F064H/processor.o
                                                  /Applications/microchip/mplabc32/v1.11a/bin/../lib/gcc/pic32mx/3.4.4/../../../../pic32mx/lib/libc.a(memcpy.o)
                                                  build/uno/production/startup.o
OC2CON                                            /Applications/microchip/mplabc32/v1.11a/bin/../lib/gcc/pic32mx/3.4.4/../../../../pic32mx/lib/./proc/32MX320F064H/processor.o
                                                  /Applications/microchip/mplabc32/v1.11a/bin/../lib/gcc/pic32mx/3.4.4/../../../../pic32mx/lib/libc.a(memcpy.o)
                                                  build/uno/production/startup.o
OC2CONCLR                                         /Applications/microchip/mplabc32/v1.11a/bin/../lib/gcc/pic32mx/3.4.4/../../../../pic32mx/lib/./proc/32MX320F064H/processor.o
                                                  /Applications/microchip/mplabc32/v1.11a/bin/../lib/gcc/pic32mx/3.4.4/../../../../pic32mx/lib/libc.a(memcpy.o)
                                                  build/uno/production/startup.o
OC2CONINV                                         /Applications/microchip/mplabc32/v1.11a/bin/../lib/gcc/pic32mx/3.4.4/../../../../pic32mx/lib/./proc/32MX320F064H/processor.o
                                                  /Applications/microchip/mplabc32/v1.11a/bin/../lib/gcc/pic32mx/3.4.4/../../../../pic32mx/lib/libc.a(memcpy.o)
                                                  build/uno/production/startup.o
OC2CONSET                                         /Applications/microchip/mplabc32/v1.11a/bin/../lib/gcc/pic32mx/3.4.4/../../../../pic32mx/lib/./proc/32MX320F064H/processor.o
                                                  /Applications/microchip/mplabc32/v1.11a/bin/../lib/gcc/pic32mx/3.4.4/../../../../pic32mx/lib/libc.a(memcpy.o)
                                                  build/uno/production/startup.o
OC2R                                              /Applications/microchip/mplabc32/v1.11a/bin/../lib/gcc/pic32mx/3.4.4/../../../../pic32mx/lib/./proc/32MX320F064H/processor.o
                                                  /Applications/microchip/mplabc32/v1.11a/bin/../lib/gcc/pic32mx/3.4.4/../../../../pic32mx/lib/libc.a(memcpy.o)
                                                  build/uno/production/startup.o
OC2RCLR                                           /Applications/microchip/mplabc32/v1.11a/bin/../lib/gcc/pic32mx/3.4.4/../../../../pic32mx/lib/./proc/32MX320F064H/processor.o
                                                  /Applications/microchip/mplabc32/v1.11a/bin/../lib/gcc/pic32mx/3.4.4/../../../../pic32mx/lib/libc.a(memcpy.o)
                                                  build/uno/production/startup.o
OC2RINV                                           /Applications/microchip/mplabc32/v1.11a/bin/../lib/gcc/pic32mx/3.4.4/../../../../pic32mx/lib/./proc/32MX320F064H/processor.o
                                                  /Applications/microchip/mplabc32/v1.11a/bin/../lib/gcc/pic32mx/3.4.4/../../../../pic32mx/lib/libc.a(memcpy.o)
                                                  build/uno/production/startup.o
OC2RS                                             /Applications/microchip/mplabc32/v1.11a/bin/../lib/gcc/pic32mx/3.4.4/../../../../pic32mx/lib/./proc/32MX320F064H/processor.o
                                                  /Applications/microchip/mplabc32/v1.11a/bin/../lib/gcc/pic32mx/3.4.4/../../../../pic32mx/lib/libc.a(memcpy.o)
                                                  build/uno/production/startup.o
OC2RSCLR                                          /Applications/microchip/mplabc32/v1.11a/bin/../lib/gcc/pic32mx/3.4.4/../../../../pic32mx/lib/./proc/32MX320F064H/processor.o
                                                  /Applications/microchip/mplabc32/v1.11a/bin/../lib/gcc/pic32mx/3.4.4/../../../../pic32mx/lib/libc.a(memcpy.o)
                                                  build/uno/production/startup.o
OC2RSET                                           /Applications/microchip/mplabc32/v1.11a/bin/../lib/gcc/pic32mx/3.4.4/../../../../pic32mx/lib/./proc/32MX320F064H/processor.o
                                                  /Applications/microchip/mplabc32/v1.11a/bin/../lib/gcc/pic32mx/3.4.4/../../../../pic32mx/lib/libc.a(memcpy.o)
                                                  build/uno/production/startup.o
OC2RSINV                                          /Applications/microchip/mplabc32/v1.11a/bin/../lib/gcc/pic32mx/3.4.4/../../../../pic32mx/lib/./proc/32MX320F064H/processor.o
                                                  /Applications/microchip/mplabc32/v1.11a/bin/../lib/gcc/pic32mx/3.4.4/../../../../pic32mx/lib/libc.a(memcpy.o)
                                                  build/uno/production/startup.o
OC2RSSET                                          /Applications/microchip/mplabc32/v1.11a/bin/../lib/gcc/pic32mx/3.4.4/../../../../pic32mx/lib/./proc/32MX320F064H/processor.o
                                                  /Applications/microchip/mplabc32/v1.11a/bin/../lib/gcc/pic32mx/3.4.4/../../../../pic32mx/lib/libc.a(memcpy.o)
                                                  build/uno/production/startup.o
OC3CON                                            /Applications/microchip/mplabc32/v1.11a/bin/../lib/gcc/pic32mx/3.4.4/../../../../pic32mx/lib/./proc/32MX320F064H/processor.o
                                                  /Applications/microchip/mplabc32/v1.11a/bin/../lib/gcc/pic32mx/3.4.4/../../../../pic32mx/lib/libc.a(memcpy.o)
                                                  build/uno/production/startup.o
OC3CONCLR                                         /Applications/microchip/mplabc32/v1.11a/bin/../lib/gcc/pic32mx/3.4.4/../../../../pic32mx/lib/./proc/32MX320F064H/processor.o
                                                  /Applications/microchip/mplabc32/v1.11a/bin/../lib/gcc/pic32mx/3.4.4/../../../../pic32mx/lib/libc.a(memcpy.o)
                                                  build/uno/production/startup.o
OC3CONINV                                         /Applications/microchip/mplabc32/v1.11a/bin/../lib/gcc/pic32mx/3.4.4/../../../../pic32mx/lib/./proc/32MX320F064H/processor.o
                                                  /Applications/microchip/mplabc32/v1.11a/bin/../lib/gcc/pic32mx/3.4.4/../../../../pic32mx/lib/libc.a(memcpy.o)
                                                  build/uno/production/startup.o
OC3CONSET                                         /Applications/microchip/mplabc32/v1.11a/bin/../lib/gcc/pic32mx/3.4.4/../../../../pic32mx/lib/./proc/32MX320F064H/processor.o
                                                  /Applications/microchip/mplabc32/v1.11a/bin/../lib/gcc/pic32mx/3.4.4/../../../../pic32mx/lib/libc.a(memcpy.o)
                                                  build/uno/production/startup.o
OC3R                                              /Applications/microchip/mplabc32/v1.11a/bin/../lib/gcc/pic32mx/3.4.4/../../../../pic32mx/lib/./proc/32MX320F064H/processor.o
                                                  /Applications/microchip/mplabc32/v1.11a/bin/../lib/gcc/pic32mx/3.4.4/../../../../pic32mx/lib/libc.a(memcpy.o)
                                                  build/uno/production/startup.o
OC3RCLR                                           /Applications/microchip/mplabc32/v1.11a/bin/../lib/gcc/pic32mx/3.4.4/../../../../pic32mx/lib/./proc/32MX320F064H/processor.o
                                                  /Applications/microchip/mplabc32/v1.11a/bin/../lib/gcc/pic32mx/3.4.4/../../../../pic32mx/lib/libc.a(memcpy.o)
                                                  build/uno/production/startup.o
OC3RINV                                           /Applications/microchip/mplabc32/v1.11a/bin/../lib/gcc/pic32mx/3.4.4/../../../../pic32mx/lib/./proc/32MX320F064H/processor.o
                                                  /Applications/microchip/mplabc32/v1.11a/bin/../lib/gcc/pic32mx/3.4.4/../../../../pic32mx/lib/libc.a(memcpy.o)
                                                  build/uno/production/startup.o
OC3RS                                             /Applications/microchip/mplabc32/v1.11a/bin/../lib/gcc/pic32mx/3.4.4/../../../../pic32mx/lib/./proc/32MX320F064H/processor.o
                                                  /Applications/microchip/mplabc32/v1.11a/bin/../lib/gcc/pic32mx/3.4.4/../../../../pic32mx/lib/libc.a(memcpy.o)
                                                  build/uno/production/startup.o
OC3RSCLR                                          /Applications/microchip/mplabc32/v1.11a/bin/../lib/gcc/pic32mx/3.4.4/../../../../pic32mx/lib/./proc/32MX320F064H/processor.o
                                                  /Applications/microchip/mplabc32/v1.11a/bin/../lib/gcc/pic32mx/3.4.4/../../../../pic32mx/lib/libc.a(memcpy.o)
                                                  build/uno/production/startup.o
OC3RSET                                           /Applications/microchip/mplabc32/v1.11a/bin/../lib/gcc/pic32mx/3.4.4/../../../../pic32mx/lib/./proc/32MX320F064H/processor.o
                                                  /Applications/microchip/mplabc32/v1.11a/bin/../lib/gcc/pic32mx/3.4.4/../../../../pic32mx/lib/libc.a(memcpy.o)
                                                  build/uno/production/startup.o
OC3RSINV                                          /Applications/microchip/mplabc32/v1.11a/bin/../lib/gcc/pic32mx/3.4.4/../../../../pic32mx/lib/./proc/32MX320F064H/processor.o
                                                  /Applications/microchip/mplabc32/v1.11a/bin/../lib/gcc/pic32mx/3.4.4/../../../../pic32mx/lib/libc.a(memcpy.o)
                                                  build/uno/production/startup.o
OC3RSSET                                          /Applications/microchip/mplabc32/v1.11a/bin/../lib/gcc/pic32mx/3.4.4/../../../../pic32mx/lib/./proc/32MX320F064H/processor.o
                                                  /Applications/microchip/mplabc32/v1.11a/bin/../lib/gcc/pic32mx/3.4.4/../../../../pic32mx/lib/libc.a(memcpy.o)
                                                  build/uno/production/startup.o
OC4CON                                            /Applications/microchip/mplabc32/v1.11a/bin/../lib/gcc/pic32mx/3.4.4/../../../../pic32mx/lib/./proc/32MX320F064H/processor.o
                                                  /Applications/microchip/mplabc32/v1.11a/bin/../lib/gcc/pic32mx/3.4.4/../../../../pic32mx/lib/libc.a(memcpy.o)
                                                  build/uno/production/startup.o
OC4CONCLR                                         /Applications/microchip/mplabc32/v1.11a/bin/../lib/gcc/pic32mx/3.4.4/../../../../pic32mx/lib/./proc/32MX320F064H/processor.o
                                                  /Applications/microchip/mplabc32/v1.11a/bin/../lib/gcc/pic32mx/3.4.4/../../../../pic32mx/lib/libc.a(memcpy.o)
                                                  build/uno/production/startup.o
OC4CONINV                                         /Applications/microchip/mplabc32/v1.11a/bin/../lib/gcc/pic32mx/3.4.4/../../../../pic32mx/lib/./proc/32MX320F064H/processor.o
                                                  /Applications/microchip/mplabc32/v1.11a/bin/../lib/gcc/pic32mx/3.4.4/../../../../pic32mx/lib/libc.a(memcpy.o)
                                                  build/uno/production/startup.o
OC4CONSET                                         /Applications/microchip/mplabc32/v1.11a/bin/../lib/gcc/pic32mx/3.4.4/../../../../pic32mx/lib/./proc/32MX320F064H/processor.o
                                                  /Applications/microchip/mplabc32/v1.11a/bin/../lib/gcc/pic32mx/3.4.4/../../../../pic32mx/lib/libc.a(memcpy.o)
                                                  build/uno/production/startup.o
OC4R                                              /Applications/microchip/mplabc32/v1.11a/bin/../lib/gcc/pic32mx/3.4.4/../../../../pic32mx/lib/./proc/32MX320F064H/processor.o
                                                  /Applications/microchip/mplabc32/v1.11a/bin/../lib/gcc/pic32mx/3.4.4/../../../../pic32mx/lib/libc.a(memcpy.o)
                                                  build/uno/production/startup.o
OC4RCLR                                           /Applications/microchip/mplabc32/v1.11a/bin/../lib/gcc/pic32mx/3.4.4/../../../../pic32mx/lib/./proc/32MX320F064H/processor.o
                                                  /Applications/microchip/mplabc32/v1.11a/bin/../lib/gcc/pic32mx/3.4.4/../../../../pic32mx/lib/libc.a(memcpy.o)
                                                  build/uno/production/startup.o
OC4RINV                                           /Applications/microchip/mplabc32/v1.11a/bin/../lib/gcc/pic32mx/3.4.4/../../../../pic32mx/lib/./proc/32MX320F064H/processor.o
                                                  /Applications/microchip/mplabc32/v1.11a/bin/../lib/gcc/pic32mx/3.4.4/../../../../pic32mx/lib/libc.a(memcpy.o)
                                                  build/uno/production/startup.o
OC4RS                                             /Applications/microchip/mplabc32/v1.11a/bin/../lib/gcc/pic32mx/3.4.4/../../../../pic32mx/lib/./proc/32MX320F064H/processor.o
                                                  /Applications/microchip/mplabc32/v1.11a/bin/../lib/gcc/pic32mx/3.4.4/../../../../pic32mx/lib/libc.a(memcpy.o)
                                                  build/uno/production/startup.o
OC4RSCLR                                          /Applications/microchip/mplabc32/v1.11a/bin/../lib/gcc/pic32mx/3.4.4/../../../../pic32mx/lib/./proc/32MX320F064H/processor.o
                                                  /Applications/microchip/mplabc32/v1.11a/bin/../lib/gcc/pic32mx/3.4.4/../../../../pic32mx/lib/libc.a(memcpy.o)
                                                  build/uno/production/startup.o
OC4RSET                                           /Applications/microchip/mplabc32/v1.11a/bin/../lib/gcc/pic32mx/3.4.4/../../../../pic32mx/lib/./proc/32MX320F064H/processor.o
                                                  /Applications/microchip/mplabc32/v1.11a/bin/../lib/gcc/pic32mx/3.4.4/../../../../pic32mx/lib/libc.a(memcpy.o)
                                                  build/uno/production/startup.o
OC4RSINV                                          /Applications/microchip/mplabc32/v1.11a/bin/../lib/gcc/pic32mx/3.4.4/../../../../pic32mx/lib/./proc/32MX320F064H/processor.o
                                                  /Applications/microchip/mplabc32/v1.11a/bin/../lib/gcc/pic32mx/3.4.4/../../../../pic32mx/lib/libc.a(memcpy.o)
                                                  build/uno/production/startup.o
OC4RSSET                                          /Applications/microchip/mplabc32/v1.11a/bin/../lib/gcc/pic32mx/3.4.4/../../../../pic32mx/lib/./proc/32MX320F064H/processor.o
                                                  /Applications/microchip/mplabc32/v1.11a/bin/../lib/gcc/pic32mx/3.4.4/../../../../pic32mx/lib/libc.a(memcpy.o)
                                                  build/uno/production/startup.o
OC5CON                                            /Applications/microchip/mplabc32/v1.11a/bin/../lib/gcc/pic32mx/3.4.4/../../../../pic32mx/lib/./proc/32MX320F064H/processor.o
                                                  /Applications/microchip/mplabc32/v1.11a/bin/../lib/gcc/pic32mx/3.4.4/../../../../pic32mx/lib/libc.a(memcpy.o)
                                                  build/uno/production/startup.o
OC5CONCLR                                         /Applications/microchip/mplabc32/v1.11a/bin/../lib/gcc/pic32mx/3.4.4/../../../../pic32mx/lib/./proc/32MX320F064H/processor.o
                                                  /Applications/microchip/mplabc32/v1.11a/bin/../lib/gcc/pic32mx/3.4.4/../../../../pic32mx/lib/libc.a(memcpy.o)
                                                  build/uno/production/startup.o
OC5CONINV                                         /Applications/microchip/mplabc32/v1.11a/bin/../lib/gcc/pic32mx/3.4.4/../../../../pic32mx/lib/./proc/32MX320F064H/processor.o
                                                  /Applications/microchip/mplabc32/v1.11a/bin/../lib/gcc/pic32mx/3.4.4/../../../../pic32mx/lib/libc.a(memcpy.o)
                                                  build/uno/production/startup.o
OC5CONSET                                         /Applications/microchip/mplabc32/v1.11a/bin/../lib/gcc/pic32mx/3.4.4/../../../../pic32mx/lib/./proc/32MX320F064H/processor.o
                                                  /Applications/microchip/mplabc32/v1.11a/bin/../lib/gcc/pic32mx/3.4.4/../../../../pic32mx/lib/libc.a(memcpy.o)
                                                  build/uno/production/startup.o
OC5R                                              /Applications/microchip/mplabc32/v1.11a/bin/../lib/gcc/pic32mx/3.4.4/../../../../pic32mx/lib/./proc/32MX320F064H/processor.o
                                                  /Applications/microchip/mplabc32/v1.11a/bin/../lib/gcc/pic32mx/3.4.4/../../../../pic32mx/lib/libc.a(memcpy.o)
                                                  build/uno/production/startup.o
OC5RCLR                                           /Applications/microchip/mplabc32/v1.11a/bin/../lib/gcc/pic32mx/3.4.4/../../../../pic32mx/lib/./proc/32MX320F064H/processor.o
                                                  /Applications/microchip/mplabc32/v1.11a/bin/../lib/gcc/pic32mx/3.4.4/../../../../pic32mx/lib/libc.a(memcpy.o)
                                                  build/uno/production/startup.o
OC5RINV                                           /Applications/microchip/mplabc32/v1.11a/bin/../lib/gcc/pic32mx/3.4.4/../../../../pic32mx/lib/./proc/32MX320F064H/processor.o
                                                  /Applications/microchip/mplabc32/v1.11a/bin/../lib/gcc/pic32mx/3.4.4/../../../../pic32mx/lib/libc.a(memcpy.o)
                                                  build/uno/production/startup.o
OC5RS                                             /Applications/microchip/mplabc32/v1.11a/bin/../lib/gcc/pic32mx/3.4.4/../../../../pic32mx/lib/./proc/32MX320F064H/processor.o
                                                  /Applications/microchip/mplabc32/v1.11a/bin/../lib/gcc/pic32mx/3.4.4/../../../../pic32mx/lib/libc.a(memcpy.o)
                                                  build/uno/production/startup.o
OC5RSCLR                                          /Applications/microchip/mplabc32/v1.11a/bin/../lib/gcc/pic32mx/3.4.4/../../../../pic32mx/lib/./proc/32MX320F064H/processor.o
                                                  /Applications/microchip/mplabc32/v1.11a/bin/../lib/gcc/pic32mx/3.4.4/../../../../pic32mx/lib/libc.a(memcpy.o)
                                                  build/uno/production/startup.o
OC5RSET                                           /Applications/microchip/mplabc32/v1.11a/bin/../lib/gcc/pic32mx/3.4.4/../../../../pic32mx/lib/./proc/32MX320F064H/processor.o
                                                  /Applications/microchip/mplabc32/v1.11a/bin/../lib/gcc/pic32mx/3.4.4/../../../../pic32mx/lib/libc.a(memcpy.o)
                                                  build/uno/production/startup.o
OC5RSINV                                          /Applications/microchip/mplabc32/v1.11a/bin/../lib/gcc/pic32mx/3.4.4/../../../../pic32mx/lib/./proc/32MX320F064H/processor.o
                                                  /Applications/microchip/mplabc32/v1.11a/bin/../lib/gcc/pic32mx/3.4.4/../../../../pic32mx/lib/libc.a(memcpy.o)
                                                  build/uno/production/startup.o
OC5RSSET                                          /Applications/microchip/mplabc32/v1.11a/bin/../lib/gcc/pic32mx/3.4.4/../../../../pic32mx/lib/./proc/32MX320F064H/processor.o
                                                  /Applications/microchip/mplabc32/v1.11a/bin/../lib/gcc/pic32mx/3.4.4/../../../../pic32mx/lib/libc.a(memcpy.o)
                                                  build/uno/production/startup.o
ODCA                                              /Applications/microchip/mplabc32/v1.11a/bin/../lib/gcc/pic32mx/3.4.4/../../../../pic32mx/lib/libc.a(memcpy.o)
ODCACLR                                           /Applications/microchip/mplabc32/v1.11a/bin/../lib/gcc/pic32mx/3.4.4/../../../../pic32mx/lib/libc.a(memcpy.o)
ODCAINV                                           /Applications/microchip/mplabc32/v1.11a/bin/../lib/gcc/pic32mx/3.4.4/../../../../pic32mx/lib/libc.a(memcpy.o)
ODCASET                                           /Applications/microchip/mplabc32/v1.11a/bin/../lib/gcc/pic32mx/3.4.4/../../../../pic32mx/lib/libc.a(memcpy.o)
ODCB                                              /Applications/microchip/mplabc32/v1.11a/bin/../lib/gcc/pic32mx/3.4.4/../../../../pic32mx/lib/./proc/32MX320F064H/processor.o
                                                  /Applications/microchip/mplabc32/v1.11a/bin/../lib/gcc/pic32mx/3.4.4/../../../../pic32mx/lib/libc.a(memcpy.o)
                                                  build/uno/production/startup.o
ODCBCLR                                           /Applications/microchip/mplabc32/v1.11a/bin/../lib/gcc/pic32mx/3.4.4/../../../../pic32mx/lib/./proc/32MX320F064H/processor.o
                                                  /Applications/microchip/mplabc32/v1.11a/bin/../lib/gcc/pic32mx/3.4.4/../../../../pic32mx/lib/libc.a(memcpy.o)
                                                  build/uno/production/startup.o
ODCBINV                                           /Applications/microchip/mplabc32/v1.11a/bin/../lib/gcc/pic32mx/3.4.4/../../../../pic32mx/lib/./proc/32MX320F064H/processor.o
                                                  /Applications/microchip/mplabc32/v1.11a/bin/../lib/gcc/pic32mx/3.4.4/../../../../pic32mx/lib/libc.a(memcpy.o)
                                                  build/uno/production/startup.o
ODCBSET                                           /Applications/microchip/mplabc32/v1.11a/bin/../lib/gcc/pic32mx/3.4.4/../../../../pic32mx/lib/./proc/32MX320F064H/processor.o
                                                  /Applications/microchip/mplabc32/v1.11a/bin/../lib/gcc/pic32mx/3.4.4/../../../../pic32mx/lib/libc.a(memcpy.o)
                                                  build/uno/production/startup.o
ODCC                                              /Applications/microchip/mplabc32/v1.11a/bin/../lib/gcc/pic32mx/3.4.4/../../../../pic32mx/lib/./proc/32MX320F064H/processor.o
                                                  /Applications/microchip/mplabc32/v1.11a/bin/../lib/gcc/pic32mx/3.4.4/../../../../pic32mx/lib/libc.a(memcpy.o)
                                                  build/uno/production/startup.o
ODCCCLR                                           /Applications/microchip/mplabc32/v1.11a/bin/../lib/gcc/pic32mx/3.4.4/../../../../pic32mx/lib/./proc/32MX320F064H/processor.o
                                                  /Applications/microchip/mplabc32/v1.11a/bin/../lib/gcc/pic32mx/3.4.4/../../../../pic32mx/lib/libc.a(memcpy.o)
                                                  build/uno/production/startup.o
ODCCINV                                           /Applications/microchip/mplabc32/v1.11a/bin/../lib/gcc/pic32mx/3.4.4/../../../../pic32mx/lib/./proc/32MX320F064H/processor.o
                                                  /Applications/microchip/mplabc32/v1.11a/bin/../lib/gcc/pic32mx/3.4.4/../../../../pic32mx/lib/libc.a(memcpy.o)
                                                  build/uno/production/startup.o
ODCCSET                                           /Applications/microchip/mplabc32/v1.11a/bin/../lib/gcc/pic32mx/3.4.4/../../../../pic32mx/lib/./proc/32MX320F064H/processor.o
                                                  /Applications/microchip/mplabc32/v1.11a/bin/../lib/gcc/pic32mx/3.4.4/../../../../pic32mx/lib/libc.a(memcpy.o)
                                                  build/uno/production/startup.o
ODCD                                              /Applications/microchip/mplabc32/v1.11a/bin/../lib/gcc/pic32mx/3.4.4/../../../../pic32mx/lib/./proc/32MX320F064H/processor.o
                                                  /Applications/microchip/mplabc32/v1.11a/bin/../lib/gcc/pic32mx/3.4.4/../../../../pic32mx/lib/libc.a(memcpy.o)
                                                  build/uno/production/startup.o
ODCDCLR                                           /Applications/microchip/mplabc32/v1.11a/bin/../lib/gcc/pic32mx/3.4.4/../../../../pic32mx/lib/./proc/32MX320F064H/processor.o
                                                  /Applications/microchip/mplabc32/v1.11a/bin/../lib/gcc/pic32mx/3.4.4/../../../../pic32mx/lib/libc.a(memcpy.o)
                                                  build/uno/production/startup.o
ODCDINV                                           /Applications/microchip/mplabc32/v1.11a/bin/../lib/gcc/pic32mx/3.4.4/../../../../pic32mx/lib/./proc/32MX320F064H/processor.o
                                                  /Applications/microchip/mplabc32/v1.11a/bin/../lib/gcc/pic32mx/3.4.4/../../../../pic32mx/lib/libc.a(memcpy.o)
                                                  build/uno/production/startup.o
ODCDSET                                           /Applications/microchip/mplabc32/v1.11a/bin/../lib/gcc/pic32mx/3.4.4/../../../../pic32mx/lib/./proc/32MX320F064H/processor.o
                                                  /Applications/microchip/mplabc32/v1.11a/bin/../lib/gcc/pic32mx/3.4.4/../../../../pic32mx/lib/libc.a(memcpy.o)
                                                  build/uno/production/startup.o
ODCE                                              /Applications/microchip/mplabc32/v1.11a/bin/../lib/gcc/pic32mx/3.4.4/../../../../pic32mx/lib/./proc/32MX320F064H/processor.o
                                                  /Applications/microchip/mplabc32/v1.11a/bin/../lib/gcc/pic32mx/3.4.4/../../../../pic32mx/lib/libc.a(memcpy.o)
                                                  build/uno/production/startup.o
ODCECLR                                           /Applications/microchip/mplabc32/v1.11a/bin/../lib/gcc/pic32mx/3.4.4/../../../../pic32mx/lib/./proc/32MX320F064H/processor.o
                                                  /Applications/microchip/mplabc32/v1.11a/bin/../lib/gcc/pic32mx/3.4.4/../../../../pic32mx/lib/libc.a(memcpy.o)
                                                  build/uno/production/startup.o
ODCEINV                                           /Applications/microchip/mplabc32/v1.11a/bin/../lib/gcc/pic32mx/3.4.4/../../../../pic32mx/lib/./proc/32MX320F064H/processor.o
                                                  /Applications/microchip/mplabc32/v1.11a/bin/../lib/gcc/pic32mx/3.4.4/../../../../pic32mx/lib/libc.a(memcpy.o)
                                                  build/uno/production/startup.o
ODCESET                                           /Applications/microchip/mplabc32/v1.11a/bin/../lib/gcc/pic32mx/3.4.4/../../../../pic32mx/lib/./proc/32MX320F064H/processor.o
                                                  /Applications/microchip/mplabc32/v1.11a/bin/../lib/gcc/pic32mx/3.4.4/../../../../pic32mx/lib/libc.a(memcpy.o)
                                                  build/uno/production/startup.o
ODCF                                              /Applications/microchip/mplabc32/v1.11a/bin/../lib/gcc/pic32mx/3.4.4/../../../../pic32mx/lib/./proc/32MX320F064H/processor.o
                                                  /Applications/microchip/mplabc32/v1.11a/bin/../lib/gcc/pic32mx/3.4.4/../../../../pic32mx/lib/libc.a(memcpy.o)
                                                  build/uno/production/startup.o
ODCFCLR                                           /Applications/microchip/mplabc32/v1.11a/bin/../lib/gcc/pic32mx/3.4.4/../../../../pic32mx/lib/./proc/32MX320F064H/processor.o
                                                  /Applications/microchip/mplabc32/v1.11a/bin/../lib/gcc/pic32mx/3.4.4/../../../../pic32mx/lib/libc.a(memcpy.o)
                                                  build/uno/production/startup.o
ODCFINV                                           /Applications/microchip/mplabc32/v1.11a/bin/../lib/gcc/pic32mx/3.4.4/../../../../pic32mx/lib/./proc/32MX320F064H/processor.o
                                                  /Applications/microchip/mplabc32/v1.11a/bin/../lib/gcc/pic32mx/3.4.4/../../../../pic32mx/lib/libc.a(memcpy.o)
                                                  build/uno/production/startup.o
ODCFSET                                           /Applications/microchip/mplabc32/v1.11a/bin/../lib/gcc/pic32mx/3.4.4/../../../../pic32mx/lib/./proc/32MX320F064H/processor.o
                                                  /Applications/microchip/mplabc32/v1.11a/bin/../lib/gcc/pic32mx/3.4.4/../../../../pic32mx/lib/libc.a(memcpy.o)
                                                  build/uno/production/startup.o
ODCG                                              /Applications/microchip/mplabc32/v1.11a/bin/../lib/gcc/pic32mx/3.4.4/../../../../pic32mx/lib/./proc/32MX320F064H/processor.o
                                                  /Applications/microchip/mplabc32/v1.11a/bin/../lib/gcc/pic32mx/3.4.4/../../../../pic32mx/lib/libc.a(memcpy.o)
                                                  build/uno/production/startup.o
ODCGCLR                                           /Applications/microchip/mplabc32/v1.11a/bin/../lib/gcc/pic32mx/3.4.4/../../../../pic32mx/lib/./proc/32MX320F064H/processor.o
                                                  /Applications/microchip/mplabc32/v1.11a/bin/../lib/gcc/pic32mx/3.4.4/../../../../pic32mx/lib/libc.a(memcpy.o)
                                                  build/uno/production/startup.o
ODCGINV                                           /Applications/microchip/mplabc32/v1.11a/bin/../lib/gcc/pic32mx/3.4.4/../../../../pic32mx/lib/./proc/32MX320F064H/processor.o
                                                  /Applications/microchip/mplabc32/v1.11a/bin/../lib/gcc/pic32mx/3.4.4/../../../../pic32mx/lib/libc.a(memcpy.o)
                                                  build/uno/production/startup.o
ODCGSET                                           /Applications/microchip/mplabc32/v1.11a/bin/../lib/gcc/pic32mx/3.4.4/../../../../pic32mx/lib/./proc/32MX320F064H/processor.o
                                                  /Applications/microchip/mplabc32/v1.11a/bin/../lib/gcc/pic32mx/3.4.4/../../../../pic32mx/lib/libc.a(memcpy.o)
                                                  build/uno/production/startup.o
OSCCON                                            /Applications/microchip/mplabc32/v1.11a/bin/../lib/gcc/pic32mx/3.4.4/../../../../pic32mx/lib/./proc/32MX320F064H/processor.o
                                                  /Applications/microchip/mplabc32/v1.11a/bin/../lib/gcc/pic32mx/3.4.4/../../../../pic32mx/lib/libc.a(memcpy.o)
                                                  build/uno/production/pic32bootloader.o
                                                  build/uno/production/startup.o
OSCCONCLR                                         /Applications/microchip/mplabc32/v1.11a/bin/../lib/gcc/pic32mx/3.4.4/../../../../pic32mx/lib/./proc/32MX320F064H/processor.o
                                                  /Applications/microchip/mplabc32/v1.11a/bin/../lib/gcc/pic32mx/3.4.4/../../../../pic32mx/lib/libc.a(memcpy.o)
                                                  build/uno/production/startup.o
OSCCONINV                                         /Applications/microchip/mplabc32/v1.11a/bin/../lib/gcc/pic32mx/3.4.4/../../../../pic32mx/lib/./proc/32MX320F064H/processor.o
                                                  /Applications/microchip/mplabc32/v1.11a/bin/../lib/gcc/pic32mx/3.4.4/../../../../pic32mx/lib/libc.a(memcpy.o)
                                                  build/uno/production/startup.o
OSCCONSET                                         /Applications/microchip/mplabc32/v1.11a/bin/../lib/gcc/pic32mx/3.4.4/../../../../pic32mx/lib/./proc/32MX320F064H/processor.o
                                                  /Applications/microchip/mplabc32/v1.11a/bin/../lib/gcc/pic32mx/3.4.4/../../../../pic32mx/lib/libc.a(memcpy.o)
                                                  build/uno/production/startup.o
OSCTUN                                            /Applications/microchip/mplabc32/v1.11a/bin/../lib/gcc/pic32mx/3.4.4/../../../../pic32mx/lib/./proc/32MX320F064H/processor.o
                                                  /Applications/microchip/mplabc32/v1.11a/bin/../lib/gcc/pic32mx/3.4.4/../../../../pic32mx/lib/libc.a(memcpy.o)
                                                  build/uno/production/startup.o
OSCTUNCLR                                         /Applications/microchip/mplabc32/v1.11a/bin/../lib/gcc/pic32mx/3.4.4/../../../../pic32mx/lib/./proc/32MX320F064H/processor.o
                                                  /Applications/microchip/mplabc32/v1.11a/bin/../lib/gcc/pic32mx/3.4.4/../../../../pic32mx/lib/libc.a(memcpy.o)
                                                  build/uno/production/startup.o
OSCTUNINV                                         /Applications/microchip/mplabc32/v1.11a/bin/../lib/gcc/pic32mx/3.4.4/../../../../pic32mx/lib/./proc/32MX320F064H/processor.o
                                                  /Applications/microchip/mplabc32/v1.11a/bin/../lib/gcc/pic32mx/3.4.4/../../../../pic32mx/lib/libc.a(memcpy.o)
                                                  build/uno/production/startup.o
OSCTUNSET                                         /Applications/microchip/mplabc32/v1.11a/bin/../lib/gcc/pic32mx/3.4.4/../../../../pic32mx/lib/./proc/32MX320F064H/processor.o
                                                  /Applications/microchip/mplabc32/v1.11a/bin/../lib/gcc/pic32mx/3.4.4/../../../../pic32mx/lib/libc.a(memcpy.o)
                                                  build/uno/production/startup.o
OpenCoreTimer                                     /Applications/microchip/mplabc32/v1.11a/bin/../lib/gcc/pic32mx/3.4.4/../../../../pic32mx/lib/libmchp_peripheral.a(open_core_timer_lib.o)
                                                  build/uno/production/pic32bootloader.o
PMADDR                                            /Applications/microchip/mplabc32/v1.11a/bin/../lib/gcc/pic32mx/3.4.4/../../../../pic32mx/lib/./proc/32MX320F064H/processor.o
                                                  /Applications/microchip/mplabc32/v1.11a/bin/../lib/gcc/pic32mx/3.4.4/../../../../pic32mx/lib/libc.a(memcpy.o)
                                                  build/uno/production/startup.o
PMADDRCLR                                         /Applications/microchip/mplabc32/v1.11a/bin/../lib/gcc/pic32mx/3.4.4/../../../../pic32mx/lib/./proc/32MX320F064H/processor.o
                                                  /Applications/microchip/mplabc32/v1.11a/bin/../lib/gcc/pic32mx/3.4.4/../../../../pic32mx/lib/libc.a(memcpy.o)
                                                  build/uno/production/startup.o
PMADDRINV                                         /Applications/microchip/mplabc32/v1.11a/bin/../lib/gcc/pic32mx/3.4.4/../../../../pic32mx/lib/./proc/32MX320F064H/processor.o
                                                  /Applications/microchip/mplabc32/v1.11a/bin/../lib/gcc/pic32mx/3.4.4/../../../../pic32mx/lib/libc.a(memcpy.o)
                                                  build/uno/production/startup.o
PMADDRSET                                         /Applications/microchip/mplabc32/v1.11a/bin/../lib/gcc/pic32mx/3.4.4/../../../../pic32mx/lib/./proc/32MX320F064H/processor.o
                                                  /Applications/microchip/mplabc32/v1.11a/bin/../lib/gcc/pic32mx/3.4.4/../../../../pic32mx/lib/libc.a(memcpy.o)
                                                  build/uno/production/startup.o
PMAEN                                             /Applications/microchip/mplabc32/v1.11a/bin/../lib/gcc/pic32mx/3.4.4/../../../../pic32mx/lib/./proc/32MX320F064H/processor.o
                                                  /Applications/microchip/mplabc32/v1.11a/bin/../lib/gcc/pic32mx/3.4.4/../../../../pic32mx/lib/libc.a(memcpy.o)
                                                  build/uno/production/startup.o
PMAENCLR                                          /Applications/microchip/mplabc32/v1.11a/bin/../lib/gcc/pic32mx/3.4.4/../../../../pic32mx/lib/./proc/32MX320F064H/processor.o
                                                  /Applications/microchip/mplabc32/v1.11a/bin/../lib/gcc/pic32mx/3.4.4/../../../../pic32mx/lib/libc.a(memcpy.o)
                                                  build/uno/production/startup.o
PMAENINV                                          /Applications/microchip/mplabc32/v1.11a/bin/../lib/gcc/pic32mx/3.4.4/../../../../pic32mx/lib/./proc/32MX320F064H/processor.o
                                                  /Applications/microchip/mplabc32/v1.11a/bin/../lib/gcc/pic32mx/3.4.4/../../../../pic32mx/lib/libc.a(memcpy.o)
                                                  build/uno/production/startup.o
PMAENSET                                          /Applications/microchip/mplabc32/v1.11a/bin/../lib/gcc/pic32mx/3.4.4/../../../../pic32mx/lib/./proc/32MX320F064H/processor.o
                                                  /Applications/microchip/mplabc32/v1.11a/bin/../lib/gcc/pic32mx/3.4.4/../../../../pic32mx/lib/libc.a(memcpy.o)
                                                  build/uno/production/startup.o
PMCON                                             /Applications/microchip/mplabc32/v1.11a/bin/../lib/gcc/pic32mx/3.4.4/../../../../pic32mx/lib/./proc/32MX320F064H/processor.o
                                                  /Applications/microchip/mplabc32/v1.11a/bin/../lib/gcc/pic32mx/3.4.4/../../../../pic32mx/lib/libc.a(memcpy.o)
                                                  build/uno/production/startup.o
PMCONCLR                                          /Applications/microchip/mplabc32/v1.11a/bin/../lib/gcc/pic32mx/3.4.4/../../../../pic32mx/lib/./proc/32MX320F064H/processor.o
                                                  /Applications/microchip/mplabc32/v1.11a/bin/../lib/gcc/pic32mx/3.4.4/../../../../pic32mx/lib/libc.a(memcpy.o)
                                                  build/uno/production/startup.o
PMCONINV                                          /Applications/microchip/mplabc32/v1.11a/bin/../lib/gcc/pic32mx/3.4.4/../../../../pic32mx/lib/./proc/32MX320F064H/processor.o
                                                  /Applications/microchip/mplabc32/v1.11a/bin/../lib/gcc/pic32mx/3.4.4/../../../../pic32mx/lib/libc.a(memcpy.o)
                                                  build/uno/production/startup.o
PMCONSET                                          /Applications/microchip/mplabc32/v1.11a/bin/../lib/gcc/pic32mx/3.4.4/../../../../pic32mx/lib/./proc/32MX320F064H/processor.o
                                                  /Applications/microchip/mplabc32/v1.11a/bin/../lib/gcc/pic32mx/3.4.4/../../../../pic32mx/lib/libc.a(memcpy.o)
                                                  build/uno/production/startup.o
PMDIN                                             /Applications/microchip/mplabc32/v1.11a/bin/../lib/gcc/pic32mx/3.4.4/../../../../pic32mx/lib/./proc/32MX320F064H/processor.o
                                                  /Applications/microchip/mplabc32/v1.11a/bin/../lib/gcc/pic32mx/3.4.4/../../../../pic32mx/lib/libc.a(memcpy.o)
                                                  build/uno/production/startup.o
PMDINCLR                                          /Applications/microchip/mplabc32/v1.11a/bin/../lib/gcc/pic32mx/3.4.4/../../../../pic32mx/lib/./proc/32MX320F064H/processor.o
                                                  /Applications/microchip/mplabc32/v1.11a/bin/../lib/gcc/pic32mx/3.4.4/../../../../pic32mx/lib/libc.a(memcpy.o)
                                                  build/uno/production/startup.o
PMDININV                                          /Applications/microchip/mplabc32/v1.11a/bin/../lib/gcc/pic32mx/3.4.4/../../../../pic32mx/lib/./proc/32MX320F064H/processor.o
                                                  /Applications/microchip/mplabc32/v1.11a/bin/../lib/gcc/pic32mx/3.4.4/../../../../pic32mx/lib/libc.a(memcpy.o)
                                                  build/uno/production/startup.o
PMDINSET                                          /Applications/microchip/mplabc32/v1.11a/bin/../lib/gcc/pic32mx/3.4.4/../../../../pic32mx/lib/./proc/32MX320F064H/processor.o
                                                  /Applications/microchip/mplabc32/v1.11a/bin/../lib/gcc/pic32mx/3.4.4/../../../../pic32mx/lib/libc.a(memcpy.o)
                                                  build/uno/production/startup.o
PMDOUT                                            /Applications/microchip/mplabc32/v1.11a/bin/../lib/gcc/pic32mx/3.4.4/../../../../pic32mx/lib/./proc/32MX320F064H/processor.o
                                                  /Applications/microchip/mplabc32/v1.11a/bin/../lib/gcc/pic32mx/3.4.4/../../../../pic32mx/lib/libc.a(memcpy.o)
                                                  build/uno/production/startup.o
PMDOUTCLR                                         /Applications/microchip/mplabc32/v1.11a/bin/../lib/gcc/pic32mx/3.4.4/../../../../pic32mx/lib/./proc/32MX320F064H/processor.o
                                                  /Applications/microchip/mplabc32/v1.11a/bin/../lib/gcc/pic32mx/3.4.4/../../../../pic32mx/lib/libc.a(memcpy.o)
                                                  build/uno/production/startup.o
PMDOUTINV                                         /Applications/microchip/mplabc32/v1.11a/bin/../lib/gcc/pic32mx/3.4.4/../../../../pic32mx/lib/./proc/32MX320F064H/processor.o
                                                  /Applications/microchip/mplabc32/v1.11a/bin/../lib/gcc/pic32mx/3.4.4/../../../../pic32mx/lib/libc.a(memcpy.o)
                                                  build/uno/production/startup.o
PMDOUTSET                                         /Applications/microchip/mplabc32/v1.11a/bin/../lib/gcc/pic32mx/3.4.4/../../../../pic32mx/lib/./proc/32MX320F064H/processor.o
                                                  /Applications/microchip/mplabc32/v1.11a/bin/../lib/gcc/pic32mx/3.4.4/../../../../pic32mx/lib/libc.a(memcpy.o)
                                                  build/uno/production/startup.o
PMMODE                                            /Applications/microchip/mplabc32/v1.11a/bin/../lib/gcc/pic32mx/3.4.4/../../../../pic32mx/lib/./proc/32MX320F064H/processor.o
                                                  /Applications/microchip/mplabc32/v1.11a/bin/../lib/gcc/pic32mx/3.4.4/../../../../pic32mx/lib/libc.a(memcpy.o)
                                                  build/uno/production/startup.o
PMMODECLR                                         /Applications/microchip/mplabc32/v1.11a/bin/../lib/gcc/pic32mx/3.4.4/../../../../pic32mx/lib/./proc/32MX320F064H/processor.o
                                                  /Applications/microchip/mplabc32/v1.11a/bin/../lib/gcc/pic32mx/3.4.4/../../../../pic32mx/lib/libc.a(memcpy.o)
                                                  build/uno/production/startup.o
PMMODEINV                                         /Applications/microchip/mplabc32/v1.11a/bin/../lib/gcc/pic32mx/3.4.4/../../../../pic32mx/lib/./proc/32MX320F064H/processor.o
                                                  /Applications/microchip/mplabc32/v1.11a/bin/../lib/gcc/pic32mx/3.4.4/../../../../pic32mx/lib/libc.a(memcpy.o)
                                                  build/uno/production/startup.o
PMMODESET                                         /Applications/microchip/mplabc32/v1.11a/bin/../lib/gcc/pic32mx/3.4.4/../../../../pic32mx/lib/./proc/32MX320F064H/processor.o
                                                  /Applications/microchip/mplabc32/v1.11a/bin/../lib/gcc/pic32mx/3.4.4/../../../../pic32mx/lib/libc.a(memcpy.o)
                                                  build/uno/production/startup.o
PMSTAT                                            /Applications/microchip/mplabc32/v1.11a/bin/../lib/gcc/pic32mx/3.4.4/../../../../pic32mx/lib/./proc/32MX320F064H/processor.o
                                                  /Applications/microchip/mplabc32/v1.11a/bin/../lib/gcc/pic32mx/3.4.4/../../../../pic32mx/lib/libc.a(memcpy.o)
                                                  build/uno/production/startup.o
PMSTATCLR                                         /Applications/microchip/mplabc32/v1.11a/bin/../lib/gcc/pic32mx/3.4.4/../../../../pic32mx/lib/./proc/32MX320F064H/processor.o
                                                  /Applications/microchip/mplabc32/v1.11a/bin/../lib/gcc/pic32mx/3.4.4/../../../../pic32mx/lib/libc.a(memcpy.o)
                                                  build/uno/production/startup.o
PMSTATINV                                         /Applications/microchip/mplabc32/v1.11a/bin/../lib/gcc/pic32mx/3.4.4/../../../../pic32mx/lib/./proc/32MX320F064H/processor.o
                                                  /Applications/microchip/mplabc32/v1.11a/bin/../lib/gcc/pic32mx/3.4.4/../../../../pic32mx/lib/libc.a(memcpy.o)
                                                  build/uno/production/startup.o
PMSTATSET                                         /Applications/microchip/mplabc32/v1.11a/bin/../lib/gcc/pic32mx/3.4.4/../../../../pic32mx/lib/./proc/32MX320F064H/processor.o
                                                  /Applications/microchip/mplabc32/v1.11a/bin/../lib/gcc/pic32mx/3.4.4/../../../../pic32mx/lib/libc.a(memcpy.o)
                                                  build/uno/production/startup.o
PORTA                                             /Applications/microchip/mplabc32/v1.11a/bin/../lib/gcc/pic32mx/3.4.4/../../../../pic32mx/lib/libc.a(memcpy.o)
PORTACLR                                          /Applications/microchip/mplabc32/v1.11a/bin/../lib/gcc/pic32mx/3.4.4/../../../../pic32mx/lib/libc.a(memcpy.o)
PORTAINV                                          /Applications/microchip/mplabc32/v1.11a/bin/../lib/gcc/pic32mx/3.4.4/../../../../pic32mx/lib/libc.a(memcpy.o)
PORTASET                                          /Applications/microchip/mplabc32/v1.11a/bin/../lib/gcc/pic32mx/3.4.4/../../../../pic32mx/lib/libc.a(memcpy.o)
PORTB                                             /Applications/microchip/mplabc32/v1.11a/bin/../lib/gcc/pic32mx/3.4.4/../../../../pic32mx/lib/./proc/32MX320F064H/processor.o
                                                  /Applications/microchip/mplabc32/v1.11a/bin/../lib/gcc/pic32mx/3.4.4/../../../../pic32mx/lib/libc.a(memcpy.o)
                                                  build/uno/production/pic32bootloader.o
                                                  build/uno/production/startup.o
PORTBCLR                                          /Applications/microchip/mplabc32/v1.11a/bin/../lib/gcc/pic32mx/3.4.4/../../../../pic32mx/lib/./proc/32MX320F064H/processor.o
                                                  /Applications/microchip/mplabc32/v1.11a/bin/../lib/gcc/pic32mx/3.4.4/../../../../pic32mx/lib/libc.a(memcpy.o)
                                                  build/uno/production/startup.o
PORTBINV                                          /Applications/microchip/mplabc32/v1.11a/bin/../lib/gcc/pic32mx/3.4.4/../../../../pic32mx/lib/./proc/32MX320F064H/processor.o
                                                  /Applications/microchip/mplabc32/v1.11a/bin/../lib/gcc/pic32mx/3.4.4/../../../../pic32mx/lib/libc.a(memcpy.o)
                                                  build/uno/production/startup.o
PORTBSET                                          /Applications/microchip/mplabc32/v1.11a/bin/../lib/gcc/pic32mx/3.4.4/../../../../pic32mx/lib/./proc/32MX320F064H/processor.o
                                                  /Applications/microchip/mplabc32/v1.11a/bin/../lib/gcc/pic32mx/3.4.4/../../../../pic32mx/lib/libc.a(memcpy.o)
                                                  build/uno/production/startup.o
PORTC                                             /Applications/microchip/mplabc32/v1.11a/bin/../lib/gcc/pic32mx/3.4.4/../../../../pic32mx/lib/./proc/32MX320F064H/processor.o
                                                  /Applications/microchip/mplabc32/v1.11a/bin/../lib/gcc/pic32mx/3.4.4/../../../../pic32mx/lib/libc.a(memcpy.o)
                                                  build/uno/production/pic32bootloader.o
                                                  build/uno/production/startup.o
PORTCCLR                                          /Applications/microchip/mplabc32/v1.11a/bin/../lib/gcc/pic32mx/3.4.4/../../../../pic32mx/lib/./proc/32MX320F064H/processor.o
                                                  /Applications/microchip/mplabc32/v1.11a/bin/../lib/gcc/pic32mx/3.4.4/../../../../pic32mx/lib/libc.a(memcpy.o)
                                                  build/uno/production/startup.o
PORTCINV                                          /Applications/microchip/mplabc32/v1.11a/bin/../lib/gcc/pic32mx/3.4.4/../../../../pic32mx/lib/./proc/32MX320F064H/processor.o
                                                  /Applications/microchip/mplabc32/v1.11a/bin/../lib/gcc/pic32mx/3.4.4/../../../../pic32mx/lib/libc.a(memcpy.o)
                                                  build/uno/production/startup.o
PORTCSET                                          /Applications/microchip/mplabc32/v1.11a/bin/../lib/gcc/pic32mx/3.4.4/../../../../pic32mx/lib/./proc/32MX320F064H/processor.o
                                                  /Applications/microchip/mplabc32/v1.11a/bin/../lib/gcc/pic32mx/3.4.4/../../../../pic32mx/lib/libc.a(memcpy.o)
                                                  build/uno/production/startup.o
PORTD                                             /Applications/microchip/mplabc32/v1.11a/bin/../lib/gcc/pic32mx/3.4.4/../../../../pic32mx/lib/./proc/32MX320F064H/processor.o
                                                  /Applications/microchip/mplabc32/v1.11a/bin/../lib/gcc/pic32mx/3.4.4/../../../../pic32mx/lib/libc.a(memcpy.o)
                                                  build/uno/production/pic32bootloader.o
                                                  build/uno/production/startup.o
PORTDCLR                                          /Applications/microchip/mplabc32/v1.11a/bin/../lib/gcc/pic32mx/3.4.4/../../../../pic32mx/lib/./proc/32MX320F064H/processor.o
                                                  /Applications/microchip/mplabc32/v1.11a/bin/../lib/gcc/pic32mx/3.4.4/../../../../pic32mx/lib/libc.a(memcpy.o)
                                                  build/uno/production/startup.o
PORTDINV                                          /Applications/microchip/mplabc32/v1.11a/bin/../lib/gcc/pic32mx/3.4.4/../../../../pic32mx/lib/./proc/32MX320F064H/processor.o
                                                  /Applications/microchip/mplabc32/v1.11a/bin/../lib/gcc/pic32mx/3.4.4/../../../../pic32mx/lib/libc.a(memcpy.o)
                                                  build/uno/production/startup.o
PORTDSET                                          /Applications/microchip/mplabc32/v1.11a/bin/../lib/gcc/pic32mx/3.4.4/../../../../pic32mx/lib/./proc/32MX320F064H/processor.o
                                                  /Applications/microchip/mplabc32/v1.11a/bin/../lib/gcc/pic32mx/3.4.4/../../../../pic32mx/lib/libc.a(memcpy.o)
                                                  build/uno/production/startup.o
PORTE                                             /Applications/microchip/mplabc32/v1.11a/bin/../lib/gcc/pic32mx/3.4.4/../../../../pic32mx/lib/./proc/32MX320F064H/processor.o
                                                  /Applications/microchip/mplabc32/v1.11a/bin/../lib/gcc/pic32mx/3.4.4/../../../../pic32mx/lib/libc.a(memcpy.o)
                                                  build/uno/production/pic32bootloader.o
                                                  build/uno/production/startup.o
PORTECLR                                          /Applications/microchip/mplabc32/v1.11a/bin/../lib/gcc/pic32mx/3.4.4/../../../../pic32mx/lib/./proc/32MX320F064H/processor.o
                                                  /Applications/microchip/mplabc32/v1.11a/bin/../lib/gcc/pic32mx/3.4.4/../../../../pic32mx/lib/libc.a(memcpy.o)
                                                  build/uno/production/startup.o
PORTEINV                                          /Applications/microchip/mplabc32/v1.11a/bin/../lib/gcc/pic32mx/3.4.4/../../../../pic32mx/lib/./proc/32MX320F064H/processor.o
                                                  /Applications/microchip/mplabc32/v1.11a/bin/../lib/gcc/pic32mx/3.4.4/../../../../pic32mx/lib/libc.a(memcpy.o)
                                                  build/uno/production/startup.o
PORTESET                                          /Applications/microchip/mplabc32/v1.11a/bin/../lib/gcc/pic32mx/3.4.4/../../../../pic32mx/lib/./proc/32MX320F064H/processor.o
                                                  /Applications/microchip/mplabc32/v1.11a/bin/../lib/gcc/pic32mx/3.4.4/../../../../pic32mx/lib/libc.a(memcpy.o)
                                                  build/uno/production/startup.o
PORTF                                             /Applications/microchip/mplabc32/v1.11a/bin/../lib/gcc/pic32mx/3.4.4/../../../../pic32mx/lib/./proc/32MX320F064H/processor.o
                                                  /Applications/microchip/mplabc32/v1.11a/bin/../lib/gcc/pic32mx/3.4.4/../../../../pic32mx/lib/libc.a(memcpy.o)
                                                  build/uno/production/pic32bootloader.o
                                                  build/uno/production/startup.o
PORTFCLR                                          /Applications/microchip/mplabc32/v1.11a/bin/../lib/gcc/pic32mx/3.4.4/../../../../pic32mx/lib/./proc/32MX320F064H/processor.o
                                                  /Applications/microchip/mplabc32/v1.11a/bin/../lib/gcc/pic32mx/3.4.4/../../../../pic32mx/lib/libc.a(memcpy.o)
                                                  build/uno/production/startup.o
PORTFINV                                          /Applications/microchip/mplabc32/v1.11a/bin/../lib/gcc/pic32mx/3.4.4/../../../../pic32mx/lib/./proc/32MX320F064H/processor.o
                                                  /Applications/microchip/mplabc32/v1.11a/bin/../lib/gcc/pic32mx/3.4.4/../../../../pic32mx/lib/libc.a(memcpy.o)
                                                  build/uno/production/startup.o
PORTFSET                                          /Applications/microchip/mplabc32/v1.11a/bin/../lib/gcc/pic32mx/3.4.4/../../../../pic32mx/lib/./proc/32MX320F064H/processor.o
                                                  /Applications/microchip/mplabc32/v1.11a/bin/../lib/gcc/pic32mx/3.4.4/../../../../pic32mx/lib/libc.a(memcpy.o)
                                                  build/uno/production/startup.o
PORTG                                             /Applications/microchip/mplabc32/v1.11a/bin/../lib/gcc/pic32mx/3.4.4/../../../../pic32mx/lib/./proc/32MX320F064H/processor.o
                                                  /Applications/microchip/mplabc32/v1.11a/bin/../lib/gcc/pic32mx/3.4.4/../../../../pic32mx/lib/libc.a(memcpy.o)
                                                  build/uno/production/pic32bootloader.o
                                                  build/uno/production/startup.o
PORTGCLR                                          /Applications/microchip/mplabc32/v1.11a/bin/../lib/gcc/pic32mx/3.4.4/../../../../pic32mx/lib/./proc/32MX320F064H/processor.o
                                                  /Applications/microchip/mplabc32/v1.11a/bin/../lib/gcc/pic32mx/3.4.4/../../../../pic32mx/lib/libc.a(memcpy.o)
                                                  build/uno/production/startup.o
PORTGINV                                          /Applications/microchip/mplabc32/v1.11a/bin/../lib/gcc/pic32mx/3.4.4/../../../../pic32mx/lib/./proc/32MX320F064H/processor.o
                                                  /Applications/microchip/mplabc32/v1.11a/bin/../lib/gcc/pic32mx/3.4.4/../../../../pic32mx/lib/libc.a(memcpy.o)
                                                  build/uno/production/startup.o
PORTGSET                                          /Applications/microchip/mplabc32/v1.11a/bin/../lib/gcc/pic32mx/3.4.4/../../../../pic32mx/lib/./proc/32MX320F064H/processor.o
                                                  /Applications/microchip/mplabc32/v1.11a/bin/../lib/gcc/pic32mx/3.4.4/../../../../pic32mx/lib/libc.a(memcpy.o)
                                                  build/uno/production/startup.o
PR1                                               /Applications/microchip/mplabc32/v1.11a/bin/../lib/gcc/pic32mx/3.4.4/../../../../pic32mx/lib/./proc/32MX320F064H/processor.o
                                                  /Applications/microchip/mplabc32/v1.11a/bin/../lib/gcc/pic32mx/3.4.4/../../../../pic32mx/lib/libc.a(memcpy.o)
                                                  build/uno/production/startup.o
PR1CLR                                            /Applications/microchip/mplabc32/v1.11a/bin/../lib/gcc/pic32mx/3.4.4/../../../../pic32mx/lib/./proc/32MX320F064H/processor.o
                                                  /Applications/microchip/mplabc32/v1.11a/bin/../lib/gcc/pic32mx/3.4.4/../../../../pic32mx/lib/libc.a(memcpy.o)
                                                  build/uno/production/startup.o
PR1INV                                            /Applications/microchip/mplabc32/v1.11a/bin/../lib/gcc/pic32mx/3.4.4/../../../../pic32mx/lib/./proc/32MX320F064H/processor.o
                                                  /Applications/microchip/mplabc32/v1.11a/bin/../lib/gcc/pic32mx/3.4.4/../../../../pic32mx/lib/libc.a(memcpy.o)
                                                  build/uno/production/startup.o
PR1SET                                            /Applications/microchip/mplabc32/v1.11a/bin/../lib/gcc/pic32mx/3.4.4/../../../../pic32mx/lib/./proc/32MX320F064H/processor.o
                                                  /Applications/microchip/mplabc32/v1.11a/bin/../lib/gcc/pic32mx/3.4.4/../../../../pic32mx/lib/libc.a(memcpy.o)
                                                  build/uno/production/startup.o
PR2                                               /Applications/microchip/mplabc32/v1.11a/bin/../lib/gcc/pic32mx/3.4.4/../../../../pic32mx/lib/./proc/32MX320F064H/processor.o
                                                  /Applications/microchip/mplabc32/v1.11a/bin/../lib/gcc/pic32mx/3.4.4/../../../../pic32mx/lib/libc.a(memcpy.o)
                                                  build/uno/production/startup.o
PR23                                              /Applications/microchip/mplabc32/v1.11a/bin/../lib/gcc/pic32mx/3.4.4/../../../../pic32mx/lib/./proc/32MX320F064H/processor.o
                                                  /Applications/microchip/mplabc32/v1.11a/bin/../lib/gcc/pic32mx/3.4.4/../../../../pic32mx/lib/libc.a(memcpy.o)
                                                  build/uno/production/startup.o
PR2CLR                                            /Applications/microchip/mplabc32/v1.11a/bin/../lib/gcc/pic32mx/3.4.4/../../../../pic32mx/lib/./proc/32MX320F064H/processor.o
                                                  /Applications/microchip/mplabc32/v1.11a/bin/../lib/gcc/pic32mx/3.4.4/../../../../pic32mx/lib/libc.a(memcpy.o)
                                                  build/uno/production/startup.o
PR2INV                                            /Applications/microchip/mplabc32/v1.11a/bin/../lib/gcc/pic32mx/3.4.4/../../../../pic32mx/lib/./proc/32MX320F064H/processor.o
                                                  /Applications/microchip/mplabc32/v1.11a/bin/../lib/gcc/pic32mx/3.4.4/../../../../pic32mx/lib/libc.a(memcpy.o)
                                                  build/uno/production/startup.o
PR2SET                                            /Applications/microchip/mplabc32/v1.11a/bin/../lib/gcc/pic32mx/3.4.4/../../../../pic32mx/lib/./proc/32MX320F064H/processor.o
                                                  /Applications/microchip/mplabc32/v1.11a/bin/../lib/gcc/pic32mx/3.4.4/../../../../pic32mx/lib/libc.a(memcpy.o)
                                                  build/uno/production/startup.o
PR3                                               /Applications/microchip/mplabc32/v1.11a/bin/../lib/gcc/pic32mx/3.4.4/../../../../pic32mx/lib/./proc/32MX320F064H/processor.o
                                                  /Applications/microchip/mplabc32/v1.11a/bin/../lib/gcc/pic32mx/3.4.4/../../../../pic32mx/lib/libc.a(memcpy.o)
                                                  build/uno/production/startup.o
PR3CLR                                            /Applications/microchip/mplabc32/v1.11a/bin/../lib/gcc/pic32mx/3.4.4/../../../../pic32mx/lib/./proc/32MX320F064H/processor.o
                                                  /Applications/microchip/mplabc32/v1.11a/bin/../lib/gcc/pic32mx/3.4.4/../../../../pic32mx/lib/libc.a(memcpy.o)
                                                  build/uno/production/startup.o
PR3INV                                            /Applications/microchip/mplabc32/v1.11a/bin/../lib/gcc/pic32mx/3.4.4/../../../../pic32mx/lib/./proc/32MX320F064H/processor.o
                                                  /Applications/microchip/mplabc32/v1.11a/bin/../lib/gcc/pic32mx/3.4.4/../../../../pic32mx/lib/libc.a(memcpy.o)
                                                  build/uno/production/startup.o
PR3SET                                            /Applications/microchip/mplabc32/v1.11a/bin/../lib/gcc/pic32mx/3.4.4/../../../../pic32mx/lib/./proc/32MX320F064H/processor.o
                                                  /Applications/microchip/mplabc32/v1.11a/bin/../lib/gcc/pic32mx/3.4.4/../../../../pic32mx/lib/libc.a(memcpy.o)
                                                  build/uno/production/startup.o
PR4                                               /Applications/microchip/mplabc32/v1.11a/bin/../lib/gcc/pic32mx/3.4.4/../../../../pic32mx/lib/./proc/32MX320F064H/processor.o
                                                  /Applications/microchip/mplabc32/v1.11a/bin/../lib/gcc/pic32mx/3.4.4/../../../../pic32mx/lib/libc.a(memcpy.o)
                                                  build/uno/production/startup.o
PR45                                              /Applications/microchip/mplabc32/v1.11a/bin/../lib/gcc/pic32mx/3.4.4/../../../../pic32mx/lib/./proc/32MX320F064H/processor.o
                                                  /Applications/microchip/mplabc32/v1.11a/bin/../lib/gcc/pic32mx/3.4.4/../../../../pic32mx/lib/libc.a(memcpy.o)
                                                  build/uno/production/startup.o
PR4CLR                                            /Applications/microchip/mplabc32/v1.11a/bin/../lib/gcc/pic32mx/3.4.4/../../../../pic32mx/lib/./proc/32MX320F064H/processor.o
                                                  /Applications/microchip/mplabc32/v1.11a/bin/../lib/gcc/pic32mx/3.4.4/../../../../pic32mx/lib/libc.a(memcpy.o)
                                                  build/uno/production/startup.o
PR4INV                                            /Applications/microchip/mplabc32/v1.11a/bin/../lib/gcc/pic32mx/3.4.4/../../../../pic32mx/lib/./proc/32MX320F064H/processor.o
                                                  /Applications/microchip/mplabc32/v1.11a/bin/../lib/gcc/pic32mx/3.4.4/../../../../pic32mx/lib/libc.a(memcpy.o)
                                                  build/uno/production/startup.o
PR4SET                                            /Applications/microchip/mplabc32/v1.11a/bin/../lib/gcc/pic32mx/3.4.4/../../../../pic32mx/lib/./proc/32MX320F064H/processor.o
                                                  /Applications/microchip/mplabc32/v1.11a/bin/../lib/gcc/pic32mx/3.4.4/../../../../pic32mx/lib/libc.a(memcpy.o)
                                                  build/uno/production/startup.o
PR5                                               /Applications/microchip/mplabc32/v1.11a/bin/../lib/gcc/pic32mx/3.4.4/../../../../pic32mx/lib/./proc/32MX320F064H/processor.o
                                                  /Applications/microchip/mplabc32/v1.11a/bin/../lib/gcc/pic32mx/3.4.4/../../../../pic32mx/lib/libc.a(memcpy.o)
                                                  build/uno/production/startup.o
PR5CLR                                            /Applications/microchip/mplabc32/v1.11a/bin/../lib/gcc/pic32mx/3.4.4/../../../../pic32mx/lib/./proc/32MX320F064H/processor.o
                                                  /Applications/microchip/mplabc32/v1.11a/bin/../lib/gcc/pic32mx/3.4.4/../../../../pic32mx/lib/libc.a(memcpy.o)
                                                  build/uno/production/startup.o
PR5INV                                            /Applications/microchip/mplabc32/v1.11a/bin/../lib/gcc/pic32mx/3.4.4/../../../../pic32mx/lib/./proc/32MX320F064H/processor.o
                                                  /Applications/microchip/mplabc32/v1.11a/bin/../lib/gcc/pic32mx/3.4.4/../../../../pic32mx/lib/libc.a(memcpy.o)
                                                  build/uno/production/startup.o
PR5SET                                            /Applications/microchip/mplabc32/v1.11a/bin/../lib/gcc/pic32mx/3.4.4/../../../../pic32mx/lib/./proc/32MX320F064H/processor.o
                                                  /Applications/microchip/mplabc32/v1.11a/bin/../lib/gcc/pic32mx/3.4.4/../../../../pic32mx/lib/libc.a(memcpy.o)
                                                  build/uno/production/startup.o
RCON                                              /Applications/microchip/mplabc32/v1.11a/bin/../lib/gcc/pic32mx/3.4.4/../../../../pic32mx/lib/./proc/32MX320F064H/processor.o
                                                  /Applications/microchip/mplabc32/v1.11a/bin/../lib/gcc/pic32mx/3.4.4/../../../../pic32mx/lib/libc.a(memcpy.o)
                                                  build/uno/production/startup.o
RCONCLR                                           /Applications/microchip/mplabc32/v1.11a/bin/../lib/gcc/pic32mx/3.4.4/../../../../pic32mx/lib/./proc/32MX320F064H/processor.o
                                                  /Applications/microchip/mplabc32/v1.11a/bin/../lib/gcc/pic32mx/3.4.4/../../../../pic32mx/lib/libc.a(memcpy.o)
                                                  build/uno/production/startup.o
RCONINV                                           /Applications/microchip/mplabc32/v1.11a/bin/../lib/gcc/pic32mx/3.4.4/../../../../pic32mx/lib/./proc/32MX320F064H/processor.o
                                                  /Applications/microchip/mplabc32/v1.11a/bin/../lib/gcc/pic32mx/3.4.4/../../../../pic32mx/lib/libc.a(memcpy.o)
                                                  build/uno/production/startup.o
RCONSET                                           /Applications/microchip/mplabc32/v1.11a/bin/../lib/gcc/pic32mx/3.4.4/../../../../pic32mx/lib/./proc/32MX320F064H/processor.o
                                                  /Applications/microchip/mplabc32/v1.11a/bin/../lib/gcc/pic32mx/3.4.4/../../../../pic32mx/lib/libc.a(memcpy.o)
                                                  build/uno/production/startup.o
RSWRST                                            /Applications/microchip/mplabc32/v1.11a/bin/../lib/gcc/pic32mx/3.4.4/../../../../pic32mx/lib/./proc/32MX320F064H/processor.o
                                                  /Applications/microchip/mplabc32/v1.11a/bin/../lib/gcc/pic32mx/3.4.4/../../../../pic32mx/lib/libc.a(memcpy.o)
                                                  build/uno/production/startup.o
RSWRSTCLR                                         /Applications/microchip/mplabc32/v1.11a/bin/../lib/gcc/pic32mx/3.4.4/../../../../pic32mx/lib/./proc/32MX320F064H/processor.o
                                                  /Applications/microchip/mplabc32/v1.11a/bin/../lib/gcc/pic32mx/3.4.4/../../../../pic32mx/lib/libc.a(memcpy.o)
                                                  build/uno/production/startup.o
RSWRSTINV                                         /Applications/microchip/mplabc32/v1.11a/bin/../lib/gcc/pic32mx/3.4.4/../../../../pic32mx/lib/./proc/32MX320F064H/processor.o
                                                  /Applications/microchip/mplabc32/v1.11a/bin/../lib/gcc/pic32mx/3.4.4/../../../../pic32mx/lib/libc.a(memcpy.o)
                                                  build/uno/production/startup.o
RSWRSTSET                                         /Applications/microchip/mplabc32/v1.11a/bin/../lib/gcc/pic32mx/3.4.4/../../../../pic32mx/lib/./proc/32MX320F064H/processor.o
                                                  /Applications/microchip/mplabc32/v1.11a/bin/../lib/gcc/pic32mx/3.4.4/../../../../pic32mx/lib/libc.a(memcpy.o)
                                                  build/uno/production/startup.o
RTCALRM                                           /Applications/microchip/mplabc32/v1.11a/bin/../lib/gcc/pic32mx/3.4.4/../../../../pic32mx/lib/./proc/32MX320F064H/processor.o
                                                  /Applications/microchip/mplabc32/v1.11a/bin/../lib/gcc/pic32mx/3.4.4/../../../../pic32mx/lib/libc.a(memcpy.o)
                                                  build/uno/production/startup.o
RTCALRMCLR                                        /Applications/microchip/mplabc32/v1.11a/bin/../lib/gcc/pic32mx/3.4.4/../../../../pic32mx/lib/./proc/32MX320F064H/processor.o
                                                  /Applications/microchip/mplabc32/v1.11a/bin/../lib/gcc/pic32mx/3.4.4/../../../../pic32mx/lib/libc.a(memcpy.o)
                                                  build/uno/production/startup.o
RTCALRMINV                                        /Applications/microchip/mplabc32/v1.11a/bin/../lib/gcc/pic32mx/3.4.4/../../../../pic32mx/lib/./proc/32MX320F064H/processor.o
                                                  /Applications/microchip/mplabc32/v1.11a/bin/../lib/gcc/pic32mx/3.4.4/../../../../pic32mx/lib/libc.a(memcpy.o)
                                                  build/uno/production/startup.o
RTCALRMSET                                        /Applications/microchip/mplabc32/v1.11a/bin/../lib/gcc/pic32mx/3.4.4/../../../../pic32mx/lib/./proc/32MX320F064H/processor.o
                                                  /Applications/microchip/mplabc32/v1.11a/bin/../lib/gcc/pic32mx/3.4.4/../../../../pic32mx/lib/libc.a(memcpy.o)
                                                  build/uno/production/startup.o
RTCCON                                            /Applications/microchip/mplabc32/v1.11a/bin/../lib/gcc/pic32mx/3.4.4/../../../../pic32mx/lib/./proc/32MX320F064H/processor.o
                                                  /Applications/microchip/mplabc32/v1.11a/bin/../lib/gcc/pic32mx/3.4.4/../../../../pic32mx/lib/libc.a(memcpy.o)
                                                  build/uno/production/startup.o
RTCCONCLR                                         /Applications/microchip/mplabc32/v1.11a/bin/../lib/gcc/pic32mx/3.4.4/../../../../pic32mx/lib/./proc/32MX320F064H/processor.o
                                                  /Applications/microchip/mplabc32/v1.11a/bin/../lib/gcc/pic32mx/3.4.4/../../../../pic32mx/lib/libc.a(memcpy.o)
                                                  build/uno/production/startup.o
RTCCONINV                                         /Applications/microchip/mplabc32/v1.11a/bin/../lib/gcc/pic32mx/3.4.4/../../../../pic32mx/lib/./proc/32MX320F064H/processor.o
                                                  /Applications/microchip/mplabc32/v1.11a/bin/../lib/gcc/pic32mx/3.4.4/../../../../pic32mx/lib/libc.a(memcpy.o)
                                                  build/uno/production/startup.o
RTCCONSET                                         /Applications/microchip/mplabc32/v1.11a/bin/../lib/gcc/pic32mx/3.4.4/../../../../pic32mx/lib/./proc/32MX320F064H/processor.o
                                                  /Applications/microchip/mplabc32/v1.11a/bin/../lib/gcc/pic32mx/3.4.4/../../../../pic32mx/lib/libc.a(memcpy.o)
                                                  build/uno/production/startup.o
RTCDATE                                           /Applications/microchip/mplabc32/v1.11a/bin/../lib/gcc/pic32mx/3.4.4/../../../../pic32mx/lib/./proc/32MX320F064H/processor.o
                                                  /Applications/microchip/mplabc32/v1.11a/bin/../lib/gcc/pic32mx/3.4.4/../../../../pic32mx/lib/libc.a(memcpy.o)
                                                  build/uno/production/startup.o
RTCDATECLR                                        /Applications/microchip/mplabc32/v1.11a/bin/../lib/gcc/pic32mx/3.4.4/../../../../pic32mx/lib/./proc/32MX320F064H/processor.o
                                                  /Applications/microchip/mplabc32/v1.11a/bin/../lib/gcc/pic32mx/3.4.4/../../../../pic32mx/lib/libc.a(memcpy.o)
                                                  build/uno/production/startup.o
RTCDATEINV                                        /Applications/microchip/mplabc32/v1.11a/bin/../lib/gcc/pic32mx/3.4.4/../../../../pic32mx/lib/./proc/32MX320F064H/processor.o
                                                  /Applications/microchip/mplabc32/v1.11a/bin/../lib/gcc/pic32mx/3.4.4/../../../../pic32mx/lib/libc.a(memcpy.o)
                                                  build/uno/production/startup.o
RTCDATESET                                        /Applications/microchip/mplabc32/v1.11a/bin/../lib/gcc/pic32mx/3.4.4/../../../../pic32mx/lib/./proc/32MX320F064H/processor.o
                                                  /Applications/microchip/mplabc32/v1.11a/bin/../lib/gcc/pic32mx/3.4.4/../../../../pic32mx/lib/libc.a(memcpy.o)
                                                  build/uno/production/startup.o
RTCTIME                                           /Applications/microchip/mplabc32/v1.11a/bin/../lib/gcc/pic32mx/3.4.4/../../../../pic32mx/lib/./proc/32MX320F064H/processor.o
                                                  /Applications/microchip/mplabc32/v1.11a/bin/../lib/gcc/pic32mx/3.4.4/../../../../pic32mx/lib/libc.a(memcpy.o)
                                                  build/uno/production/startup.o
RTCTIMECLR                                        /Applications/microchip/mplabc32/v1.11a/bin/../lib/gcc/pic32mx/3.4.4/../../../../pic32mx/lib/./proc/32MX320F064H/processor.o
                                                  /Applications/microchip/mplabc32/v1.11a/bin/../lib/gcc/pic32mx/3.4.4/../../../../pic32mx/lib/libc.a(memcpy.o)
                                                  build/uno/production/startup.o
RTCTIMEINV                                        /Applications/microchip/mplabc32/v1.11a/bin/../lib/gcc/pic32mx/3.4.4/../../../../pic32mx/lib/./proc/32MX320F064H/processor.o
                                                  /Applications/microchip/mplabc32/v1.11a/bin/../lib/gcc/pic32mx/3.4.4/../../../../pic32mx/lib/libc.a(memcpy.o)
                                                  build/uno/production/startup.o
RTCTIMESET                                        /Applications/microchip/mplabc32/v1.11a/bin/../lib/gcc/pic32mx/3.4.4/../../../../pic32mx/lib/./proc/32MX320F064H/processor.o
                                                  /Applications/microchip/mplabc32/v1.11a/bin/../lib/gcc/pic32mx/3.4.4/../../../../pic32mx/lib/libc.a(memcpy.o)
                                                  build/uno/production/startup.o
SPI1BRG                                           /Applications/microchip/mplabc32/v1.11a/bin/../lib/gcc/pic32mx/3.4.4/../../../../pic32mx/lib/./proc/32MX320F064H/processor.o
                                                  /Applications/microchip/mplabc32/v1.11a/bin/../lib/gcc/pic32mx/3.4.4/../../../../pic32mx/lib/libc.a(memcpy.o)
                                                  build/uno/production/startup.o
SPI1BRGCLR                                        /Applications/microchip/mplabc32/v1.11a/bin/../lib/gcc/pic32mx/3.4.4/../../../../pic32mx/lib/./proc/32MX320F064H/processor.o
                                                  /Applications/microchip/mplabc32/v1.11a/bin/../lib/gcc/pic32mx/3.4.4/../../../../pic32mx/lib/libc.a(memcpy.o)
                                                  build/uno/production/startup.o
SPI1BRGINV                                        /Applications/microchip/mplabc32/v1.11a/bin/../lib/gcc/pic32mx/3.4.4/../../../../pic32mx/lib/./proc/32MX320F064H/processor.o
                                                  /Applications/microchip/mplabc32/v1.11a/bin/../lib/gcc/pic32mx/3.4.4/../../../../pic32mx/lib/libc.a(memcpy.o)
                                                  build/uno/production/startup.o
SPI1BRGSET                                        /Applications/microchip/mplabc32/v1.11a/bin/../lib/gcc/pic32mx/3.4.4/../../../../pic32mx/lib/./proc/32MX320F064H/processor.o
                                                  /Applications/microchip/mplabc32/v1.11a/bin/../lib/gcc/pic32mx/3.4.4/../../../../pic32mx/lib/libc.a(memcpy.o)
                                                  build/uno/production/startup.o
SPI1BUF                                           /Applications/microchip/mplabc32/v1.11a/bin/../lib/gcc/pic32mx/3.4.4/../../../../pic32mx/lib/./proc/32MX320F064H/processor.o
                                                  /Applications/microchip/mplabc32/v1.11a/bin/../lib/gcc/pic32mx/3.4.4/../../../../pic32mx/lib/libc.a(memcpy.o)
                                                  build/uno/production/startup.o
SPI1CON                                           /Applications/microchip/mplabc32/v1.11a/bin/../lib/gcc/pic32mx/3.4.4/../../../../pic32mx/lib/./proc/32MX320F064H/processor.o
                                                  /Applications/microchip/mplabc32/v1.11a/bin/../lib/gcc/pic32mx/3.4.4/../../../../pic32mx/lib/libc.a(memcpy.o)
                                                  build/uno/production/startup.o
SPI1CONCLR                                        /Applications/microchip/mplabc32/v1.11a/bin/../lib/gcc/pic32mx/3.4.4/../../../../pic32mx/lib/./proc/32MX320F064H/processor.o
                                                  /Applications/microchip/mplabc32/v1.11a/bin/../lib/gcc/pic32mx/3.4.4/../../../../pic32mx/lib/libc.a(memcpy.o)
                                                  build/uno/production/startup.o
SPI1CONINV                                        /Applications/microchip/mplabc32/v1.11a/bin/../lib/gcc/pic32mx/3.4.4/../../../../pic32mx/lib/./proc/32MX320F064H/processor.o
                                                  /Applications/microchip/mplabc32/v1.11a/bin/../lib/gcc/pic32mx/3.4.4/../../../../pic32mx/lib/libc.a(memcpy.o)
                                                  build/uno/production/startup.o
SPI1CONSET                                        /Applications/microchip/mplabc32/v1.11a/bin/../lib/gcc/pic32mx/3.4.4/../../../../pic32mx/lib/./proc/32MX320F064H/processor.o
                                                  /Applications/microchip/mplabc32/v1.11a/bin/../lib/gcc/pic32mx/3.4.4/../../../../pic32mx/lib/libc.a(memcpy.o)
                                                  build/uno/production/startup.o
SPI1STAT                                          /Applications/microchip/mplabc32/v1.11a/bin/../lib/gcc/pic32mx/3.4.4/../../../../pic32mx/lib/./proc/32MX320F064H/processor.o
                                                  /Applications/microchip/mplabc32/v1.11a/bin/../lib/gcc/pic32mx/3.4.4/../../../../pic32mx/lib/libc.a(memcpy.o)
                                                  build/uno/production/startup.o
SPI1STATCLR                                       /Applications/microchip/mplabc32/v1.11a/bin/../lib/gcc/pic32mx/3.4.4/../../../../pic32mx/lib/./proc/32MX320F064H/processor.o
                                                  /Applications/microchip/mplabc32/v1.11a/bin/../lib/gcc/pic32mx/3.4.4/../../../../pic32mx/lib/libc.a(memcpy.o)
                                                  build/uno/production/startup.o
SPI1STATINV                                       /Applications/microchip/mplabc32/v1.11a/bin/../lib/gcc/pic32mx/3.4.4/../../../../pic32mx/lib/./proc/32MX320F064H/processor.o
                                                  /Applications/microchip/mplabc32/v1.11a/bin/../lib/gcc/pic32mx/3.4.4/../../../../pic32mx/lib/libc.a(memcpy.o)
                                                  build/uno/production/startup.o
SPI1STATSET                                       /Applications/microchip/mplabc32/v1.11a/bin/../lib/gcc/pic32mx/3.4.4/../../../../pic32mx/lib/./proc/32MX320F064H/processor.o
                                                  /Applications/microchip/mplabc32/v1.11a/bin/../lib/gcc/pic32mx/3.4.4/../../../../pic32mx/lib/libc.a(memcpy.o)
                                                  build/uno/production/startup.o
SPI2BRG                                           /Applications/microchip/mplabc32/v1.11a/bin/../lib/gcc/pic32mx/3.4.4/../../../../pic32mx/lib/./proc/32MX320F064H/processor.o
                                                  /Applications/microchip/mplabc32/v1.11a/bin/../lib/gcc/pic32mx/3.4.4/../../../../pic32mx/lib/libc.a(memcpy.o)
                                                  build/uno/production/startup.o
SPI2BRGCLR                                        /Applications/microchip/mplabc32/v1.11a/bin/../lib/gcc/pic32mx/3.4.4/../../../../pic32mx/lib/./proc/32MX320F064H/processor.o
                                                  /Applications/microchip/mplabc32/v1.11a/bin/../lib/gcc/pic32mx/3.4.4/../../../../pic32mx/lib/libc.a(memcpy.o)
                                                  build/uno/production/startup.o
SPI2BRGINV                                        /Applications/microchip/mplabc32/v1.11a/bin/../lib/gcc/pic32mx/3.4.4/../../../../pic32mx/lib/./proc/32MX320F064H/processor.o
                                                  /Applications/microchip/mplabc32/v1.11a/bin/../lib/gcc/pic32mx/3.4.4/../../../../pic32mx/lib/libc.a(memcpy.o)
                                                  build/uno/production/startup.o
SPI2BRGSET                                        /Applications/microchip/mplabc32/v1.11a/bin/../lib/gcc/pic32mx/3.4.4/../../../../pic32mx/lib/./proc/32MX320F064H/processor.o
                                                  /Applications/microchip/mplabc32/v1.11a/bin/../lib/gcc/pic32mx/3.4.4/../../../../pic32mx/lib/libc.a(memcpy.o)
                                                  build/uno/production/startup.o
SPI2BUF                                           /Applications/microchip/mplabc32/v1.11a/bin/../lib/gcc/pic32mx/3.4.4/../../../../pic32mx/lib/./proc/32MX320F064H/processor.o
                                                  /Applications/microchip/mplabc32/v1.11a/bin/../lib/gcc/pic32mx/3.4.4/../../../../pic32mx/lib/libc.a(memcpy.o)
                                                  build/uno/production/startup.o
SPI2CON                                           /Applications/microchip/mplabc32/v1.11a/bin/../lib/gcc/pic32mx/3.4.4/../../../../pic32mx/lib/./proc/32MX320F064H/processor.o
                                                  /Applications/microchip/mplabc32/v1.11a/bin/../lib/gcc/pic32mx/3.4.4/../../../../pic32mx/lib/libc.a(memcpy.o)
                                                  build/uno/production/startup.o
SPI2CONCLR                                        /Applications/microchip/mplabc32/v1.11a/bin/../lib/gcc/pic32mx/3.4.4/../../../../pic32mx/lib/./proc/32MX320F064H/processor.o
                                                  /Applications/microchip/mplabc32/v1.11a/bin/../lib/gcc/pic32mx/3.4.4/../../../../pic32mx/lib/libc.a(memcpy.o)
                                                  build/uno/production/startup.o
SPI2CONINV                                        /Applications/microchip/mplabc32/v1.11a/bin/../lib/gcc/pic32mx/3.4.4/../../../../pic32mx/lib/./proc/32MX320F064H/processor.o
                                                  /Applications/microchip/mplabc32/v1.11a/bin/../lib/gcc/pic32mx/3.4.4/../../../../pic32mx/lib/libc.a(memcpy.o)
                                                  build/uno/production/startup.o
SPI2CONSET                                        /Applications/microchip/mplabc32/v1.11a/bin/../lib/gcc/pic32mx/3.4.4/../../../../pic32mx/lib/./proc/32MX320F064H/processor.o
                                                  /Applications/microchip/mplabc32/v1.11a/bin/../lib/gcc/pic32mx/3.4.4/../../../../pic32mx/lib/libc.a(memcpy.o)
                                                  build/uno/production/startup.o
SPI2STAT                                          /Applications/microchip/mplabc32/v1.11a/bin/../lib/gcc/pic32mx/3.4.4/../../../../pic32mx/lib/./proc/32MX320F064H/processor.o
                                                  /Applications/microchip/mplabc32/v1.11a/bin/../lib/gcc/pic32mx/3.4.4/../../../../pic32mx/lib/libc.a(memcpy.o)
                                                  build/uno/production/startup.o
SPI2STATCLR                                       /Applications/microchip/mplabc32/v1.11a/bin/../lib/gcc/pic32mx/3.4.4/../../../../pic32mx/lib/./proc/32MX320F064H/processor.o
                                                  /Applications/microchip/mplabc32/v1.11a/bin/../lib/gcc/pic32mx/3.4.4/../../../../pic32mx/lib/libc.a(memcpy.o)
                                                  build/uno/production/startup.o
SPI2STATINV                                       /Applications/microchip/mplabc32/v1.11a/bin/../lib/gcc/pic32mx/3.4.4/../../../../pic32mx/lib/./proc/32MX320F064H/processor.o
                                                  /Applications/microchip/mplabc32/v1.11a/bin/../lib/gcc/pic32mx/3.4.4/../../../../pic32mx/lib/libc.a(memcpy.o)
                                                  build/uno/production/startup.o
SPI2STATSET                                       /Applications/microchip/mplabc32/v1.11a/bin/../lib/gcc/pic32mx/3.4.4/../../../../pic32mx/lib/./proc/32MX320F064H/processor.o
                                                  /Applications/microchip/mplabc32/v1.11a/bin/../lib/gcc/pic32mx/3.4.4/../../../../pic32mx/lib/libc.a(memcpy.o)
                                                  build/uno/production/startup.o
SYSKEY                                            /Applications/microchip/mplabc32/v1.11a/bin/../lib/gcc/pic32mx/3.4.4/../../../../pic32mx/lib/./proc/32MX320F064H/processor.o
                                                  /Applications/microchip/mplabc32/v1.11a/bin/../lib/gcc/pic32mx/3.4.4/../../../../pic32mx/lib/libc.a(memcpy.o)
                                                  build/uno/production/pic32bootloader.o
                                                  build/uno/production/startup.o
T1CON                                             /Applications/microchip/mplabc32/v1.11a/bin/../lib/gcc/pic32mx/3.4.4/../../../../pic32mx/lib/./proc/32MX320F064H/processor.o
                                                  /Applications/microchip/mplabc32/v1.11a/bin/../lib/gcc/pic32mx/3.4.4/../../../../pic32mx/lib/libc.a(memcpy.o)
                                                  build/uno/production/startup.o
T1CONCLR                                          /Applications/microchip/mplabc32/v1.11a/bin/../lib/gcc/pic32mx/3.4.4/../../../../pic32mx/lib/./proc/32MX320F064H/processor.o
                                                  /Applications/microchip/mplabc32/v1.11a/bin/../lib/gcc/pic32mx/3.4.4/../../../../pic32mx/lib/libc.a(memcpy.o)
                                                  build/uno/production/startup.o
T1CONINV                                          /Applications/microchip/mplabc32/v1.11a/bin/../lib/gcc/pic32mx/3.4.4/../../../../pic32mx/lib/./proc/32MX320F064H/processor.o
                                                  /Applications/microchip/mplabc32/v1.11a/bin/../lib/gcc/pic32mx/3.4.4/../../../../pic32mx/lib/libc.a(memcpy.o)
                                                  build/uno/production/startup.o
T1CONSET                                          /Applications/microchip/mplabc32/v1.11a/bin/../lib/gcc/pic32mx/3.4.4/../../../../pic32mx/lib/./proc/32MX320F064H/processor.o
                                                  /Applications/microchip/mplabc32/v1.11a/bin/../lib/gcc/pic32mx/3.4.4/../../../../pic32mx/lib/libc.a(memcpy.o)
                                                  build/uno/production/startup.o
T2CON                                             /Applications/microchip/mplabc32/v1.11a/bin/../lib/gcc/pic32mx/3.4.4/../../../../pic32mx/lib/./proc/32MX320F064H/processor.o
                                                  /Applications/microchip/mplabc32/v1.11a/bin/../lib/gcc/pic32mx/3.4.4/../../../../pic32mx/lib/libc.a(memcpy.o)
                                                  build/uno/production/startup.o
T2CONCLR                                          /Applications/microchip/mplabc32/v1.11a/bin/../lib/gcc/pic32mx/3.4.4/../../../../pic32mx/lib/./proc/32MX320F064H/processor.o
                                                  /Applications/microchip/mplabc32/v1.11a/bin/../lib/gcc/pic32mx/3.4.4/../../../../pic32mx/lib/libc.a(memcpy.o)
                                                  build/uno/production/startup.o
T2CONINV                                          /Applications/microchip/mplabc32/v1.11a/bin/../lib/gcc/pic32mx/3.4.4/../../../../pic32mx/lib/./proc/32MX320F064H/processor.o
                                                  /Applications/microchip/mplabc32/v1.11a/bin/../lib/gcc/pic32mx/3.4.4/../../../../pic32mx/lib/libc.a(memcpy.o)
                                                  build/uno/production/startup.o
T2CONSET                                          /Applications/microchip/mplabc32/v1.11a/bin/../lib/gcc/pic32mx/3.4.4/../../../../pic32mx/lib/./proc/32MX320F064H/processor.o
                                                  /Applications/microchip/mplabc32/v1.11a/bin/../lib/gcc/pic32mx/3.4.4/../../../../pic32mx/lib/libc.a(memcpy.o)
                                                  build/uno/production/startup.o
T3CON                                             /Applications/microchip/mplabc32/v1.11a/bin/../lib/gcc/pic32mx/3.4.4/../../../../pic32mx/lib/./proc/32MX320F064H/processor.o
                                                  /Applications/microchip/mplabc32/v1.11a/bin/../lib/gcc/pic32mx/3.4.4/../../../../pic32mx/lib/libc.a(memcpy.o)
                                                  build/uno/production/startup.o
T3CONCLR                                          /Applications/microchip/mplabc32/v1.11a/bin/../lib/gcc/pic32mx/3.4.4/../../../../pic32mx/lib/./proc/32MX320F064H/processor.o
                                                  /Applications/microchip/mplabc32/v1.11a/bin/../lib/gcc/pic32mx/3.4.4/../../../../pic32mx/lib/libc.a(memcpy.o)
                                                  build/uno/production/startup.o
T3CONINV                                          /Applications/microchip/mplabc32/v1.11a/bin/../lib/gcc/pic32mx/3.4.4/../../../../pic32mx/lib/./proc/32MX320F064H/processor.o
                                                  /Applications/microchip/mplabc32/v1.11a/bin/../lib/gcc/pic32mx/3.4.4/../../../../pic32mx/lib/libc.a(memcpy.o)
                                                  build/uno/production/startup.o
T3CONSET                                          /Applications/microchip/mplabc32/v1.11a/bin/../lib/gcc/pic32mx/3.4.4/../../../../pic32mx/lib/./proc/32MX320F064H/processor.o
                                                  /Applications/microchip/mplabc32/v1.11a/bin/../lib/gcc/pic32mx/3.4.4/../../../../pic32mx/lib/libc.a(memcpy.o)
                                                  build/uno/production/startup.o
T4CON                                             /Applications/microchip/mplabc32/v1.11a/bin/../lib/gcc/pic32mx/3.4.4/../../../../pic32mx/lib/./proc/32MX320F064H/processor.o
                                                  /Applications/microchip/mplabc32/v1.11a/bin/../lib/gcc/pic32mx/3.4.4/../../../../pic32mx/lib/libc.a(memcpy.o)
                                                  build/uno/production/startup.o
T4CONCLR                                          /Applications/microchip/mplabc32/v1.11a/bin/../lib/gcc/pic32mx/3.4.4/../../../../pic32mx/lib/./proc/32MX320F064H/processor.o
                                                  /Applications/microchip/mplabc32/v1.11a/bin/../lib/gcc/pic32mx/3.4.4/../../../../pic32mx/lib/libc.a(memcpy.o)
                                                  build/uno/production/startup.o
T4CONINV                                          /Applications/microchip/mplabc32/v1.11a/bin/../lib/gcc/pic32mx/3.4.4/../../../../pic32mx/lib/./proc/32MX320F064H/processor.o
                                                  /Applications/microchip/mplabc32/v1.11a/bin/../lib/gcc/pic32mx/3.4.4/../../../../pic32mx/lib/libc.a(memcpy.o)
                                                  build/uno/production/startup.o
T4CONSET                                          /Applications/microchip/mplabc32/v1.11a/bin/../lib/gcc/pic32mx/3.4.4/../../../../pic32mx/lib/./proc/32MX320F064H/processor.o
                                                  /Applications/microchip/mplabc32/v1.11a/bin/../lib/gcc/pic32mx/3.4.4/../../../../pic32mx/lib/libc.a(memcpy.o)
                                                  build/uno/production/startup.o
T5CON                                             /Applications/microchip/mplabc32/v1.11a/bin/../lib/gcc/pic32mx/3.4.4/../../../../pic32mx/lib/./proc/32MX320F064H/processor.o
                                                  /Applications/microchip/mplabc32/v1.11a/bin/../lib/gcc/pic32mx/3.4.4/../../../../pic32mx/lib/libc.a(memcpy.o)
                                                  build/uno/production/startup.o
T5CONCLR                                          /Applications/microchip/mplabc32/v1.11a/bin/../lib/gcc/pic32mx/3.4.4/../../../../pic32mx/lib/./proc/32MX320F064H/processor.o
                                                  /Applications/microchip/mplabc32/v1.11a/bin/../lib/gcc/pic32mx/3.4.4/../../../../pic32mx/lib/libc.a(memcpy.o)
                                                  build/uno/production/startup.o
T5CONINV                                          /Applications/microchip/mplabc32/v1.11a/bin/../lib/gcc/pic32mx/3.4.4/../../../../pic32mx/lib/./proc/32MX320F064H/processor.o
                                                  /Applications/microchip/mplabc32/v1.11a/bin/../lib/gcc/pic32mx/3.4.4/../../../../pic32mx/lib/libc.a(memcpy.o)
                                                  build/uno/production/startup.o
T5CONSET                                          /Applications/microchip/mplabc32/v1.11a/bin/../lib/gcc/pic32mx/3.4.4/../../../../pic32mx/lib/./proc/32MX320F064H/processor.o
                                                  /Applications/microchip/mplabc32/v1.11a/bin/../lib/gcc/pic32mx/3.4.4/../../../../pic32mx/lib/libc.a(memcpy.o)
                                                  build/uno/production/startup.o
TMR1                                              /Applications/microchip/mplabc32/v1.11a/bin/../lib/gcc/pic32mx/3.4.4/../../../../pic32mx/lib/./proc/32MX320F064H/processor.o
                                                  /Applications/microchip/mplabc32/v1.11a/bin/../lib/gcc/pic32mx/3.4.4/../../../../pic32mx/lib/libc.a(memcpy.o)
                                                  build/uno/production/startup.o
TMR1CLR                                           /Applications/microchip/mplabc32/v1.11a/bin/../lib/gcc/pic32mx/3.4.4/../../../../pic32mx/lib/./proc/32MX320F064H/processor.o
                                                  /Applications/microchip/mplabc32/v1.11a/bin/../lib/gcc/pic32mx/3.4.4/../../../../pic32mx/lib/libc.a(memcpy.o)
                                                  build/uno/production/startup.o
TMR1INV                                           /Applications/microchip/mplabc32/v1.11a/bin/../lib/gcc/pic32mx/3.4.4/../../../../pic32mx/lib/./proc/32MX320F064H/processor.o
                                                  /Applications/microchip/mplabc32/v1.11a/bin/../lib/gcc/pic32mx/3.4.4/../../../../pic32mx/lib/libc.a(memcpy.o)
                                                  build/uno/production/startup.o
TMR1SET                                           /Applications/microchip/mplabc32/v1.11a/bin/../lib/gcc/pic32mx/3.4.4/../../../../pic32mx/lib/./proc/32MX320F064H/processor.o
                                                  /Applications/microchip/mplabc32/v1.11a/bin/../lib/gcc/pic32mx/3.4.4/../../../../pic32mx/lib/libc.a(memcpy.o)
                                                  build/uno/production/startup.o
TMR2                                              /Applications/microchip/mplabc32/v1.11a/bin/../lib/gcc/pic32mx/3.4.4/../../../../pic32mx/lib/./proc/32MX320F064H/processor.o
                                                  /Applications/microchip/mplabc32/v1.11a/bin/../lib/gcc/pic32mx/3.4.4/../../../../pic32mx/lib/libc.a(memcpy.o)
                                                  build/uno/production/startup.o
TMR23                                             /Applications/microchip/mplabc32/v1.11a/bin/../lib/gcc/pic32mx/3.4.4/../../../../pic32mx/lib/./proc/32MX320F064H/processor.o
                                                  /Applications/microchip/mplabc32/v1.11a/bin/../lib/gcc/pic32mx/3.4.4/../../../../pic32mx/lib/libc.a(memcpy.o)
                                                  build/uno/production/startup.o
TMR2CLR                                           /Applications/microchip/mplabc32/v1.11a/bin/../lib/gcc/pic32mx/3.4.4/../../../../pic32mx/lib/./proc/32MX320F064H/processor.o
                                                  /Applications/microchip/mplabc32/v1.11a/bin/../lib/gcc/pic32mx/3.4.4/../../../../pic32mx/lib/libc.a(memcpy.o)
                                                  build/uno/production/startup.o
TMR2INV                                           /Applications/microchip/mplabc32/v1.11a/bin/../lib/gcc/pic32mx/3.4.4/../../../../pic32mx/lib/./proc/32MX320F064H/processor.o
                                                  /Applications/microchip/mplabc32/v1.11a/bin/../lib/gcc/pic32mx/3.4.4/../../../../pic32mx/lib/libc.a(memcpy.o)
                                                  build/uno/production/startup.o
TMR2SET                                           /Applications/microchip/mplabc32/v1.11a/bin/../lib/gcc/pic32mx/3.4.4/../../../../pic32mx/lib/./proc/32MX320F064H/processor.o
                                                  /Applications/microchip/mplabc32/v1.11a/bin/../lib/gcc/pic32mx/3.4.4/../../../../pic32mx/lib/libc.a(memcpy.o)
                                                  build/uno/production/startup.o
TMR3                                              /Applications/microchip/mplabc32/v1.11a/bin/../lib/gcc/pic32mx/3.4.4/../../../../pic32mx/lib/./proc/32MX320F064H/processor.o
                                                  /Applications/microchip/mplabc32/v1.11a/bin/../lib/gcc/pic32mx/3.4.4/../../../../pic32mx/lib/libc.a(memcpy.o)
                                                  build/uno/production/startup.o
TMR3CLR                                           /Applications/microchip/mplabc32/v1.11a/bin/../lib/gcc/pic32mx/3.4.4/../../../../pic32mx/lib/./proc/32MX320F064H/processor.o
                                                  /Applications/microchip/mplabc32/v1.11a/bin/../lib/gcc/pic32mx/3.4.4/../../../../pic32mx/lib/libc.a(memcpy.o)
                                                  build/uno/production/startup.o
TMR3INV                                           /Applications/microchip/mplabc32/v1.11a/bin/../lib/gcc/pic32mx/3.4.4/../../../../pic32mx/lib/./proc/32MX320F064H/processor.o
                                                  /Applications/microchip/mplabc32/v1.11a/bin/../lib/gcc/pic32mx/3.4.4/../../../../pic32mx/lib/libc.a(memcpy.o)
                                                  build/uno/production/startup.o
TMR3SET                                           /Applications/microchip/mplabc32/v1.11a/bin/../lib/gcc/pic32mx/3.4.4/../../../../pic32mx/lib/./proc/32MX320F064H/processor.o
                                                  /Applications/microchip/mplabc32/v1.11a/bin/../lib/gcc/pic32mx/3.4.4/../../../../pic32mx/lib/libc.a(memcpy.o)
                                                  build/uno/production/startup.o
TMR4                                              /Applications/microchip/mplabc32/v1.11a/bin/../lib/gcc/pic32mx/3.4.4/../../../../pic32mx/lib/./proc/32MX320F064H/processor.o
                                                  /Applications/microchip/mplabc32/v1.11a/bin/../lib/gcc/pic32mx/3.4.4/../../../../pic32mx/lib/libc.a(memcpy.o)
                                                  build/uno/production/startup.o
TMR45                                             /Applications/microchip/mplabc32/v1.11a/bin/../lib/gcc/pic32mx/3.4.4/../../../../pic32mx/lib/./proc/32MX320F064H/processor.o
                                                  /Applications/microchip/mplabc32/v1.11a/bin/../lib/gcc/pic32mx/3.4.4/../../../../pic32mx/lib/libc.a(memcpy.o)
                                                  build/uno/production/startup.o
TMR4CLR                                           /Applications/microchip/mplabc32/v1.11a/bin/../lib/gcc/pic32mx/3.4.4/../../../../pic32mx/lib/./proc/32MX320F064H/processor.o
                                                  /Applications/microchip/mplabc32/v1.11a/bin/../lib/gcc/pic32mx/3.4.4/../../../../pic32mx/lib/libc.a(memcpy.o)
                                                  build/uno/production/startup.o
TMR4INV                                           /Applications/microchip/mplabc32/v1.11a/bin/../lib/gcc/pic32mx/3.4.4/../../../../pic32mx/lib/./proc/32MX320F064H/processor.o
                                                  /Applications/microchip/mplabc32/v1.11a/bin/../lib/gcc/pic32mx/3.4.4/../../../../pic32mx/lib/libc.a(memcpy.o)
                                                  build/uno/production/startup.o
TMR4SET                                           /Applications/microchip/mplabc32/v1.11a/bin/../lib/gcc/pic32mx/3.4.4/../../../../pic32mx/lib/./proc/32MX320F064H/processor.o
                                                  /Applications/microchip/mplabc32/v1.11a/bin/../lib/gcc/pic32mx/3.4.4/../../../../pic32mx/lib/libc.a(memcpy.o)
                                                  build/uno/production/startup.o
TMR5                                              /Applications/microchip/mplabc32/v1.11a/bin/../lib/gcc/pic32mx/3.4.4/../../../../pic32mx/lib/./proc/32MX320F064H/processor.o
                                                  /Applications/microchip/mplabc32/v1.11a/bin/../lib/gcc/pic32mx/3.4.4/../../../../pic32mx/lib/libc.a(memcpy.o)
                                                  build/uno/production/startup.o
TMR5CLR                                           /Applications/microchip/mplabc32/v1.11a/bin/../lib/gcc/pic32mx/3.4.4/../../../../pic32mx/lib/./proc/32MX320F064H/processor.o
                                                  /Applications/microchip/mplabc32/v1.11a/bin/../lib/gcc/pic32mx/3.4.4/../../../../pic32mx/lib/libc.a(memcpy.o)
                                                  build/uno/production/startup.o
TMR5INV                                           /Applications/microchip/mplabc32/v1.11a/bin/../lib/gcc/pic32mx/3.4.4/../../../../pic32mx/lib/./proc/32MX320F064H/processor.o
                                                  /Applications/microchip/mplabc32/v1.11a/bin/../lib/gcc/pic32mx/3.4.4/../../../../pic32mx/lib/libc.a(memcpy.o)
                                                  build/uno/production/startup.o
TMR5SET                                           /Applications/microchip/mplabc32/v1.11a/bin/../lib/gcc/pic32mx/3.4.4/../../../../pic32mx/lib/./proc/32MX320F064H/processor.o
                                                  /Applications/microchip/mplabc32/v1.11a/bin/../lib/gcc/pic32mx/3.4.4/../../../../pic32mx/lib/libc.a(memcpy.o)
                                                  build/uno/production/startup.o
TRISA                                             /Applications/microchip/mplabc32/v1.11a/bin/../lib/gcc/pic32mx/3.4.4/../../../../pic32mx/lib/libc.a(memcpy.o)
TRISACLR                                          /Applications/microchip/mplabc32/v1.11a/bin/../lib/gcc/pic32mx/3.4.4/../../../../pic32mx/lib/libc.a(memcpy.o)
TRISAINV                                          /Applications/microchip/mplabc32/v1.11a/bin/../lib/gcc/pic32mx/3.4.4/../../../../pic32mx/lib/libc.a(memcpy.o)
TRISASET                                          /Applications/microchip/mplabc32/v1.11a/bin/../lib/gcc/pic32mx/3.4.4/../../../../pic32mx/lib/libc.a(memcpy.o)
TRISB                                             /Applications/microchip/mplabc32/v1.11a/bin/../lib/gcc/pic32mx/3.4.4/../../../../pic32mx/lib/./proc/32MX320F064H/processor.o
                                                  /Applications/microchip/mplabc32/v1.11a/bin/../lib/gcc/pic32mx/3.4.4/../../../../pic32mx/lib/libc.a(memcpy.o)
                                                  build/uno/production/startup.o
TRISBCLR                                          /Applications/microchip/mplabc32/v1.11a/bin/../lib/gcc/pic32mx/3.4.4/../../../../pic32mx/lib/./proc/32MX320F064H/processor.o
                                                  /Applications/microchip/mplabc32/v1.11a/bin/../lib/gcc/pic32mx/3.4.4/../../../../pic32mx/lib/libc.a(memcpy.o)
                                                  build/uno/production/startup.o
TRISBINV                                          /Applications/microchip/mplabc32/v1.11a/bin/../lib/gcc/pic32mx/3.4.4/../../../../pic32mx/lib/./proc/32MX320F064H/processor.o
                                                  /Applications/microchip/mplabc32/v1.11a/bin/../lib/gcc/pic32mx/3.4.4/../../../../pic32mx/lib/libc.a(memcpy.o)
                                                  build/uno/production/startup.o
TRISBSET                                          /Applications/microchip/mplabc32/v1.11a/bin/../lib/gcc/pic32mx/3.4.4/../../../../pic32mx/lib/./proc/32MX320F064H/processor.o
                                                  /Applications/microchip/mplabc32/v1.11a/bin/../lib/gcc/pic32mx/3.4.4/../../../../pic32mx/lib/libc.a(memcpy.o)
                                                  build/uno/production/startup.o
TRISC                                             /Applications/microchip/mplabc32/v1.11a/bin/../lib/gcc/pic32mx/3.4.4/../../../../pic32mx/lib/./proc/32MX320F064H/processor.o
                                                  /Applications/microchip/mplabc32/v1.11a/bin/../lib/gcc/pic32mx/3.4.4/../../../../pic32mx/lib/libc.a(memcpy.o)
                                                  build/uno/production/startup.o
TRISCCLR                                          /Applications/microchip/mplabc32/v1.11a/bin/../lib/gcc/pic32mx/3.4.4/../../../../pic32mx/lib/./proc/32MX320F064H/processor.o
                                                  /Applications/microchip/mplabc32/v1.11a/bin/../lib/gcc/pic32mx/3.4.4/../../../../pic32mx/lib/libc.a(memcpy.o)
                                                  build/uno/production/startup.o
TRISCINV                                          /Applications/microchip/mplabc32/v1.11a/bin/../lib/gcc/pic32mx/3.4.4/../../../../pic32mx/lib/./proc/32MX320F064H/processor.o
                                                  /Applications/microchip/mplabc32/v1.11a/bin/../lib/gcc/pic32mx/3.4.4/../../../../pic32mx/lib/libc.a(memcpy.o)
                                                  build/uno/production/startup.o
TRISCSET                                          /Applications/microchip/mplabc32/v1.11a/bin/../lib/gcc/pic32mx/3.4.4/../../../../pic32mx/lib/./proc/32MX320F064H/processor.o
                                                  /Applications/microchip/mplabc32/v1.11a/bin/../lib/gcc/pic32mx/3.4.4/../../../../pic32mx/lib/libc.a(memcpy.o)
                                                  build/uno/production/startup.o
TRISD                                             /Applications/microchip/mplabc32/v1.11a/bin/../lib/gcc/pic32mx/3.4.4/../../../../pic32mx/lib/./proc/32MX320F064H/processor.o
                                                  /Applications/microchip/mplabc32/v1.11a/bin/../lib/gcc/pic32mx/3.4.4/../../../../pic32mx/lib/libc.a(memcpy.o)
                                                  build/uno/production/startup.o
TRISDCLR                                          /Applications/microchip/mplabc32/v1.11a/bin/../lib/gcc/pic32mx/3.4.4/../../../../pic32mx/lib/./proc/32MX320F064H/processor.o
                                                  /Applications/microchip/mplabc32/v1.11a/bin/../lib/gcc/pic32mx/3.4.4/../../../../pic32mx/lib/libc.a(memcpy.o)
                                                  build/uno/production/startup.o
TRISDINV                                          /Applications/microchip/mplabc32/v1.11a/bin/../lib/gcc/pic32mx/3.4.4/../../../../pic32mx/lib/./proc/32MX320F064H/processor.o
                                                  /Applications/microchip/mplabc32/v1.11a/bin/../lib/gcc/pic32mx/3.4.4/../../../../pic32mx/lib/libc.a(memcpy.o)
                                                  build/uno/production/startup.o
TRISDSET                                          /Applications/microchip/mplabc32/v1.11a/bin/../lib/gcc/pic32mx/3.4.4/../../../../pic32mx/lib/./proc/32MX320F064H/processor.o
                                                  /Applications/microchip/mplabc32/v1.11a/bin/../lib/gcc/pic32mx/3.4.4/../../../../pic32mx/lib/libc.a(memcpy.o)
                                                  build/uno/production/startup.o
TRISE                                             /Applications/microchip/mplabc32/v1.11a/bin/../lib/gcc/pic32mx/3.4.4/../../../../pic32mx/lib/./proc/32MX320F064H/processor.o
                                                  /Applications/microchip/mplabc32/v1.11a/bin/../lib/gcc/pic32mx/3.4.4/../../../../pic32mx/lib/libc.a(memcpy.o)
                                                  build/uno/production/startup.o
TRISECLR                                          /Applications/microchip/mplabc32/v1.11a/bin/../lib/gcc/pic32mx/3.4.4/../../../../pic32mx/lib/./proc/32MX320F064H/processor.o
                                                  /Applications/microchip/mplabc32/v1.11a/bin/../lib/gcc/pic32mx/3.4.4/../../../../pic32mx/lib/libc.a(memcpy.o)
                                                  build/uno/production/startup.o
TRISEINV                                          /Applications/microchip/mplabc32/v1.11a/bin/../lib/gcc/pic32mx/3.4.4/../../../../pic32mx/lib/./proc/32MX320F064H/processor.o
                                                  /Applications/microchip/mplabc32/v1.11a/bin/../lib/gcc/pic32mx/3.4.4/../../../../pic32mx/lib/libc.a(memcpy.o)
                                                  build/uno/production/startup.o
TRISESET                                          /Applications/microchip/mplabc32/v1.11a/bin/../lib/gcc/pic32mx/3.4.4/../../../../pic32mx/lib/./proc/32MX320F064H/processor.o
                                                  /Applications/microchip/mplabc32/v1.11a/bin/../lib/gcc/pic32mx/3.4.4/../../../../pic32mx/lib/libc.a(memcpy.o)
                                                  build/uno/production/startup.o
TRISF                                             /Applications/microchip/mplabc32/v1.11a/bin/../lib/gcc/pic32mx/3.4.4/../../../../pic32mx/lib/./proc/32MX320F064H/processor.o
                                                  /Applications/microchip/mplabc32/v1.11a/bin/../lib/gcc/pic32mx/3.4.4/../../../../pic32mx/lib/libc.a(memcpy.o)
                                                  build/uno/production/startup.o
TRISFCLR                                          /Applications/microchip/mplabc32/v1.11a/bin/../lib/gcc/pic32mx/3.4.4/../../../../pic32mx/lib/./proc/32MX320F064H/processor.o
                                                  /Applications/microchip/mplabc32/v1.11a/bin/../lib/gcc/pic32mx/3.4.4/../../../../pic32mx/lib/libc.a(memcpy.o)
                                                  build/uno/production/startup.o
TRISFINV                                          /Applications/microchip/mplabc32/v1.11a/bin/../lib/gcc/pic32mx/3.4.4/../../../../pic32mx/lib/./proc/32MX320F064H/processor.o
                                                  /Applications/microchip/mplabc32/v1.11a/bin/../lib/gcc/pic32mx/3.4.4/../../../../pic32mx/lib/libc.a(memcpy.o)
                                                  build/uno/production/startup.o
TRISFSET                                          /Applications/microchip/mplabc32/v1.11a/bin/../lib/gcc/pic32mx/3.4.4/../../../../pic32mx/lib/./proc/32MX320F064H/processor.o
                                                  /Applications/microchip/mplabc32/v1.11a/bin/../lib/gcc/pic32mx/3.4.4/../../../../pic32mx/lib/libc.a(memcpy.o)
                                                  build/uno/production/startup.o
TRISG                                             /Applications/microchip/mplabc32/v1.11a/bin/../lib/gcc/pic32mx/3.4.4/../../../../pic32mx/lib/./proc/32MX320F064H/processor.o
                                                  /Applications/microchip/mplabc32/v1.11a/bin/../lib/gcc/pic32mx/3.4.4/../../../../pic32mx/lib/libc.a(memcpy.o)
                                                  build/uno/production/startup.o
TRISGCLR                                          /Applications/microchip/mplabc32/v1.11a/bin/../lib/gcc/pic32mx/3.4.4/../../../../pic32mx/lib/./proc/32MX320F064H/processor.o
                                                  /Applications/microchip/mplabc32/v1.11a/bin/../lib/gcc/pic32mx/3.4.4/../../../../pic32mx/lib/libc.a(memcpy.o)
                                                  build/uno/production/pic32bootloader.o
                                                  build/uno/production/startup.o
TRISGINV                                          /Applications/microchip/mplabc32/v1.11a/bin/../lib/gcc/pic32mx/3.4.4/../../../../pic32mx/lib/./proc/32MX320F064H/processor.o
                                                  /Applications/microchip/mplabc32/v1.11a/bin/../lib/gcc/pic32mx/3.4.4/../../../../pic32mx/lib/libc.a(memcpy.o)
                                                  build/uno/production/startup.o
TRISGSET                                          /Applications/microchip/mplabc32/v1.11a/bin/../lib/gcc/pic32mx/3.4.4/../../../../pic32mx/lib/./proc/32MX320F064H/processor.o
                                                  /Applications/microchip/mplabc32/v1.11a/bin/../lib/gcc/pic32mx/3.4.4/../../../../pic32mx/lib/libc.a(memcpy.o)
                                                  build/uno/production/startup.o
U1ADDR                                            /Applications/microchip/mplabc32/v1.11a/bin/../lib/gcc/pic32mx/3.4.4/../../../../pic32mx/lib/libc.a(memcpy.o)
U1BDTP1                                           /Applications/microchip/mplabc32/v1.11a/bin/../lib/gcc/pic32mx/3.4.4/../../../../pic32mx/lib/libc.a(memcpy.o)
U1BDTP2                                           /Applications/microchip/mplabc32/v1.11a/bin/../lib/gcc/pic32mx/3.4.4/../../../../pic32mx/lib/libc.a(memcpy.o)
U1BDTP3                                           /Applications/microchip/mplabc32/v1.11a/bin/../lib/gcc/pic32mx/3.4.4/../../../../pic32mx/lib/libc.a(memcpy.o)
U1BRG                                             /Applications/microchip/mplabc32/v1.11a/bin/../lib/gcc/pic32mx/3.4.4/../../../../pic32mx/lib/./proc/32MX320F064H/processor.o
                                                  /Applications/microchip/mplabc32/v1.11a/bin/../lib/gcc/pic32mx/3.4.4/../../../../pic32mx/lib/libc.a(memcpy.o)
                                                  build/uno/production/pic32bootloader.o
                                                  build/uno/production/startup.o
U1BRGCLR                                          /Applications/microchip/mplabc32/v1.11a/bin/../lib/gcc/pic32mx/3.4.4/../../../../pic32mx/lib/./proc/32MX320F064H/processor.o
                                                  /Applications/microchip/mplabc32/v1.11a/bin/../lib/gcc/pic32mx/3.4.4/../../../../pic32mx/lib/libc.a(memcpy.o)
                                                  build/uno/production/startup.o
U1BRGINV                                          /Applications/microchip/mplabc32/v1.11a/bin/../lib/gcc/pic32mx/3.4.4/../../../../pic32mx/lib/./proc/32MX320F064H/processor.o
                                                  /Applications/microchip/mplabc32/v1.11a/bin/../lib/gcc/pic32mx/3.4.4/../../../../pic32mx/lib/libc.a(memcpy.o)
                                                  build/uno/production/startup.o
U1BRGSET                                          /Applications/microchip/mplabc32/v1.11a/bin/../lib/gcc/pic32mx/3.4.4/../../../../pic32mx/lib/./proc/32MX320F064H/processor.o
                                                  /Applications/microchip/mplabc32/v1.11a/bin/../lib/gcc/pic32mx/3.4.4/../../../../pic32mx/lib/libc.a(memcpy.o)
                                                  build/uno/production/startup.o
U1CNFG1                                           /Applications/microchip/mplabc32/v1.11a/bin/../lib/gcc/pic32mx/3.4.4/../../../../pic32mx/lib/libc.a(memcpy.o)
U1CON                                             /Applications/microchip/mplabc32/v1.11a/bin/../lib/gcc/pic32mx/3.4.4/../../../../pic32mx/lib/libc.a(memcpy.o)
U1EIE                                             /Applications/microchip/mplabc32/v1.11a/bin/../lib/gcc/pic32mx/3.4.4/../../../../pic32mx/lib/libc.a(memcpy.o)
U1EIR                                             /Applications/microchip/mplabc32/v1.11a/bin/../lib/gcc/pic32mx/3.4.4/../../../../pic32mx/lib/libc.a(memcpy.o)
U1EP0                                             /Applications/microchip/mplabc32/v1.11a/bin/../lib/gcc/pic32mx/3.4.4/../../../../pic32mx/lib/libc.a(memcpy.o)
U1EP1                                             /Applications/microchip/mplabc32/v1.11a/bin/../lib/gcc/pic32mx/3.4.4/../../../../pic32mx/lib/libc.a(memcpy.o)
U1EP10                                            /Applications/microchip/mplabc32/v1.11a/bin/../lib/gcc/pic32mx/3.4.4/../../../../pic32mx/lib/libc.a(memcpy.o)
U1EP11                                            /Applications/microchip/mplabc32/v1.11a/bin/../lib/gcc/pic32mx/3.4.4/../../../../pic32mx/lib/libc.a(memcpy.o)
U1EP12                                            /Applications/microchip/mplabc32/v1.11a/bin/../lib/gcc/pic32mx/3.4.4/../../../../pic32mx/lib/libc.a(memcpy.o)
U1EP13                                            /Applications/microchip/mplabc32/v1.11a/bin/../lib/gcc/pic32mx/3.4.4/../../../../pic32mx/lib/libc.a(memcpy.o)
U1EP14                                            /Applications/microchip/mplabc32/v1.11a/bin/../lib/gcc/pic32mx/3.4.4/../../../../pic32mx/lib/libc.a(memcpy.o)
U1EP15                                            /Applications/microchip/mplabc32/v1.11a/bin/../lib/gcc/pic32mx/3.4.4/../../../../pic32mx/lib/libc.a(memcpy.o)
U1EP2                                             /Applications/microchip/mplabc32/v1.11a/bin/../lib/gcc/pic32mx/3.4.4/../../../../pic32mx/lib/libc.a(memcpy.o)
U1EP3                                             /Applications/microchip/mplabc32/v1.11a/bin/../lib/gcc/pic32mx/3.4.4/../../../../pic32mx/lib/libc.a(memcpy.o)
U1EP4                                             /Applications/microchip/mplabc32/v1.11a/bin/../lib/gcc/pic32mx/3.4.4/../../../../pic32mx/lib/libc.a(memcpy.o)
U1EP5                                             /Applications/microchip/mplabc32/v1.11a/bin/../lib/gcc/pic32mx/3.4.4/../../../../pic32mx/lib/libc.a(memcpy.o)
U1EP6                                             /Applications/microchip/mplabc32/v1.11a/bin/../lib/gcc/pic32mx/3.4.4/../../../../pic32mx/lib/libc.a(memcpy.o)
U1EP7                                             /Applications/microchip/mplabc32/v1.11a/bin/../lib/gcc/pic32mx/3.4.4/../../../../pic32mx/lib/libc.a(memcpy.o)
U1EP8                                             /Applications/microchip/mplabc32/v1.11a/bin/../lib/gcc/pic32mx/3.4.4/../../../../pic32mx/lib/libc.a(memcpy.o)
U1EP9                                             /Applications/microchip/mplabc32/v1.11a/bin/../lib/gcc/pic32mx/3.4.4/../../../../pic32mx/lib/libc.a(memcpy.o)
U1FRMH                                            /Applications/microchip/mplabc32/v1.11a/bin/../lib/gcc/pic32mx/3.4.4/../../../../pic32mx/lib/libc.a(memcpy.o)
U1FRML                                            /Applications/microchip/mplabc32/v1.11a/bin/../lib/gcc/pic32mx/3.4.4/../../../../pic32mx/lib/libc.a(memcpy.o)
U1IE                                              /Applications/microchip/mplabc32/v1.11a/bin/../lib/gcc/pic32mx/3.4.4/../../../../pic32mx/lib/libc.a(memcpy.o)
U1IR                                              /Applications/microchip/mplabc32/v1.11a/bin/../lib/gcc/pic32mx/3.4.4/../../../../pic32mx/lib/libc.a(memcpy.o)
U1MODE                                            /Applications/microchip/mplabc32/v1.11a/bin/../lib/gcc/pic32mx/3.4.4/../../../../pic32mx/lib/./proc/32MX320F064H/processor.o
                                                  /Applications/microchip/mplabc32/v1.11a/bin/../lib/gcc/pic32mx/3.4.4/../../../../pic32mx/lib/libc.a(memcpy.o)
                                                  build/uno/production/pic32bootloader.o
                                                  build/uno/production/startup.o
U1MODECLR                                         /Applications/microchip/mplabc32/v1.11a/bin/../lib/gcc/pic32mx/3.4.4/../../../../pic32mx/lib/./proc/32MX320F064H/processor.o
                                                  /Applications/microchip/mplabc32/v1.11a/bin/../lib/gcc/pic32mx/3.4.4/../../../../pic32mx/lib/libc.a(memcpy.o)
                                                  build/uno/production/startup.o
U1MODEINV                                         /Applications/microchip/mplabc32/v1.11a/bin/../lib/gcc/pic32mx/3.4.4/../../../../pic32mx/lib/./proc/32MX320F064H/processor.o
                                                  /Applications/microchip/mplabc32/v1.11a/bin/../lib/gcc/pic32mx/3.4.4/../../../../pic32mx/lib/libc.a(memcpy.o)
                                                  build/uno/production/startup.o
U1MODESET                                         /Applications/microchip/mplabc32/v1.11a/bin/../lib/gcc/pic32mx/3.4.4/../../../../pic32mx/lib/./proc/32MX320F064H/processor.o
                                                  /Applications/microchip/mplabc32/v1.11a/bin/../lib/gcc/pic32mx/3.4.4/../../../../pic32mx/lib/libc.a(memcpy.o)
                                                  build/uno/production/startup.o
U1OTGCON                                          /Applications/microchip/mplabc32/v1.11a/bin/../lib/gcc/pic32mx/3.4.4/../../../../pic32mx/lib/libc.a(memcpy.o)
U1OTGIE                                           /Applications/microchip/mplabc32/v1.11a/bin/../lib/gcc/pic32mx/3.4.4/../../../../pic32mx/lib/libc.a(memcpy.o)
U1OTGIR                                           /Applications/microchip/mplabc32/v1.11a/bin/../lib/gcc/pic32mx/3.4.4/../../../../pic32mx/lib/libc.a(memcpy.o)
U1OTGSTAT                                         /Applications/microchip/mplabc32/v1.11a/bin/../lib/gcc/pic32mx/3.4.4/../../../../pic32mx/lib/libc.a(memcpy.o)
U1PWRC                                            /Applications/microchip/mplabc32/v1.11a/bin/../lib/gcc/pic32mx/3.4.4/../../../../pic32mx/lib/libc.a(memcpy.o)
U1RXREG                                           /Applications/microchip/mplabc32/v1.11a/bin/../lib/gcc/pic32mx/3.4.4/../../../../pic32mx/lib/./proc/32MX320F064H/processor.o
                                                  /Applications/microchip/mplabc32/v1.11a/bin/../lib/gcc/pic32mx/3.4.4/../../../../pic32mx/lib/libc.a(memcpy.o)
                                                  build/uno/production/pic32bootloader.o
                                                  build/uno/production/startup.o
U1SOF                                             /Applications/microchip/mplabc32/v1.11a/bin/../lib/gcc/pic32mx/3.4.4/../../../../pic32mx/lib/libc.a(memcpy.o)
U1STA                                             /Applications/microchip/mplabc32/v1.11a/bin/../lib/gcc/pic32mx/3.4.4/../../../../pic32mx/lib/./proc/32MX320F064H/processor.o
                                                  /Applications/microchip/mplabc32/v1.11a/bin/../lib/gcc/pic32mx/3.4.4/../../../../pic32mx/lib/libc.a(memcpy.o)
                                                  build/uno/production/pic32bootloader.o
                                                  build/uno/production/startup.o
U1STACLR                                          /Applications/microchip/mplabc32/v1.11a/bin/../lib/gcc/pic32mx/3.4.4/../../../../pic32mx/lib/./proc/32MX320F064H/processor.o
                                                  /Applications/microchip/mplabc32/v1.11a/bin/../lib/gcc/pic32mx/3.4.4/../../../../pic32mx/lib/libc.a(memcpy.o)
                                                  build/uno/production/startup.o
U1STAINV                                          /Applications/microchip/mplabc32/v1.11a/bin/../lib/gcc/pic32mx/3.4.4/../../../../pic32mx/lib/./proc/32MX320F064H/processor.o
                                                  /Applications/microchip/mplabc32/v1.11a/bin/../lib/gcc/pic32mx/3.4.4/../../../../pic32mx/lib/libc.a(memcpy.o)
                                                  build/uno/production/startup.o
U1STASET                                          /Applications/microchip/mplabc32/v1.11a/bin/../lib/gcc/pic32mx/3.4.4/../../../../pic32mx/lib/./proc/32MX320F064H/processor.o
                                                  /Applications/microchip/mplabc32/v1.11a/bin/../lib/gcc/pic32mx/3.4.4/../../../../pic32mx/lib/libc.a(memcpy.o)
                                                  build/uno/production/startup.o
U1STAT                                            /Applications/microchip/mplabc32/v1.11a/bin/../lib/gcc/pic32mx/3.4.4/../../../../pic32mx/lib/libc.a(memcpy.o)
U1TOK                                             /Applications/microchip/mplabc32/v1.11a/bin/../lib/gcc/pic32mx/3.4.4/../../../../pic32mx/lib/libc.a(memcpy.o)
U1TXREG                                           /Applications/microchip/mplabc32/v1.11a/bin/../lib/gcc/pic32mx/3.4.4/../../../../pic32mx/lib/./proc/32MX320F064H/processor.o
                                                  /Applications/microchip/mplabc32/v1.11a/bin/../lib/gcc/pic32mx/3.4.4/../../../../pic32mx/lib/libc.a(memcpy.o)
                                                  build/uno/production/pic32bootloader.o
                                                  build/uno/production/startup.o
U2BRG                                             /Applications/microchip/mplabc32/v1.11a/bin/../lib/gcc/pic32mx/3.4.4/../../../../pic32mx/lib/./proc/32MX320F064H/processor.o
                                                  /Applications/microchip/mplabc32/v1.11a/bin/../lib/gcc/pic32mx/3.4.4/../../../../pic32mx/lib/libc.a(memcpy.o)
                                                  build/uno/production/startup.o
U2BRGCLR                                          /Applications/microchip/mplabc32/v1.11a/bin/../lib/gcc/pic32mx/3.4.4/../../../../pic32mx/lib/./proc/32MX320F064H/processor.o
                                                  /Applications/microchip/mplabc32/v1.11a/bin/../lib/gcc/pic32mx/3.4.4/../../../../pic32mx/lib/libc.a(memcpy.o)
                                                  build/uno/production/startup.o
U2BRGINV                                          /Applications/microchip/mplabc32/v1.11a/bin/../lib/gcc/pic32mx/3.4.4/../../../../pic32mx/lib/./proc/32MX320F064H/processor.o
                                                  /Applications/microchip/mplabc32/v1.11a/bin/../lib/gcc/pic32mx/3.4.4/../../../../pic32mx/lib/libc.a(memcpy.o)
                                                  build/uno/production/startup.o
U2BRGSET                                          /Applications/microchip/mplabc32/v1.11a/bin/../lib/gcc/pic32mx/3.4.4/../../../../pic32mx/lib/./proc/32MX320F064H/processor.o
                                                  /Applications/microchip/mplabc32/v1.11a/bin/../lib/gcc/pic32mx/3.4.4/../../../../pic32mx/lib/libc.a(memcpy.o)
                                                  build/uno/production/startup.o
U2MODE                                            /Applications/microchip/mplabc32/v1.11a/bin/../lib/gcc/pic32mx/3.4.4/../../../../pic32mx/lib/./proc/32MX320F064H/processor.o
                                                  /Applications/microchip/mplabc32/v1.11a/bin/../lib/gcc/pic32mx/3.4.4/../../../../pic32mx/lib/libc.a(memcpy.o)
                                                  build/uno/production/startup.o
U2MODECLR                                         /Applications/microchip/mplabc32/v1.11a/bin/../lib/gcc/pic32mx/3.4.4/../../../../pic32mx/lib/./proc/32MX320F064H/processor.o
                                                  /Applications/microchip/mplabc32/v1.11a/bin/../lib/gcc/pic32mx/3.4.4/../../../../pic32mx/lib/libc.a(memcpy.o)
                                                  build/uno/production/startup.o
U2MODEINV                                         /Applications/microchip/mplabc32/v1.11a/bin/../lib/gcc/pic32mx/3.4.4/../../../../pic32mx/lib/./proc/32MX320F064H/processor.o
                                                  /Applications/microchip/mplabc32/v1.11a/bin/../lib/gcc/pic32mx/3.4.4/../../../../pic32mx/lib/libc.a(memcpy.o)
                                                  build/uno/production/startup.o
U2MODESET                                         /Applications/microchip/mplabc32/v1.11a/bin/../lib/gcc/pic32mx/3.4.4/../../../../pic32mx/lib/./proc/32MX320F064H/processor.o
                                                  /Applications/microchip/mplabc32/v1.11a/bin/../lib/gcc/pic32mx/3.4.4/../../../../pic32mx/lib/libc.a(memcpy.o)
                                                  build/uno/production/startup.o
U2RXREG                                           /Applications/microchip/mplabc32/v1.11a/bin/../lib/gcc/pic32mx/3.4.4/../../../../pic32mx/lib/./proc/32MX320F064H/processor.o
                                                  /Applications/microchip/mplabc32/v1.11a/bin/../lib/gcc/pic32mx/3.4.4/../../../../pic32mx/lib/libc.a(memcpy.o)
                                                  build/uno/production/startup.o
U2STA                                             /Applications/microchip/mplabc32/v1.11a/bin/../lib/gcc/pic32mx/3.4.4/../../../../pic32mx/lib/./proc/32MX320F064H/processor.o
                                                  /Applications/microchip/mplabc32/v1.11a/bin/../lib/gcc/pic32mx/3.4.4/../../../../pic32mx/lib/libc.a(memcpy.o)
                                                  build/uno/production/startup.o
U2STACLR                                          /Applications/microchip/mplabc32/v1.11a/bin/../lib/gcc/pic32mx/3.4.4/../../../../pic32mx/lib/./proc/32MX320F064H/processor.o
                                                  /Applications/microchip/mplabc32/v1.11a/bin/../lib/gcc/pic32mx/3.4.4/../../../../pic32mx/lib/libc.a(memcpy.o)
                                                  build/uno/production/startup.o
U2STAINV                                          /Applications/microchip/mplabc32/v1.11a/bin/../lib/gcc/pic32mx/3.4.4/../../../../pic32mx/lib/./proc/32MX320F064H/processor.o
                                                  /Applications/microchip/mplabc32/v1.11a/bin/../lib/gcc/pic32mx/3.4.4/../../../../pic32mx/lib/libc.a(memcpy.o)
                                                  build/uno/production/startup.o
U2STASET                                          /Applications/microchip/mplabc32/v1.11a/bin/../lib/gcc/pic32mx/3.4.4/../../../../pic32mx/lib/./proc/32MX320F064H/processor.o
                                                  /Applications/microchip/mplabc32/v1.11a/bin/../lib/gcc/pic32mx/3.4.4/../../../../pic32mx/lib/libc.a(memcpy.o)
                                                  build/uno/production/startup.o
U2TXREG                                           /Applications/microchip/mplabc32/v1.11a/bin/../lib/gcc/pic32mx/3.4.4/../../../../pic32mx/lib/./proc/32MX320F064H/processor.o
                                                  /Applications/microchip/mplabc32/v1.11a/bin/../lib/gcc/pic32mx/3.4.4/../../../../pic32mx/lib/libc.a(memcpy.o)
                                                  build/uno/production/startup.o
WDTCON                                            /Applications/microchip/mplabc32/v1.11a/bin/../lib/gcc/pic32mx/3.4.4/../../../../pic32mx/lib/./proc/32MX320F064H/processor.o
                                                  /Applications/microchip/mplabc32/v1.11a/bin/../lib/gcc/pic32mx/3.4.4/../../../../pic32mx/lib/libc.a(memcpy.o)
                                                  build/uno/production/startup.o
WDTCONCLR                                         /Applications/microchip/mplabc32/v1.11a/bin/../lib/gcc/pic32mx/3.4.4/../../../../pic32mx/lib/./proc/32MX320F064H/processor.o
                                                  /Applications/microchip/mplabc32/v1.11a/bin/../lib/gcc/pic32mx/3.4.4/../../../../pic32mx/lib/libc.a(memcpy.o)
                                                  build/uno/production/startup.o
WDTCONINV                                         /Applications/microchip/mplabc32/v1.11a/bin/../lib/gcc/pic32mx/3.4.4/../../../../pic32mx/lib/./proc/32MX320F064H/processor.o
                                                  /Applications/microchip/mplabc32/v1.11a/bin/../lib/gcc/pic32mx/3.4.4/../../../../pic32mx/lib/libc.a(memcpy.o)
                                                  build/uno/production/startup.o
WDTCONSET                                         /Applications/microchip/mplabc32/v1.11a/bin/../lib/gcc/pic32mx/3.4.4/../../../../pic32mx/lib/./proc/32MX320F064H/processor.o
                                                  /Applications/microchip/mplabc32/v1.11a/bin/../lib/gcc/pic32mx/3.4.4/../../../../pic32mx/lib/libc.a(memcpy.o)
                                                  build/uno/production/startup.o
_APPI                                             /Applications/microchip/mplabc32/v1.11a/bin/../lib/gcc/pic32mx/3.4.4/../../../../pic32mx/lib/libc.a(memcpy.o)
_APPO                                             /Applications/microchip/mplabc32/v1.11a/bin/../lib/gcc/pic32mx/3.4.4/../../../../pic32mx/lib/libc.a(memcpy.o)
_APPOCLR                                          /Applications/microchip/mplabc32/v1.11a/bin/../lib/gcc/pic32mx/3.4.4/../../../../pic32mx/lib/libc.a(memcpy.o)
_APPOINV                                          /Applications/microchip/mplabc32/v1.11a/bin/../lib/gcc/pic32mx/3.4.4/../../../../pic32mx/lib/libc.a(memcpy.o)
_APPOSET                                          /Applications/microchip/mplabc32/v1.11a/bin/../lib/gcc/pic32mx/3.4.4/../../../../pic32mx/lib/libc.a(memcpy.o)
_DDPSTAT                                          /Applications/microchip/mplabc32/v1.11a/bin/../lib/gcc/pic32mx/3.4.4/../../../../pic32mx/lib/libc.a(memcpy.o)
_NVMOperation                                     /Applications/microchip/mplabc32/v1.11a/bin/../lib/gcc/pic32mx/3.4.4/../../../../pic32mx/lib/libmchp_peripheral_32MX320F064H.a(nvm_operation_lib.o)
                                                  /Applications/microchip/mplabc32/v1.11a/bin/../lib/gcc/pic32mx/3.4.4/../../../../pic32mx/lib/libmchp_peripheral_32MX320F064H.a(nvm_erase_page_lib.o)
                                                  /Applications/microchip/mplabc32/v1.11a/bin/../lib/gcc/pic32mx/3.4.4/../../../../pic32mx/lib/libmchp_peripheral_32MX320F064H.a(nvm_write_row_lib.o)
_STRO                                             /Applications/microchip/mplabc32/v1.11a/bin/../lib/gcc/pic32mx/3.4.4/../../../../pic32mx/lib/libc.a(memcpy.o)
_STROCLR                                          /Applications/microchip/mplabc32/v1.11a/bin/../lib/gcc/pic32mx/3.4.4/../../../../pic32mx/lib/libc.a(memcpy.o)
_STROINV                                          /Applications/microchip/mplabc32/v1.11a/bin/../lib/gcc/pic32mx/3.4.4/../../../../pic32mx/lib/libc.a(memcpy.o)
_STROSET                                          /Applications/microchip/mplabc32/v1.11a/bin/../lib/gcc/pic32mx/3.4.4/../../../../pic32mx/lib/libc.a(memcpy.o)
__PIC32_pbClk                                     build/uno/production/pic32bootloader.o
__crt0_exit                                       build/uno/production/startup.o
_ebase_address                                    build/uno/production/startup.o
_gp                                               build/uno/production/startup.o
_reset                                            build/uno/production/startup.o
_vector_spacing                                   build/uno/production/startup.o
gEBASEptr                                         build/uno/production/pic32bootloader.o
gEepromIndex                                      build/uno/production/pic32bootloader.o
gFlashDataBuffer                                  build/uno/production/pic32bootloader.o
gFlashIndex                                       build/uno/production/pic32bootloader.o
gFlashPtr                                         build/uno/production/pic32bootloader.o
gPageBuffer                                       build/uno/production/pic32bootloader.o
gRamIndex                                         build/uno/production/pic32bootloader.o
gRamPtr                                           build/uno/production/pic32bootloader.o
gTextMsg_COMPILED_ON                              build/uno/production/pic32bootloader.o
gTextMsg_CPU_Name                                 build/uno/production/pic32bootloader.o
gTextMsg_CPU_Type                                 build/uno/production/pic32bootloader.o
gTextMsg_DEVID                                    build/uno/production/pic32bootloader.o
gTextMsg_Explorer                                 build/uno/production/pic32bootloader.o
gTextMsg_GCC_DATE_STR                             build/uno/production/pic32bootloader.o
gTextMsg_GCC_VERSION                              build/uno/production/pic32bootloader.o
gTextMsg_GCC_VERSION_STR                          build/uno/production/pic32bootloader.o
gTextMsg_HELP_MSG_0                               build/uno/production/pic32bootloader.o
gTextMsg_HELP_MSG_B                               build/uno/production/pic32bootloader.o
gTextMsg_HELP_MSG_F                               build/uno/production/pic32bootloader.o
gTextMsg_HELP_MSG_H                               build/uno/production/pic32bootloader.o
gTextMsg_HELP_MSG_L                               build/uno/production/pic32bootloader.o
gTextMsg_HELP_MSG_Q                               build/uno/production/pic32bootloader.o
gTextMsg_HELP_MSG_QM                              build/uno/production/pic32bootloader.o
gTextMsg_HELP_MSG_R                               build/uno/production/pic32bootloader.o
gTextMsg_HUH                                      build/uno/production/pic32bootloader.o
gTextMsg_Prompt                                   build/uno/production/pic32bootloader.o
main                                              build/uno/production/pic32bootloader.o
                                                  build/uno/production/startup.o
memcpy                                            /Applications/microchip/mplabc32/v1.11a/bin/../lib/gcc/pic32mx/3.4.4/../../../../pic32mx/lib/libc.a(memcpy.o)
                                                  /Applications/microchip/mplabc32/v1.11a/bin/../lib/gcc/pic32mx/3.4.4/../../../../pic32mx/lib/libmchp_peripheral_32MX320F064H.a(nvm_program_lib.o)
